EXPORTS
?max_exponent@?$numeric_limits@N@std@@2HB DATA
?max_n_points@Gis_multi_point@@0IB DATA
?max_exponent10@?$numeric_limits@N@std@@2HB DATA
?min_exponent@?$numeric_limits@N@std@@2HB DATA
?min_exponent10@?$numeric_limits@N@std@@2HB DATA
?digits@?$numeric_limits@O@std@@2HB DATA
?digits10@?$numeric_limits@O@std@@2HB DATA
?max_digits10@?$numeric_limits@O@std@@2HB DATA
?max_exponent@?$numeric_limits@O@std@@2HB DATA
?max_exponent10@?$numeric_limits@O@std@@2HB DATA
?min_exponent@?$numeric_limits@O@std@@2HB DATA
?min_exponent10@?$numeric_limits@O@std@@2HB DATA
?TEXT_LENGTH@Uuid@@2_KB DATA
?BYTE_LENGTH@Uuid@@2_KB DATA
?BIT_LENGTH@Uuid@@2_KB DATA
?NUMBER_OF_SECTIONS@Uuid@@0HB DATA
?has_denorm@_Num_base@std@@2W4float_denorm_style@2@B DATA
?PACK_LENGTH@Field_datetime@@2HB DATA
?has_denorm_loss@_Num_base@std@@2_NB DATA
?has_infinity@_Num_base@std@@2_NB DATA
?has_quiet_NaN@_Num_base@std@@2_NB DATA
?has_signaling_NaN@_Num_base@std@@2_NB DATA
?MAX_TEXT_LENGTH@Gtid_specification@@2HB DATA
?is_bounded@_Num_base@std@@2_NB DATA
?is_exact@_Num_base@std@@2_NB DATA
?is_iec559@_Num_base@std@@2_NB DATA
?is_integer@_Num_base@std@@2_NB DATA
?is_modulo@_Num_base@std@@2_NB DATA
?is_signed@_Num_base@std@@2_NB DATA
?is_specialized@_Num_base@std@@2_NB DATA
?tinyness_before@_Num_base@std@@2_NB DATA
?traps@_Num_base@std@@2_NB DATA
?round_style@_Num_base@std@@2W4float_round_style@2@B DATA
?digits@_Num_base@std@@2HB DATA
?digits10@_Num_base@std@@2HB DATA
?max_digits10@_Num_base@std@@2HB DATA
?max_exponent@_Num_base@std@@2HB DATA
?max_exponent10@_Num_base@std@@2HB DATA
?min_exponent@_Num_base@std@@2HB DATA
?min_exponent10@_Num_base@std@@2HB DATA
?radix@_Num_base@std@@2HB DATA
?value@?$integral_constant@_K$07@std@@2_KB DATA
?is_bounded@_Num_int_base@std@@2_NB DATA
?is_exact@_Num_int_base@std@@2_NB DATA
?is_integer@_Num_int_base@std@@2_NB DATA
?is_modulo@_Num_int_base@std@@2_NB DATA
?is_specialized@_Num_int_base@std@@2_NB DATA
?radix@_Num_int_base@std@@2HB DATA
?has_denorm@_Num_float_base@std@@2W4float_denorm_style@2@B DATA
?has_denorm_loss@_Num_float_base@std@@2_NB DATA
?has_infinity@_Num_float_base@std@@2_NB DATA
?has_quiet_NaN@_Num_float_base@std@@2_NB DATA
?has_signaling_NaN@_Num_float_base@std@@2_NB DATA
?is_bounded@_Num_float_base@std@@2_NB DATA
?is_exact@_Num_float_base@std@@2_NB DATA
?is_iec559@_Num_float_base@std@@2_NB DATA
?is_integer@_Num_float_base@std@@2_NB DATA
?value@?$integral_constant@_K$03@std@@2_KB DATA
?is_modulo@_Num_float_base@std@@2_NB DATA
?is_signed@_Num_float_base@std@@2_NB DATA
?is_specialized@_Num_float_base@std@@2_NB DATA
?tinyness_before@_Num_float_base@std@@2_NB DATA
?traps@_Num_float_base@std@@2_NB DATA
?round_style@_Num_float_base@std@@2W4float_round_style@2@B DATA
?radix@_Num_float_base@std@@2HB DATA
?is_signed@?$numeric_limits@D@std@@2_NB DATA
?extra_size@user_var_entry@@0_KB DATA
?digits@?$numeric_limits@D@std@@2HB DATA
?digits10@?$numeric_limits@D@std@@2HB DATA
?MAX_TEXT_LENGTH@Gtid@@2HB DATA
?MODIFIED_NON_TRANS_TABLE@THD_TRANS@@0IB DATA
?CREATED_TEMP_TABLE@THD_TRANS@@0IB DATA
?DROPPED_TEMP_TABLE@THD_TRANS@@0IB DATA
?value@?$integral_constant@_K$01@std@@2_KB DATA
?TABLE_ID_MAX@Table_id@@0_KB DATA
?is_signed@?$numeric_limits@_W@std@@2_NB DATA
?digits@?$numeric_limits@_W@std@@2HB DATA
?digits10@?$numeric_limits@_W@std@@2HB DATA
?is_modulo@?$numeric_limits@_N@std@@2_NB DATA
?is_signed@?$numeric_limits@_N@std@@2_NB DATA
?ALTER_ADD_COLUMN@Alter_info@@2IB DATA
?value@?$integral_constant@_K$00@std@@2_KB DATA
?ALTER_DROP_COLUMN@Alter_info@@2IB DATA
?digits@?$numeric_limits@_N@std@@2HB DATA
?ALTER_CHANGE_COLUMN@Alter_info@@2IB DATA
?digits10@?$numeric_limits@_N@std@@2HB DATA
?ALTER_ADD_INDEX@Alter_info@@2IB DATA
?ALTER_DROP_INDEX@Alter_info@@2IB DATA
?ALTER_RENAME@Alter_info@@2IB DATA
?ALTER_ORDER@Alter_info@@2IB DATA
?ALTER_OPTIONS@Alter_info@@2IB DATA
?ALTER_CHANGE_COLUMN_DEFAULT@Alter_info@@2IB DATA
?ALTER_KEYS_ONOFF@Alter_info@@2IB DATA
?ALTER_CONVERT@Alter_info@@2IB DATA
?ALTER_RECREATE@Alter_info@@2IB DATA
?ALTER_ADD_PARTITION@Alter_info@@2IB DATA
?value@?$_Maximum@$S@std@@2_KB DATA
?ALTER_DROP_PARTITION@Alter_info@@2IB DATA
?ALTER_COALESCE_PARTITION@Alter_info@@2IB DATA
?ALTER_REORGANIZE_PARTITION@Alter_info@@2IB DATA
?ALTER_PARTITION@Alter_info@@2IB DATA
?value@?$integral_constant@_N$0A@@std@@2_NB DATA
?ALTER_ADMIN_PARTITION@Alter_info@@2IB DATA
?is_signed@?$numeric_limits@C@std@@2_NB DATA
?ALTER_TABLE_REORG@Alter_info@@2IB DATA
?ALTER_REBUILD_PARTITION@Alter_info@@2IB DATA
?digits@?$numeric_limits@C@std@@2HB DATA
?ALTER_ALL_PARTITION@Alter_info@@2IB DATA
?digits10@?$numeric_limits@C@std@@2HB DATA
?ALTER_REMOVE_PARTITIONING@Alter_info@@2IB DATA
?ADD_FOREIGN_KEY@Alter_info@@2IB DATA
?DROP_FOREIGN_KEY@Alter_info@@2IB DATA
?ALTER_EXCHANGE_PARTITION@Alter_info@@2IB DATA
?value@?$integral_constant@_N$00@std@@2_NB DATA
?ALL_FIELDS_UNDEF_POS@st_select_lex@@2HB DATA
?ALTER_TRUNCATE_PARTITION@Alter_info@@2IB DATA
?function_buffer_item_size@Gcalc_function@@0IB DATA
?ALTER_COLUMN_ORDER@Alter_info@@2IB DATA
?shape_buffer_item_size@Gcalc_function@@0IB DATA
?value@?$integral_constant@_K$0A@@std@@2_KB DATA
?is_signed@?$numeric_limits@E@std@@2_NB DATA
?digits@?$numeric_limits@E@std@@2HB DATA
?digits10@?$numeric_limits@E@std@@2HB DATA
?PACK_LENGTH@Field_timestamp@@2HB DATA
?is_signed@?$numeric_limits@F@std@@2_NB DATA
?digits@?$numeric_limits@F@std@@2HB DATA
?digits10@?$numeric_limits@F@std@@2HB DATA
?ADD_INDEX@Alter_inplace_info@@2KB DATA
?DROP_INDEX@Alter_inplace_info@@2KB DATA
?ADD_UNIQUE_INDEX@Alter_inplace_info@@2KB DATA
?DROP_UNIQUE_INDEX@Alter_inplace_info@@2KB DATA
?ADD_PK_INDEX@Alter_inplace_info@@2KB DATA
?DROP_PK_INDEX@Alter_inplace_info@@2KB DATA
?ADD_COLUMN@Alter_inplace_info@@2KB DATA
?DROP_COLUMN@Alter_inplace_info@@2KB DATA
?is_signed@?$numeric_limits@G@std@@2_NB DATA
?ALTER_COLUMN_NAME@Alter_inplace_info@@2KB DATA
?ALTER_COLUMN_TYPE@Alter_inplace_info@@2KB DATA
?digits@?$numeric_limits@G@std@@2HB DATA
?ALTER_COLUMN_EQUAL_PACK_LENGTH@Alter_inplace_info@@2KB DATA
?ALTER_COLUMN_ORDER@Alter_inplace_info@@2KB DATA
?digits10@?$numeric_limits@G@std@@2HB DATA
?ALTER_COLUMN_NULLABLE@Alter_inplace_info@@2KB DATA
?ALTER_COLUMN_NOT_NULLABLE@Alter_inplace_info@@2KB DATA
?ALTER_COLUMN_DEFAULT@Alter_inplace_info@@2KB DATA
?ADD_FOREIGN_KEY@Alter_inplace_info@@2KB DATA
?DROP_FOREIGN_KEY@Alter_inplace_info@@2KB DATA
?CHANGE_CREATE_OPTION@Alter_inplace_info@@2KB DATA
?ALTER_RENAME@Alter_inplace_info@@2KB DATA
?ALTER_COLUMN_STORAGE_TYPE@Alter_inplace_info@@2KB DATA
?ALTER_COLUMN_COLUMN_FORMAT@Alter_inplace_info@@2KB DATA
?ADD_PARTITION@Alter_inplace_info@@2KB DATA
?DROP_PARTITION@Alter_inplace_info@@2KB DATA
?ALTER_PARTITION@Alter_inplace_info@@2KB DATA
?COALESCE_PARTITION@Alter_inplace_info@@2KB DATA
?REORGANIZE_PARTITION@Alter_inplace_info@@2KB DATA
?ALTER_TABLE_REORG@Alter_inplace_info@@2KB DATA
?is_signed@?$numeric_limits@H@std@@2_NB DATA
?ALTER_REMOVE_PARTITIONING@Alter_inplace_info@@2KB DATA
?ALTER_ALL_PARTITION@Alter_inplace_info@@2KB DATA
?digits@?$numeric_limits@H@std@@2HB DATA
?RECREATE_TABLE@Alter_inplace_info@@2KB DATA
?digits10@?$numeric_limits@H@std@@2HB DATA
?CHUNK_GROW_SIZE@Gtid_set@@0HB DATA
?PACK_LENGTH@Field_timestampf@@2HB DATA
?is_signed@?$numeric_limits@I@std@@2_NB DATA
?digits@?$numeric_limits@I@std@@2HB DATA
?digits10@?$numeric_limits@I@std@@2HB DATA
?test_value@my_decimal@@0HB DATA
?LOG_THROTTLE_WINDOW_SIZE@Log_throttle@@2KB DATA
?PACK_LENGTH@Field_long@@2HB DATA
?is_signed@?$numeric_limits@J@std@@2_NB DATA
?digits@?$numeric_limits@J@std@@2HB DATA
?digits10@?$numeric_limits@J@std@@2HB DATA
?is_signed@?$numeric_limits@K@std@@2_NB DATA
?digits@?$numeric_limits@K@std@@2HB DATA
?digits10@?$numeric_limits@K@std@@2HB DATA
?is_signed@?$numeric_limits@_J@std@@2_NB DATA
?digits@?$numeric_limits@_J@std@@2HB DATA
?digits10@?$numeric_limits@_J@std@@2HB DATA
?max_n_points@Gis_line_string@@0IB DATA
?PACK_LENGTH@Field_longlong@@2HB DATA
?is_signed@?$numeric_limits@_K@std@@2_NB DATA
?digits@?$numeric_limits@_K@std@@2HB DATA
?PACK_LENGTH@Field_newdate@@1HB DATA
?digits10@?$numeric_limits@_K@std@@2HB DATA
?digits@?$numeric_limits@M@std@@2HB DATA
?digits10@?$numeric_limits@M@std@@2HB DATA
?max_digits10@?$numeric_limits@M@std@@2HB DATA
?max_exponent@?$numeric_limits@M@std@@2HB DATA
?max_exponent10@?$numeric_limits@M@std@@2HB DATA
?min_exponent@?$numeric_limits@M@std@@2HB DATA
?min_exponent10@?$numeric_limits@M@std@@2HB DATA
?BINLOG_STMT_UNSAFE_ALL_FLAGS@Query_tables_list@@2HB DATA
?digits@?$numeric_limits@N@std@@2HB DATA
?digits10@?$numeric_limits@N@std@@2HB DATA
?max_digits10@?$numeric_limits@N@std@@2HB DATA
??_H@YAXPEAX_KHP6APEAX0@Z@Z
hypot
my_net_local_init
??$max@_K@std@@YAAEB_KAEB_K0@Z
??$_Debug_lt@AEB_KAEB_K@std@@YA_NAEB_K0PEB_WI@Z
??$forward@AEB_K@std@@YAAEB_KAEB_K@Z
??$_Debug_lt_pred@U?$less@X@std@@AEB_KAEB_K@std@@YA_NU?$less@X@0@AEB_K1PEB_WI@Z
??$?RAEB_KAEB_K@?$less@X@std@@QEBA_NAEB_K0@Z
?key_relay_log_info_log_space_cond@@3IA DATA
?key_relay_log_info_start_cond@@3IA DATA
?key_relay_log_info_stop_cond@@3IA DATA
?key_relay_log_info_sleep_cond@@3IA DATA
?key_cond_slave_parallel_pend_jobs@@3IA DATA
?key_cond_slave_parallel_worker@@3IA DATA
?key_TABLE_SHARE_cond@@3IA DATA
?key_user_level_lock_cond@@3IA DATA
?key_COND_thread_count@@3IA DATA
?key_COND_thread_cache@@3IA DATA
?key_COND_flush_thread_cache@@3IA DATA
?user_info@@3PEAUpasswd@@EA DATA
?key_BINLOG_COND_done@@3IA DATA
?key_RELAYLOG_COND_done@@3IA DATA
?key_RELAYLOG_update_cond@@3IA DATA
?key_BINLOG_prep_xids_cond@@3IA DATA
?key_RELAYLOG_prep_xids_cond@@3IA DATA
?key_gtid_ensure_index_cond@@3IA DATA
?key_thread_bootstrap@@3IA DATA
?key_thread_delayed_insert@@3IA DATA
?key_thread_handle_manager@@3IA DATA
?key_thread_main@@3IA DATA
?key_thread_one_connection@@3IA DATA
?key_thread_signal_hand@@3IA DATA
?key_file_map@@3IA DATA
?key_file_binlog@@3IA DATA
?key_file_binlog_index@@3IA DATA
?key_file_casetest@@3IA DATA
?key_file_dbopt@@3IA DATA
?key_file_des_key_file@@3IA DATA
?key_file_ERRMSG@@3IA DATA
?key_select_to_file@@3IA DATA
?report_port@@3IA DATA
?key_file_fileparser@@3IA DATA
?key_file_frm@@3IA DATA
?key_file_global_ddl_log@@3IA DATA
?key_file_load@@3IA DATA
?report_user@@3PEADEA DATA
?report_host@@3PEADEA DATA
?key_file_loadfile@@3IA DATA
?key_file_log_event_data@@3IA DATA
?report_password@@3PEADEA DATA
?key_file_log_event_info@@3IA DATA
?key_file_master_info@@3IA DATA
?key_file_misc@@3IA DATA
?key_file_partition@@3IA DATA
?key_LOCK_system_variables_hash@@3IA DATA
?key_file_pid@@3IA DATA
?key_file_relay_log_info@@3IA DATA
?key_file_send_file@@3IA DATA
?key_file_tclog@@3IA DATA
?key_file_trg@@3IA DATA
?key_file_trn@@3IA DATA
?key_file_init@@3IA DATA
?key_rwlock_Trans_delegate_lock@@3IA DATA
?key_file_query_log@@3IA DATA
?key_file_slow_log@@3IA DATA
?key_file_relaylog@@3IA DATA
?key_file_relaylog_index@@3IA DATA
?key_socket_tcpip@@3IA DATA
?key_socket_unix@@3IA DATA
?key_socket_client_connection@@3IA DATA
?stage_after_create@@3UPSI_stage_info_v1@@A DATA
?stage_allocating_local_table@@3UPSI_stage_info_v1@@A DATA
?stage_alter_inplace_prepare@@3UPSI_stage_info_v1@@A DATA
?stage_alter_inplace@@3UPSI_stage_info_v1@@A DATA
?stage_alter_inplace_commit@@3UPSI_stage_info_v1@@A DATA
?stage_changing_master@@3UPSI_stage_info_v1@@A DATA
?stage_checking_master_version@@3UPSI_stage_info_v1@@A DATA
?stage_checking_permissions@@3UPSI_stage_info_v1@@A DATA
?stage_checking_privileges_on_cached_query@@3UPSI_stage_info_v1@@A DATA
?stage_checking_query_cache_for_query@@3UPSI_stage_info_v1@@A DATA
?stage_cleaning_up@@3UPSI_stage_info_v1@@A DATA
?stage_closing_tables@@3UPSI_stage_info_v1@@A DATA
?stage_connecting_to_master@@3UPSI_stage_info_v1@@A DATA
?stage_converting_heap_to_myisam@@3UPSI_stage_info_v1@@A DATA
?stage_copying_to_group_table@@3UPSI_stage_info_v1@@A DATA
?stage_copying_to_tmp_table@@3UPSI_stage_info_v1@@A DATA
?stage_copy_to_tmp_table@@3UPSI_stage_info_v1@@A DATA
?stage_creating_delayed_handler@@3UPSI_stage_info_v1@@A DATA
?stage_creating_sort_index@@3UPSI_stage_info_v1@@A DATA
?key_rwlock_Binlog_storage_delegate_lock@@3IA DATA
?stage_creating_table@@3UPSI_stage_info_v1@@A DATA
?global_date_format@@3Ust_date_time_format@@A DATA
?my_default_lc_messages@@3PEAVMY_LOCALE@@EA DATA
?stage_creating_tmp_table@@3UPSI_stage_info_v1@@A DATA
?global_datetime_format@@3Ust_date_time_format@@A DATA
?global_time_format@@3Ust_date_time_format@@A DATA
?stage_deleting_from_main_table@@3UPSI_stage_info_v1@@A DATA
?my_default_lc_time_names@@3PEAVMY_LOCALE@@EA DATA
?stage_deleting_from_reference_tables@@3UPSI_stage_info_v1@@A DATA
?stage_discard_or_import_tablespace@@3UPSI_stage_info_v1@@A DATA
?stage_end@@3UPSI_stage_info_v1@@A DATA
?gtid_state@@3PEAVGtid_state@@EA DATA
?stage_executing@@3UPSI_stage_info_v1@@A DATA
?stage_execution_of_init_command@@3UPSI_stage_info_v1@@A DATA
?stage_explaining@@3UPSI_stage_info_v1@@A DATA
?stage_finished_reading_one_binlog_switching_to_next_binlog@@3UPSI_stage_info_v1@@A DATA
?stage_flushing_relay_log_and_master_info_repository@@3UPSI_stage_info_v1@@A DATA
?stage_flushing_relay_log_info_file@@3UPSI_stage_info_v1@@A DATA
?stage_freeing_items@@3UPSI_stage_info_v1@@A DATA
?stage_fulltext_initialization@@3UPSI_stage_info_v1@@A DATA
?stage_got_handler_lock@@3UPSI_stage_info_v1@@A DATA
?stage_got_old_table@@3UPSI_stage_info_v1@@A DATA
?stage_init@@3UPSI_stage_info_v1@@A DATA
?stage_insert@@3UPSI_stage_info_v1@@A DATA
?stage_invalidating_query_cache_entries_table@@3UPSI_stage_info_v1@@A DATA
?key_rwlock_Binlog_transmit_delegate_lock@@3IA DATA
?stage_invalidating_query_cache_entries_table_list@@3UPSI_stage_info_v1@@A DATA
?stage_killing_slave@@3UPSI_stage_info_v1@@A DATA
?stage_logging_slow_query@@3UPSI_stage_info_v1@@A DATA
?stage_making_temp_file_append_before_load_data@@3UPSI_stage_info_v1@@A DATA
?stage_making_temp_file_create_before_load_data@@3UPSI_stage_info_v1@@A DATA
?stage_manage_keys@@3UPSI_stage_info_v1@@A DATA
?stage_master_has_sent_all_binlog_to_slave@@3UPSI_stage_info_v1@@A DATA
?stage_opening_tables@@3UPSI_stage_info_v1@@A DATA
?comparator_matrix@Arg_comparator@@2PAY01P81@EAAHXZA DATA
?stage_optimizing@@3UPSI_stage_info_v1@@A DATA
?stage_preparing@@3UPSI_stage_info_v1@@A DATA
?stage_purging_old_relay_logs@@3UPSI_stage_info_v1@@A DATA
?stage_query_end@@3UPSI_stage_info_v1@@A DATA
?stage_queueing_master_event_to_the_relay_log@@3UPSI_stage_info_v1@@A DATA
?stage_reading_event_from_the_relay_log@@3UPSI_stage_info_v1@@A DATA
?stage_registering_slave_on_master@@3UPSI_stage_info_v1@@A DATA
?stage_removing_duplicates@@3UPSI_stage_info_v1@@A DATA
?stage_removing_tmp_table@@3UPSI_stage_info_v1@@A DATA
?stage_rename@@3UPSI_stage_info_v1@@A DATA
?stage_rename_result_table@@3UPSI_stage_info_v1@@A DATA
?stage_requesting_binlog_dump@@3UPSI_stage_info_v1@@A DATA
?stage_reschedule@@3UPSI_stage_info_v1@@A DATA
?stage_searching_rows_for_update@@3UPSI_stage_info_v1@@A DATA
?stage_sending_binlog_event_to_slave@@3UPSI_stage_info_v1@@A DATA
?stage_sending_cached_result_to_client@@3UPSI_stage_info_v1@@A DATA
?stage_sending_data@@3UPSI_stage_info_v1@@A DATA
?stage_setup@@3UPSI_stage_info_v1@@A DATA
?stage_slave_has_read_all_relay_log@@3UPSI_stage_info_v1@@A DATA
?stage_sorting_for_group@@3UPSI_stage_info_v1@@A DATA
?stage_sorting_for_order@@3UPSI_stage_info_v1@@A DATA
?stage_sorting_result@@3UPSI_stage_info_v1@@A DATA
?stage_sql_thd_waiting_until_delay@@3UPSI_stage_info_v1@@A DATA
?stage_statistics@@3UPSI_stage_info_v1@@A DATA
?stage_storing_result_in_query_cache@@3UPSI_stage_info_v1@@A DATA
?stage_storing_row_into_queue@@3UPSI_stage_info_v1@@A DATA
?stage_system_lock@@3UPSI_stage_info_v1@@A DATA
?stage_update@@3UPSI_stage_info_v1@@A DATA
?stage_updating@@3UPSI_stage_info_v1@@A DATA
?smem_event_connect_request@@3PEAXEA DATA
?PARSE_EARLY@sys_var@@2HB DATA
?opt_use_ssl@@3DA DATA
?stage_updating_main_table@@3UPSI_stage_info_v1@@A DATA
?rpl_filter@@3PEAVRpl_filter@@EA DATA
?stage_updating_reference_tables@@3UPSI_stage_info_v1@@A DATA
?stage_upgrading_lock@@3UPSI_stage_info_v1@@A DATA
?binlog_filter@@3PEAVRpl_filter@@EA DATA
?PARSE_NORMAL@sys_var@@2HB DATA
?stage_user_lock@@3UPSI_stage_info_v1@@A DATA
?stage_user_sleep@@3UPSI_stage_info_v1@@A DATA
?stage_verifying_table@@3UPSI_stage_info_v1@@A DATA
?des_key_file@@3PEADEA DATA
?key_rwlock_Binlog_relay_IO_delegate_lock@@3IA DATA
?stage_waiting_for_delay_list@@3UPSI_stage_info_v1@@A DATA
?stage_waiting_for_gtid_to_be_written_to_binary_log@@3UPSI_stage_info_v1@@A DATA
?stage_waiting_for_handler_insert@@3UPSI_stage_info_v1@@A DATA
?stage_waiting_for_handler_lock@@3UPSI_stage_info_v1@@A DATA
?stage_waiting_for_handler_open@@3UPSI_stage_info_v1@@A DATA
?global_sid_lock@@3PEAVCheckable_rwlock@@EA DATA
?stage_waiting_for_insert@@3UPSI_stage_info_v1@@A DATA
?stage_waiting_for_master_to_send_event@@3UPSI_stage_info_v1@@A DATA
?stage_waiting_for_master_update@@3UPSI_stage_info_v1@@A DATA
?stage_waiting_for_relay_log_space@@3UPSI_stage_info_v1@@A DATA
?stage_waiting_for_slave_mutex_on_exit@@3UPSI_stage_info_v1@@A DATA
?stage_waiting_for_slave_thread_to_start@@3UPSI_stage_info_v1@@A DATA
?stage_waiting_for_query_cache_lock@@3UPSI_stage_info_v1@@A DATA
?show_comp_option_name@@3PAPEBDA DATA
?stage_waiting_for_table_flush@@3UPSI_stage_info_v1@@A DATA
?stage_waiting_for_the_next_event_in_relay_log@@3UPSI_stage_info_v1@@A DATA
?stage_waiting_for_the_slave_thread_to_advance_position@@3UPSI_stage_info_v1@@A DATA
?stage_waiting_to_finalize_termination@@3UPSI_stage_info_v1@@A DATA
?stage_waiting_to_get_readlock@@3UPSI_stage_info_v1@@A DATA
?stage_slave_waiting_worker_to_release_partition@@3UPSI_stage_info_v1@@A DATA
?stage_slave_waiting_worker_to_free_events@@3UPSI_stage_info_v1@@A DATA
?stage_slave_waiting_worker_queue@@3UPSI_stage_info_v1@@A DATA
?stage_slave_waiting_event_from_coordinator@@3UPSI_stage_info_v1@@A DATA
?stage_slave_waiting_workers_to_exit@@3UPSI_stage_info_v1@@A DATA
?sql_statement_info@@3PAUPSI_statement_info_v1@@A DATA
?com_statement_info@@3PAUPSI_statement_info_v1@@A DATA
?stmt_info_rpl@@3UPSI_statement_info_v1@@A DATA
?ssl_acceptor_fd@@3PEAUst_VioSSLFd@@EA DATA
?opt_large_pages@@3DA DATA
?opt_large_page_size@@3IA DATA
?lc_messages_dir@@3PADA DATA
?lc_messages_dir_ptr@@3PEADEA DATA
?log_error_file_ptr@@3PEADEA DATA
?reg_ext@@3PADA DATA
?reg_ext_length@@3IA DATA
?lower_case_table_names@@3IA DATA
?mysqld_embedded@@3_NA DATA
?specialflag@@3KA DATA
?mysql_data_home_len@@3IA DATA
?mysql_real_data_home_len@@3IA DATA
?opt_show_slave_auth_info@@3DA DATA
?mysql_real_data_home_ptr@@3PEBDEB DATA
?thread_handling@@3KA DATA
?mysql_data_home@@3PEADEA DATA
server_version DATA
?mysql_real_data_home@@3PADA DATA
?mysql_unpacked_real_data_home@@3PADA DATA
?global_system_variables@@3Usystem_variables@@A DATA
?LOCK_status@@3Ust_mysql_mutex@@A DATA
?LOCK_error_log@@3Ust_mysql_mutex@@A DATA
?LOCK_delayed_insert@@3Ust_mysql_mutex@@A DATA
?LOCK_uuid_generator@@3Ust_mysql_mutex@@A DATA
?LOCK_delayed_status@@3Ust_mysql_mutex@@A DATA
?LOCK_delayed_create@@3Ust_mysql_mutex@@A DATA
?LOCK_crypt@@3Ust_mysql_mutex@@A DATA
?LOCK_slave_list@@3Ust_mysql_mutex@@A DATA
?LOCK_active_mi@@3Ust_mysql_mutex@@A DATA
?global_sid_map@@3PEAVSid_map@@EA DATA
?LOCK_global_system_variables@@3Ust_mysql_mutex@@A DATA
?LOCK_user_conn@@3Ust_mysql_mutex@@A DATA
?LOCK_log_throttle_qni@@3Ust_mysql_mutex@@A DATA
?LOCK_prepared_stmt_count@@3Ust_mysql_mutex@@A DATA
?LOCK_error_messages@@3Ust_mysql_mutex@@A DATA
?LOCK_connection_count@@3Ust_mysql_mutex@@A DATA
?LOCK_sql_slave_skip_counter@@3Ust_mysql_mutex@@A DATA
?LOCK_slave_net_timeout@@3Ust_mysql_mutex@@A DATA
?LOCK_des_key_file@@3Ust_mysql_mutex@@A DATA
?LOCK_server_started@@3Ust_mysql_mutex@@A DATA
?COND_server_started@@3Ust_mysql_cond@@A DATA
?LOCK_grant@@3Ust_mysql_rwlock@@A DATA
?LOCK_sys_init_connect@@3Ust_mysql_rwlock@@A DATA
?LOCK_sys_init_slave@@3Ust_mysql_rwlock@@A DATA
?LOCK_system_variables_hash@@3Ust_mysql_rwlock@@A DATA
?thread_running_lock@@3DA DATA
?slave_open_temp_tables_lock@@3DA DATA
?opt_binlog_max_flush_queue_time_lock@@3DA DATA
?opt_ssl_ca@@3PEADEA DATA
?opt_ssl_capath@@3PEADEA DATA
?opt_ssl_cert@@3PEADEA DATA
?opt_ssl_cipher@@3PEADEA DATA
?opt_ssl_key@@3PEADEA DATA
?opt_ssl_crl@@3PEADEA DATA
?opt_ssl_crlpath@@3PEADEA DATA
?THR_THD@@3KA DATA
?all_server_stages@@3PAPEAUPSI_stage_info_v1@@A DATA
?global_query_id@@3_JA DATA
?global_query_id_lock@@3DA DATA
?num_thread_running@@3HA DATA
?MY_BIND_ALL_ADDRESSES@@3PEBDEB DATA
?MAX_TABLE_CACHES@Table_cache_manager@@2HB DATA
?value@?$integral_constant@H$0A@@std@@2HB DATA
?opt_debug_sync_timeout@@3IA DATA
?LOCK_thread_count@@3Ust_mysql_mutex@@A DATA
?LOCK_thd_remove@@3Ust_mysql_mutex@@A DATA
?COND_thread_count@@3Ust_mysql_cond@@A DATA
?key_LOG_INFO_lock@@3IA DATA
?refresh_version@@3KA DATA
?ready_to_exit@@3_NC DATA
?max_used_connections@@3KA DATA
?shutdown_in_progress@@3_NC DATA
?slow_start_timeout@@3KA DATA
?grant_option@@3_NC DATA
?opt_super_large_pages@@3DA DATA
?binlog_checksum_default@@3PEBDEB DATA
system_charset_info DATA
?files_charset_info@@3PEAUcharset_info_st@@EA DATA
?national_charset_info@@3PEAUcharset_info_st@@EA DATA
?table_alias_charset@@3PEAUcharset_info_st@@EA DATA
?error_message_charset_info@@3PEAUcharset_info_st@@EA DATA
?character_set_filesystem@@3PEAUcharset_info_st@@EA DATA
?mysqld_port_timeout@@3IA DATA
?thread_created@@3KA DATA
?temp_pool@@3Ust_bitmap@@A DATA
?opt_large_files@@3_NA DATA
?server_id_supplied@@3_NA DATA
?thread_cache_size_specified@@3_NA DATA
?host_cache_size_specified@@3_NA DATA
?table_definition_cache_specified@@3_NA DATA
?opt_bin_log@@3_NA DATA
?opt_error_log@@3_NA DATA
?opt_log@@3DA DATA
?opt_slow_log@@3DA DATA
?opt_log_raw@@3DA DATA
?tc_heuristic_recover@@3KA DATA
?log_output_options@@3_KA DATA
?opt_log_queries_not_using_indexes@@3DA DATA
?opt_log_throttle_queries_not_using_indexes@@3KA DATA
?opt_disable_networking@@3_NA DATA
?opt_skip_show_db@@3_NA DATA
?logname_path@@3PADA DATA
?slow_logname_path@@3PADA DATA
?opt_skip_name_resolve@@3_NA DATA
?secure_file_real_path@@3PADA DATA
?opt_ignore_builtin_innodb@@3_NA DATA
?opt_character_set_client_handshake@@3DA DATA
?abort_loop@@3_NC DATA
?in_bootstrap@@3_NA DATA
?opt_bootstrap@@3DA DATA
?connection_count@@3IA DATA
?opt_safe_user_create@@3DA DATA
?opt_local_infile@@3DA DATA
?opt_myisam_use_mmap@@3DA DATA
?opt_slave_compressed_protocol@@3DA DATA
?use_temp_pool@@3DA DATA
?slave_exec_mode_options@@3KA DATA
?slave_type_conversions_options@@3_KA DATA
?read_only@@3DA DATA
?opt_readonly@@3DA DATA
?lower_case_file_system@@3DA DATA
?slave_rows_search_algorithms_options@@3_KA DATA
?slave_rows_last_search_algorithm_used@@3IA DATA
?opt_enable_named_pipe@@3DA DATA
?opt_sync_frm@@3DA DATA
?opt_allow_suspicious_udfs@@3DA DATA
?opt_secure_auth@@3DA DATA
?opt_secure_file_priv@@3PEADEA DATA
?opt_log_slow_admin_statements@@3DA DATA
?opt_log_slow_slave_statements@@3DA DATA
?sp_automatic_privileges@@3DA DATA
?opt_noacl@@3DA DATA
?opt_old_style_user_limits@@3DA DATA
?trust_function_creators@@3DA DATA
?shared_memory_base_name@@3PEADEA DATA
?mysqld_unix_port@@3PEADEA DATA
?opt_enable_shared_memory@@3DA DATA
?default_tz_name@@3PEADEA DATA
?default_tz@@3PEAVTime_zone@@EA DATA
?F_OBSERVE@Binlog_transmit_param@@2IB DATA
?default_storage_engine@@3PEADEA DATA
?default_tmp_storage_engine@@3PEADEA DATA
?opt_endinfo@@3_NA DATA
?LOCK_thread_created@@3Ust_mysql_mutex@@A DATA
?F_DONT_OBSERVE@Binlog_transmit_param@@2IB DATA
?LOCK_sql_rand@@3Ust_mysql_mutex@@A DATA
?using_udf_functions@@3_NA DATA
?locked_in_memory@@3DA DATA
?signal_thread@@3KA DATA
?opt_using_transactions@@3_NA DATA
?current_pid@@3KA DATA
?expire_logs_days@@3KA DATA
?relay_log_recovery@@3DA DATA
?sync_binlog_period@@3IA DATA
?sync_relaylog_period@@3IA DATA
?sync_relayloginfo_period@@3IA DATA
?sync_masterinfo_period@@3IA DATA
?opt_mts_checkpoint_period@@3IA DATA
?opt_mts_checkpoint_group@@3IA DATA
?relay_log_purge@@3DA DATA
?test_flags@@3IA DATA
?select_errors@@3IA DATA
?ha_open_options@@3IA DATA
?protocol_version@@3IA DATA
?mysqld_port@@3IA DATA
?dropping_tables@@3IA DATA
?delay_key_write_options@@3KA DATA
?opt_logname@@3PEADEA DATA
?opt_slow_logname@@3PEADEA DATA
?opt_bin_logname@@3PEADEA DATA
?opt_relay_logname@@3PEADEA DATA
?mysql_home_ptr@@3PEADEA DATA
?pidfile_name_ptr@@3PEADEA DATA
?my_bind_addr_str@@3PEADEA DATA
?glob_hostname@@3PADA DATA
?mysql_home@@3PADA DATA
?pidfile_name@@3PADA DATA
?system_time_zone@@3PADA DATA
?opt_init_file@@3PEADEA DATA
?default_logfile_name@@3PADA DATA
?log_error_file@@3PADA DATA
?opt_tc_log_file@@3PEADEA DATA
?server_uuid@@3PADA DATA
?server_uuid_ptr@@3PEBDEB DATA
?log_10@@3QBNB DATA
?thread_id@@3KA DATA
?binlog_cache_use@@3KA DATA
?binlog_cache_disk_use@@3KA DATA
?binlog_stmt_cache_use@@3KA DATA
?binlog_stmt_cache_disk_use@@3KA DATA
?aborted_threads@@3KA DATA
?aborted_connects@@3KA DATA
?delayed_insert_timeout@@3KA DATA
?delayed_insert_limit@@3KA DATA
?delayed_queue_size@@3KA DATA
?delayed_insert_threads@@3KA DATA
?delayed_insert_writes@@3KA DATA
?delayed_rows_in_use@@3KA DATA
?stmt_info_new_packet@@3UPSI_statement_info_v1@@A DATA
?delayed_insert_errors@@3KA DATA
?slave_open_temp_tables@@3HA DATA
?query_cache_size@@3KA DATA
?query_cache_min_res_unit@@3KA DATA
?slow_launch_threads@@3KA DATA
?slow_launch_time@@3KA DATA
?table_cache_size@@3KA DATA
?table_def_size@@3KA DATA
?binlog_format_names@@3PAPEBDA DATA
?table_cache_size_per_instance@@3KA DATA
?table_cache_instances@@3KA DATA
?max_connections@@3KA DATA
?max_digest_length@@3KA DATA
?max_connect_errors@@3KA DATA
?connect_timeout@@3KA DATA
?opt_slave_allow_batching@@3DA DATA
?slave_trans_retries@@3KA DATA
?slave_net_timeout@@3IA DATA
?opt_mts_slave_parallel_workers@@3KA DATA
?mqh_used@@3_NC DATA
?opt_mts_pending_jobs_size_max@@3_KA DATA
?rpl_stop_slave_timeout@@3KA DATA
?log_bin_use_v1_row_events@@3DA DATA
?what_to_log@@3KA DATA
?flush_time@@3KA DATA
?max_prepared_stmt_count@@3KA DATA
?prepared_stmt_count@@3KA DATA
?open_files_limit@@3KA DATA
?binlog_cache_size@@3KA DATA
?binlog_stmt_cache_size@@3KA DATA
?max_binlog_cache_size@@3_KA DATA
?max_binlog_stmt_cache_size@@3_KA DATA
?opt_binlog_max_flush_queue_time@@3HA DATA
?max_binlog_size@@3KA DATA
?max_relay_log_size@@3KA DATA
?slave_max_allowed_packet@@3KA DATA
?opt_binlog_rows_event_max_size@@3KA DATA
?LINES_IN_RELAY_LOG_INFO_WITH_DELAY@Relay_log_info@@0HB DATA
?binlog_checksum_options@@3KA DATA
?LINES_IN_RELAY_LOG_INFO_WITH_WORKERS@Relay_log_info@@0HB DATA
?opt_master_verify_checksum@@3DA DATA
?LINES_IN_RELAY_LOG_INFO_WITH_ID@Relay_log_info@@0HB DATA
?opt_slave_sql_verify_checksum@@3DA DATA
?enforce_gtid_consistency@@3DA DATA
?binlog_gtid_simple_recovery@@3DA DATA
?binlog_error_action@@3KA DATA
?binlog_error_action_list@@3PAPEBDA DATA
?gtid_mode@@3KA DATA
?gtid_mode_names@@3PAPEBDA DATA
?gtid_mode_typelib@@3Ust_typelib@@A DATA
?max_blocked_pthreads@@3KA DATA
?stored_program_cache_size@@3KA DATA
?back_log@@3KA DATA
server_id DATA
?concurrency@@3KA DATA
?server_start_time@@3_JA DATA
?flush_status_time@@3_JA DATA
?opt_mysql_tmpdir@@3PEADEA DATA
?mysql_charsets_dir@@3PADA DATA
?mysql_unpacked_real_data_home_len@@3HA DATA
?mysql_tmpdir_list@@3Ust_my_tmpdir@@A DATA
?first_keyword@@3PEBDEB DATA
?delayed_user@@3PEBDEB DATA
?binary_keyword@@3PEBDEB DATA
?my_localhost@@3PEBDEB DATA
?in_left_expr_name@@3PEBDEB DATA
?in_additional_cond@@3PEBDEB DATA
?in_having_cond@@3PEBDEB DATA
?status_vars@@3PAUst_mysql_show_var@@A DATA
?max_system_variables@@3Usystem_variables@@A DATA
?global_status_var@@3Usystem_status_var@@A DATA
?sql_rand@@3Urand_struct@@A DATA
?partition_hton@@3PEAUhandlerton@@EA DATA
?myisam_hton@@3PEAUhandlerton@@EA DATA
?heap_hton@@3PEAUhandlerton@@EA DATA
?opt_server_id_bits@@3IA DATA
?opt_server_id_mask@@3KA DATA
?SET_STRING_PREFIX_LENGTH@Gtid_log_event@@0_KB DATA
?load_default_groups@@3PAPEBDA DATA
?MAX_SET_STRING_LENGTH@Gtid_log_event@@0_KB DATA
?my_long_options@@3PAUmy_option@@A DATA
?my_long_early_options@@3PAUmy_option@@A DATA
?ENCODED_FLAG_LENGTH@Gtid_log_event@@0HB DATA
?ENCODED_SID_LENGTH@Gtid_log_event@@0HB DATA
?mysqld_server_started@@3HA DATA
orig_argc DATA
?ENCODED_GNO_LENGTH@Gtid_log_event@@0HB DATA
orig_argv DATA
?connection_attrib@@3Uthread_attr@@A DATA
?POST_HEADER_LENGTH@Gtid_log_event@@2HB DATA
?bootstrap_file@@3PEAUst_mysql_file@@EA DATA
?old_mode@@3DA DATA
?avoid_temporal_upgrade@@3DA DATA
?opt_init_connect@@3Ust_mysql_lex_string@@A DATA
?opt_init_slave@@3Ust_mysql_lex_string@@A DATA
?bootstrap_error@@3HA DATA
?master_retry_count@@3KA DATA
?connection_errors_select@@3KA DATA
?connection_errors_accept@@3KA DATA
?connection_errors_tcpwrap@@3KA DATA
?connection_errors_internal@@3KA DATA
?master_info_file@@3PEADEA DATA
?connection_errors_max_connection@@3KA DATA
?connection_errors_peer_addr@@3KA DATA
?relay_log_info_file@@3PEADEA DATA
?opt_relaylog_index_name@@3PEADEA DATA
?log_warnings@@3KA DATA
?opt_binlog_index_name@@3PEADEA DATA
?host_cache_size@@3IA DATA
?sql_statement_names@@3PAUst_mysql_const_lex_string@@A DATA
?opt_skip_slave_start@@3DA DATA
?opt_reckless_slave@@3DA DATA
?THR_MALLOC@@3KA DATA
?key_PAGE_lock@@3IA DATA
?opt_log_slave_updates@@3DA DATA
?key_LOCK_sync@@3IA DATA
?opt_slave_skip_errors@@3PEADEA DATA
?key_LOCK_active@@3IA DATA
?key_LOCK_pool@@3IA DATA
?key_LOCK_des_key_file@@3IA DATA
?key_BINLOG_LOCK_commit@@3IA DATA
?key_BINLOG_LOCK_commit_queue@@3IA DATA
?key_BINLOG_LOCK_done@@3IA DATA
?key_BINLOG_LOCK_flush_queue@@3IA DATA
?key_BINLOG_LOCK_index@@3IA DATA
?key_BINLOG_LOCK_log@@3IA DATA
?key_BINLOG_LOCK_sync@@3IA DATA
?key_BINLOG_LOCK_sync_queue@@3IA DATA
?key_BINLOG_LOCK_xids@@3IA DATA
?key_delayed_insert_mutex@@3IA DATA
?key_hash_filo_lock@@3IA DATA
?key_LOCK_active_mi@@3IA DATA
?key_LOCK_connection_count@@3IA DATA
?key_LOCK_crypt@@3IA DATA
?key_LOCK_delayed_create@@3IA DATA
?key_LOCK_delayed_insert@@3IA DATA
?key_LOCK_delayed_status@@3IA DATA
?key_LOCK_error_log@@3IA DATA
?key_LOCK_gdl@@3IA DATA
?key_LOCK_global_system_variables@@3IA DATA
?key_LOCK_manager@@3IA DATA
?key_LOCK_prepared_stmt_count@@3IA DATA
?key_LOCK_sql_slave_skip_counter@@3IA DATA
?key_LOCK_slave_net_timeout@@3IA DATA
?key_LOCK_server_started@@3IA DATA
?key_LOCK_status@@3IA DATA
?key_LOCK_table_share@@3IA DATA
?key_LOCK_thd_data@@3IA DATA
?key_LOCK_user_conn@@3IA DATA
?key_LOCK_uuid_generator@@3IA DATA
?key_LOG_LOCK_log@@3IA DATA
?key_master_info_data_lock@@3IA DATA
?key_master_info_run_lock@@3IA DATA
?key_master_info_sleep_lock@@3IA DATA
?key_mutex_slave_reporting_capability_err_lock@@3IA DATA
?key_relay_log_info_data_lock@@3IA DATA
?key_relay_log_info_sleep_lock@@3IA DATA
?key_relay_log_info_log_space_lock@@3IA DATA
?key_relay_log_info_run_lock@@3IA DATA
?key_mutex_slave_parallel_pend_jobs@@3IA DATA
?key_mutex_mts_temp_tables_lock@@3IA DATA
?key_mutex_slave_parallel_worker@@3IA DATA
?key_structure_guard_mutex@@3IA DATA
?key_TABLE_SHARE_LOCK_ha_data@@3IA DATA
?key_LOCK_error_messages@@3IA DATA
?com_status_vars@@3PAUst_mysql_show_var@@A DATA
?key_LOCK_thread_count@@3IA DATA
?key_LOCK_thd_remove@@3IA DATA
?key_LOCK_log_throttle_qni@@3IA DATA
?key_RELAYLOG_LOCK_commit@@3IA DATA
?key_RELAYLOG_LOCK_commit_queue@@3IA DATA
?key_RELAYLOG_LOCK_done@@3IA DATA
?key_RELAYLOG_LOCK_flush_queue@@3IA DATA
?key_RELAYLOG_LOCK_index@@3IA DATA
?key_RELAYLOG_LOCK_log@@3IA DATA
?key_RELAYLOG_LOCK_sync@@3IA DATA
?key_RELAYLOG_LOCK_sync_queue@@3IA DATA
?key_RELAYLOG_LOCK_xids@@3IA DATA
?key_LOCK_sql_rand@@3IA DATA
?key_gtid_ensure_index_mutex@@3IA DATA
?key_LOCK_thread_created@@3IA DATA
?key_rwlock_LOCK_grant@@3IA DATA
?key_rwlock_LOCK_logger@@3IA DATA
?key_rwlock_LOCK_sys_init_connect@@3IA DATA
?key_rwlock_LOCK_sys_init_slave@@3IA DATA
?key_rwlock_LOCK_system_variables_hash@@3IA DATA
?key_rwlock_query_cache_query_lock@@3IA DATA
?key_rwlock_global_sid_lock@@3IA DATA
?key_PAGE_cond@@3IA DATA
?key_COND_active@@3IA DATA
?have_profiling@@3W4SHOW_COMP_OPTION@@A DATA
?key_COND_pool@@3IA DATA
?have_ssl@@3W4SHOW_COMP_OPTION@@A DATA
?key_BINLOG_update_cond@@3IA DATA
?have_symlink@@3W4SHOW_COMP_OPTION@@A DATA
?key_COND_cache_status_changed@@3IA DATA
?have_dlopen@@3W4SHOW_COMP_OPTION@@A DATA
?key_COND_manager@@3IA DATA
?have_query_cache@@3W4SHOW_COMP_OPTION@@A DATA
?key_COND_server_started@@3IA DATA
?have_geometry@@3W4SHOW_COMP_OPTION@@A DATA
?key_delayed_insert_cond@@3IA DATA
?have_rtree_keys@@3W4SHOW_COMP_OPTION@@A DATA
?have_crypt@@3W4SHOW_COMP_OPTION@@A DATA
?key_delayed_insert_cond_client@@3IA DATA
?have_compress@@3W4SHOW_COMP_OPTION@@A DATA
?key_item_func_sleep_cond@@3IA DATA
?key_master_info_data_cond@@3IA DATA
?key_master_info_start_cond@@3IA DATA
?key_master_info_stop_cond@@3IA DATA
?key_master_info_sleep_cond@@3IA DATA
?key_relay_log_info_data_cond@@3IA DATA
?strchr@@YAPEADPEADH@Z
?strstr@@YAPEADPEADPEBD@Z
??2@YAPEAX_KPEAX@Z
??3@YAXPEAX0@Z
?_Adopt@_Iterator_base0@std@@QEAAXPEBX@Z
??0_Container_proxy@std@@QEAA@XZ
??0_Container_base12@std@@QEAA@XZ
??1_Container_base12@std@@QEAA@XZ
?_Orphan_all@_Container_base12@std@@QEAAXXZ
?_Swap_all@_Container_base12@std@@QEAAXAEAU12@@Z
??0_Iterator_base12@std@@QEAA@XZ
??0_Iterator_base12@std@@QEAA@AEBU01@@Z
??4_Iterator_base12@std@@QEAAAEAU01@AEBU01@@Z
??1_Iterator_base12@std@@QEAA@XZ
?_Adopt@_Iterator_base12@std@@QEAAXPEBU_Container_base12@2@@Z
?_Clrcont@_Iterator_base12@std@@QEAAXXZ
?_Orphan_me@_Iterator_base12@std@@QEAAXXZ
??0_Ignore@std@@QEAA@XZ
??2Sql_alloc@@SAPEAX_KPEAUst_mem_root@@@Z
??3Sql_alloc@@SAXPEAX_K@Z
??3Sql_alloc@@SAXPEAXPEAUst_mem_root@@@Z
??0Sql_alloc@@QEAA@XZ
??1Sql_alloc@@QEAA@XZ
??0list_node@@QEAA@PEAXPEAU0@@Z
?empty@base_list@@QEAAXXZ
??0base_list@@QEAA@XZ
?push_back@base_list@@QEAA_NPEAXPEAUst_mem_root@@@Z
??1base_list@@QEAA@XZ
??0base_list_iterator@@QEAA@AEAVbase_list@@@Z
?init@base_list_iterator@@QEAAXAEAVbase_list@@@Z
?next_fast@base_list_iterator@@QEAAPEAXXZ
??0?$ilink@Vi_string@@@@QEAA@XZ
?unlink@?$ilink@Vi_string@@@@QEAAXXZ
??1?$ilink@Vi_string@@@@UEAA@XZ
??0i_string@@QEAA@PEBD@Z
??1i_string@@UEAA@XZ
??0?$Bitmap@$0EA@@@QEAA@I@Z
?length@?$Bitmap@$0EA@@@QEBAIXZ
?set_prefix@?$Bitmap@$0EA@@@QEAAXI@Z
?set_all@?$Bitmap@$0EA@@@QEAAXXZ
?ptr@Simple_cstring@@QEBAPEBDXZ
?is_set@Simple_cstring@@QEBA_NXZ
??0String@@QEAA@XZ
??1String@@QEAA@XZ
?charset@String@@QEBAPEBUcharset_info_st@@XZ
?length@String@@QEBAIXZ
?ptr@String@@QEBAPEBDXZ
?c_ptr@String@@QEAAPEADXZ
?c_ptr_safe@String@@QEAAPEADXZ
?free@String@@QEAAXXZ
?init@my_decimal@@QEAAXXZ
??0my_decimal@@QEAA@XZ
??1my_decimal@@QEAA@XZ
?sanity_check@my_decimal@@QEAAXXZ
?my_decimal_set_zero@@YAHPEAVmy_decimal@@@Z
?kill_mysql@@YAXXZ
?close_connection@@YAXPEAVTHD@@I@Z
?handle_connection_in_main_thread@@YAXPEAVTHD@@@Z
?create_thread_to_handle_connection@@YAXPEAVTHD@@@Z
?destroy_thd@@YAXPEAVTHD@@@Z
?one_thread_per_connection_end@@YA_NPEAVTHD@@_N@Z
?kill_blocked_pthreads@@YAXXZ
?refresh_status@@YAXPEAVTHD@@@Z
?is_secure_file_path@@YA_NPEAD@Z
?dec_connection_count@@YAXXZ
?set_remaining_args@@YAXHPEAPEAD@Z
?init_common_variables@@YAHXZ
?my_init_signals@@YAXXZ
?gtid_server_init@@YA_NXZ
?gtid_server_cleanup@@YAXXZ
check_enough_stack_size
?handle_early_options@@YAHXZ
?adjust_related_options@@YAXPEAK@Z
?init_sql_statement_names@@YAXXZ
?init_server_psi_keys@@YAXXZ
?init_sql_statement_info@@YAXXZ
?init_com_statement_info@@YAXXZ
?unireg_end@@YAXXZ
unireg_abort
?sql_rnd_with_mutex@@YAKXZ
?_current_thd@@YAPEAVTHD@@XZ
??0Unknown_key_hook@@QEAA@XZ
??1Unknown_key_hook@@UEAA@XZ
??0File_parser_dummy_hook@@QEAA@XZ
??1File_parser_dummy_hook@@UEAA@XZ
?current_row_for_warning@Warning_info@@AEBAKXZ
?current_row_for_warning@Diagnostics_area@@QEBAKXZ
?get_warning_info@Diagnostics_area@@AEBAPEBVWarning_info@@XZ
?front@?$I_P_List@VWarning_info@@U?$I_P_List_adapter@VWarning_info@@$0IA@$0II@@@VI_P_List_counter@@V?$I_P_List_fast_push_back@VWarning_info@@@@@@QEBAPEBVWarning_info@@XZ
?is_temporal_type@@YA_NW4enum_field_types@@@Z
??0Checkable_rwlock@@QEAA@XZ
??1Checkable_rwlock@@QEAA@XZ
?rdlock@Checkable_rwlock@@QEAAXXZ
?wrlock@Checkable_rwlock@@QEAAXXZ
?unlock@Checkable_rwlock@@QEAAXXZ
?assert_some_lock@Checkable_rwlock@@QEBAXXZ
?assert_some_wrlock@Checkable_rwlock@@QEBAXXZ
?assert_no_wrlock@Checkable_rwlock@@QEBAXXZ
?assert_no_lock@Checkable_rwlock@@QEBAXXZ
?get_state@Checkable_rwlock@@AEBAHXZ
?get_max_sidno@Gtid_set@@QEBAHXZ
?is_empty@Gtid_set@@QEBA_NXZ
??0?$Interval_iterator_base@PEBVGtid_set@@PEBUInterval@1@@Gtid_set@@QEAA@PEBV1@@Z
?init@?$Interval_iterator_base@PEBVGtid_set@@PEBUInterval@1@@Gtid_set@@QEAAXPEBV2@H@Z
?get@?$Interval_iterator_base@PEBVGtid_set@@PEBUInterval@1@@Gtid_set@@QEBAPEBUInterval@2@XZ
??0Const_interval_iterator@Gtid_set@@QEAA@PEBV1@@Z
??0Gtid_iterator@Gtid_set@@QEAA@PEBV1@@Z
?get@Gtid_iterator@Gtid_set@@QEBA?AUGtid@@XZ
?next_sidno@Gtid_iterator@Gtid_set@@AEAAXXZ
??0Gtid_state@@QEAA@PEAVCheckable_rwlock@@PEAVSid_map@@@Z
?get_logged_gtids@Gtid_state@@QEBAPEBVGtid_set@@XZ
?get_lost_gtids@Gtid_state@@QEBAPEBVGtid_set@@XZ
??1Gtid_state@@QEAA@XZ
??0CSET_STRING@@QEAA@XZ
??0CSET_STRING@@QEAA@PEAD_KPEBUcharset_info_st@@@Z
?str@CSET_STRING@@QEBAPEADXZ
?length@CSET_STRING@@QEBA_KXZ
?charset@CSET_STRING@@QEBAPEBUcharset_info_st@@XZ
?set@DTCollation@@QEAAXPEBUcharset_info_st@@W4Derivation@@I@Z
?is_expensive_processor@Item@@EEAA_NPEAE@Z
??2Item@@SAPEAX_KPEAUst_mem_root@@@Z
??3Item@@SAXPEAX_K@Z
??3Item@@SAXPEAXPEAUst_mem_root@@@Z
??1Item@@UEAA@XZ
?fix_after_pullout@Item@@UEAAXPEAVst_select_lex@@0@Z
?save_org_in_field@Item@@UEAAXPEAVField@@@Z
?save_safe_in_field@Item@@UEAA?AW4type_conversion_status@@PEAVField@@@Z
?result_type@Item@@UEBA?AW4Item_result@@XZ
?numeric_context_result_type@Item@@UEBA?AW4Item_result@@XZ
?cast_to_int_type@Item@@UEBA?AW4Item_result@@XZ
?get_monotonicity_info@Item@@UEBA?AW4monotonicity_info@@XZ
?val_int_endpoint@Item@@UEAA_J_NPEA_N@Z
?val_nodeset@Item@@UEAAPEAVString@@PEAV2@@Z
?get_tmp_table_field@Item@@UEAAPEAVField@@XZ
?tmp_table_field@Item@@UEAAPEAVField@@PEAUTABLE@@@Z
?full_name@Item@@UEBAPEBDXZ
?val_result@Item@@UEAANXZ
?val_int_result@Item@@UEAA_JXZ
?val_time_temporal_result@Item@@UEAA_JXZ
?val_date_temporal_result@Item@@UEAA_JXZ
?str_result@Item@@UEAAPEAVString@@PEAV2@@Z
?val_decimal_result@Item@@UEAAPEAVmy_decimal@@PEAV2@@Z
?val_bool_result@Item@@UEAA_NXZ
?is_null_result@Item@@UEAA_NXZ
?used_tables@Item@@UEBA_KXZ
?resolved_used_tables@Item@@UEBA_KXZ
?not_null_tables@Item@@UEBA_KXZ
?basic_const_item@Item@@UEBA_NXZ
?clone_item@Item@@UEAAPEAV1@XZ
?eq_cmp_result@Item@@UEBA?AW4cond_result@1@XZ
?const_item@Item@@UEBA_NXZ
?const_during_execution@Item@@UEBA_NXZ
?print@Item@@UEAAXPEAVString@@W4enum_query_type@@@Z
?update_used_tables@Item@@UEAAXXZ
?split_sum_func@Item@@UEAAXPEAVTHD@@V?$Bounds_checked_array@PEAVItem@@@@AEAV?$List@VItem@@@@@Z
?get_date_result@Item@@UEAA_NPEAUst_mysql_time@@I@Z
?is_null@Item@@UEAA_NXZ
?update_null_value@Item@@UEAAXXZ
?top_level_item@Item@@UEAAXXZ
?set_result_field@Item@@UEAAXPEAVField@@@Z
?is_result_field@Item@@UEAA_NXZ
?is_bool_func@Item@@UEAA_NXZ
?save_in_result_field@Item@@UEAAX_N@Z
?no_rows_in_result@Item@@UEAAXXZ
?copy_or_same@Item@@UEAAPEAV1@PEAVTHD@@@Z
?copy_andor_structure@Item@@UEAAPEAV1@PEAVTHD@@_N@Z
?real_item@Item@@UEAAPEAV1@XZ
?substitutional_item@Item@@UEAAPEAV1@XZ
?set_runtime_created@Item@@UEAAXXZ
?get_tmp_table_item@Item@@UEAAPEAV1@PEAVTHD@@@Z
?compare_collation@Item@@UEAAPEBUcharset_info_st@@XZ
?charset_for_protocol@Item@@UEBAPEBUcharset_info_st@@XZ
?walk@Item@@UEAA_NP81@EAA_NPEAE@Z_N0@Z
?compile@Item@@UEAAPEAV1@P81@EAA_NPEAPEAE@Z0P81@EAAPEAV1@PEAE@Z2@Z
?traverse_cond@Item@@UEAAXP6AXPEBV1@PEAX@Z1W4traverse_order@1@@Z
?intro_version@Item@@UEAA_NPEAE@Z
?remove_dependence_processor@Item@@UEAA_NPEAE@Z
?remove_fixed@Item@@UEAA_NPEAE@Z
?collect_item_field_processor@Item@@UEAA_NPEAE@Z
?add_field_to_set_processor@Item@@UEAA_NPEAE@Z
?remove_column_from_bitmap@Item@@UEAA_NPEAE@Z
?find_item_in_field_list_processor@Item@@UEAA_NPEAE@Z
?change_context_processor@Item@@UEAA_NPEAE@Z
?reset_query_id_processor@Item@@UEAA_NPEAE@Z
?find_item_processor@Item@@UEAA_NPEAE@Z
?register_field_in_read_map@Item@@UEAA_NPEAE@Z
?inform_item_in_cond_of_tab@Item@@UEAA_NPEAE@Z
?clean_up_after_removal@Item@@UEAA_NPEAE@Z
?item_field_by_name_analyzer@Item@@UEAA_NPEAPEAE@Z
?item_field_by_name_transformer@Item@@UEAAPEAV1@PEAE@Z
?equality_substitution_analyzer@Item@@UEAA_NPEAPEAE@Z
?equality_substitution_transformer@Item@@UEAAPEAV1@PEAE@Z
?check_partition_func_processor@Item@@UEAA_NPEAE@Z
?subst_argument_checker@Item@@UEAA_NPEAPEAE@Z
?explain_subquery_checker@Item@@UEAA_NPEAPEAE@Z
?explain_subquery_propagator@Item@@UEAAPEAV1@PEAE@Z
?equal_fields_propagator@Item@@UEAAPEAV1@PEAE@Z
?set_no_const_sub@Item@@UEAA_NPEAE@Z
?replace_equal_field@Item@@UEAAPEAV1@PEAE@Z
?check_valid_arguments_processor@Item@@UEAA_NPEAE@Z
?find_function_processor@Item@@UEAA_NPEAE@Z
?this_item@Item@@UEAAPEAV1@XZ
?this_item@Item@@UEBAPEBV1@XZ
?this_item_addr@Item@@UEAAPEAPEAV1@PEAVTHD@@PEAPEAV1@@Z
?cols@Item@@UEAAIXZ
?element_index@Item@@UEAAPEAV1@I@Z
?addr@Item@@UEAAPEAPEAV1@I@Z
?null_inside@Item@@UEAA_NXZ
?bring_value@Item@@UEAAXXZ
?field_for_view_update@Item@@UEAAPEAVItem_field@@XZ
?neg_transformer@Item@@UEAAPEAV1@PEAVTHD@@@Z
?update_value_transformer@Item@@UEAAPEAV1@PEAE@Z
?is_splocal@Item@@UEAA_NXZ
?get_settable_routine_parameter@Item@@UEAAPEAVSettable_routine_parameter@@XZ
?is_temporal@Item@@QEBA_NXZ
?get_geometry_type@Item@@UEBA?AW4geometry_type@Field@@XZ
?is_expensive@Item@@UEAA_NXZ
?fix_char_length@Item@@QEAAXI@Z
?is_outer_field@Item@@UEBA_NXZ
?has_subquery@Item@@UEBA_NXZ
?has_stored_program@Item@@UEBA_NXZ
?created_by_in2exists@Item@@UEBA_NXZ
??_9Item@@$BA@AA
??0Item_result_field@@QEAA@XZ
??1Item_result_field@@UEAA@XZ
?get_tmp_table_field@Item_result_field@@UEAAPEAVField@@XZ
?tmp_table_field@Item_result_field@@UEAAPEAVField@@PEAUTABLE@@@Z
?used_tables@Item_result_field@@UEBA_KXZ
?set_result_field@Item_result_field@@UEAAXPEAVField@@@Z
?is_result_field@Item_result_field@@UEAA_NXZ
?save_in_result_field@Item_result_field@@UEAAX_N@Z
?type@Item_func@@UEBA?AW4Type@Item@@XZ
?functype@Item_func@@UEBA?AW4Functype@1@XZ
??0Item_func@@QEAA@XZ
?get_initial_pseudo_tables@Item_func@@UEBA_KXZ
?select_optimize@Item_func@@UEBA?AW4optimize_type@1@XZ
?have_rev_func@Item_func@@UEBA_NXZ
?key_item@Item_func@@UEBAPEAVItem@@XZ
?const_item@Item_func@@UEBA_NXZ
?is_null@Item_func@@UEAA_NXZ
?has_timestamp_args@Item_func@@QEAA_NXZ
?check_valid_arguments_processor@Item_func@@UEAA_NPEAE@Z
?find_function_processor@Item_func@@UEAA_NPEAE@Z
??1Item_func@@UEAA@XZ
??0Comp_creator@@QEAA@XZ
??1Comp_creator@@UEAA@XZ
??0Eq_creator@@QEAA@XZ
??1Eq_creator@@UEAA@XZ
?symbol@Eq_creator@@UEBAPEBD_N@Z
?eqne_op@Eq_creator@@UEBA_NXZ
?l_op@Eq_creator@@UEBA_NXZ
??0Ne_creator@@QEAA@XZ
??1Ne_creator@@UEAA@XZ
?symbol@Ne_creator@@UEBAPEBD_N@Z
?eqne_op@Ne_creator@@UEBA_NXZ
?l_op@Ne_creator@@UEBA_NXZ
??0Gt_creator@@QEAA@XZ
??1Gt_creator@@UEAA@XZ
?symbol@Gt_creator@@UEBAPEBD_N@Z
?eqne_op@Gt_creator@@UEBA_NXZ
?l_op@Gt_creator@@UEBA_NXZ
??0Lt_creator@@QEAA@XZ
??1Lt_creator@@UEAA@XZ
?symbol@Lt_creator@@UEBAPEBD_N@Z
?eqne_op@Lt_creator@@UEBA_NXZ
?l_op@Lt_creator@@UEBA_NXZ
??0Ge_creator@@QEAA@XZ
??1Ge_creator@@UEAA@XZ
?symbol@Ge_creator@@UEBAPEBD_N@Z
?eqne_op@Ge_creator@@UEBA_NXZ
?l_op@Ge_creator@@UEBA_NXZ
??0Le_creator@@QEAA@XZ
??1Le_creator@@UEAA@XZ
?symbol@Le_creator@@UEBAPEBD_N@Z
?eqne_op@Le_creator@@UEBA_NXZ
?l_op@Le_creator@@UEBA_NXZ
??0Item_str_func@@QEAA@XZ
?get_date@Item_str_func@@UEAA_NPEAUst_mysql_time@@I@Z
?get_time@Item_str_func@@UEAA_NPEAUst_mysql_time@@@Z
?result_type@Item_str_func@@UEBA?AW4Item_result@@XZ
??1Item_str_func@@UEAA@XZ
??$min@K@std@@YAAEBKAEBK0@Z
??0Item_func_uuid@@QEAA@XZ
?fix_length_and_dec@Item_func_uuid@@UEAAXXZ
?func_name@Item_func_uuid@@UEBAPEBDXZ
??1Item_func_uuid@@UEAA@XZ
??0Log_throttle@@IEAA@KPEBD@Z
??0Error_log_throttle@@QEAA@KP6AXPEBDZZ0@Z
my_message_sql
?release_resources_done@THD@@QEBA_NXZ
?query_start@THD@@QEAA_JXZ
?vio_ok@THD@@QEBA_NXZ
?get_stmt_da@THD@@QEAAPEAVDiagnostics_area@@XZ
?charset@THD@@QEAAPEBUcharset_info_st@@XZ
?get_command@THD@@QEBA?AW4enum_server_command@@XZ
?is_supported_parser_charset@@YA_NPEBUcharset_info_st@@@Z
?parse_date_time_format@@YA_NW4enum_mysql_timestamp_type@@PEAUst_date_time_format@@@Z
??0?$allocator@Umy_option@@@std@@QEAA@XZ
??0?$allocator@Umy_option@@@std@@QEAA@AEBV01@@Z
?deallocate@?$allocator@Umy_option@@@std@@QEAAXPEAUmy_option@@_K@Z
?allocate@?$allocator@Umy_option@@@std@@QEAAPEAUmy_option@@_K@Z
?construct@?$allocator@Umy_option@@@std@@QEAAXPEAUmy_option@@AEBU3@@Z
?max_size@?$allocator@Umy_option@@@std@@QEBA_KXZ
?max_size@?$allocator_traits@V?$allocator@Umy_option@@@std@@@std@@SA_KAEBV?$allocator@Umy_option@@@2@@Z
??0?$_Wrap_alloc@V?$allocator@Umy_option@@@std@@@std@@QEAA@XZ
?allocate@?$_Wrap_alloc@V?$allocator@Umy_option@@@std@@@std@@QEAAPEAUmy_option@@_K@Z
?deallocate@?$_Wrap_alloc@V?$allocator@Umy_option@@@std@@@std@@QEAAXPEAUmy_option@@_K@Z
?max_size@?$_Wrap_alloc@V?$allocator@Umy_option@@@std@@@std@@QEBA_KXZ
??0?$_Vector_val@U?$_Simple_types@Umy_option@@@std@@@std@@QEAA@XZ
??1?$_Vector_val@U?$_Simple_types@Umy_option@@@std@@@std@@QEAA@XZ
??0?$_Vector_alloc@$0A@U?$_Vec_base_types@Umy_option@@V?$allocator@Umy_option@@@std@@@std@@@std@@QEAA@AEBV?$allocator@Umy_option@@@1@@Z
??1?$_Vector_alloc@$0A@U?$_Vec_base_types@Umy_option@@V?$allocator@Umy_option@@@std@@@std@@@std@@QEAA@XZ
?_Swap_alloc@?$_Vector_alloc@$0A@U?$_Vec_base_types@Umy_option@@V?$allocator@Umy_option@@@std@@@std@@@std@@QEAAXAEAV12@@Z
?_Alloc_proxy@?$_Vector_alloc@$0A@U?$_Vec_base_types@Umy_option@@V?$allocator@Umy_option@@@std@@@std@@@std@@QEAAXXZ
?_Free_proxy@?$_Vector_alloc@$0A@U?$_Vec_base_types@Umy_option@@V?$allocator@Umy_option@@@std@@@std@@@std@@QEAAXXZ
??0?$vector@Umy_option@@V?$allocator@Umy_option@@@std@@@std@@QEAA@XZ
??1?$vector@Umy_option@@V?$allocator@Umy_option@@@std@@@std@@QEAA@XZ
?reserve@?$vector@Umy_option@@V?$allocator@Umy_option@@@std@@@std@@QEAAX_K@Z
?capacity@?$vector@Umy_option@@V?$allocator@Umy_option@@@std@@@std@@QEBA_KXZ
?_Unused_capacity@?$vector@Umy_option@@V?$allocator@Umy_option@@@std@@@std@@QEBA_KXZ
?begin@?$vector@Umy_option@@V?$allocator@Umy_option@@@std@@@std@@QEAA?AV?$_Vector_iterator@V?$_Vector_val@U?$_Simple_types@Umy_option@@@std@@@std@@@2@XZ
?end@?$vector@Umy_option@@V?$allocator@Umy_option@@@std@@@std@@QEAA?AV?$_Vector_iterator@V?$_Vector_val@U?$_Simple_types@Umy_option@@@std@@@std@@@2@XZ
?size@?$vector@Umy_option@@V?$allocator@Umy_option@@@std@@@std@@QEBA_KXZ
?max_size@?$vector@Umy_option@@V?$allocator@Umy_option@@@std@@@std@@QEBA_KXZ
?empty@?$vector@Umy_option@@V?$allocator@Umy_option@@@std@@@std@@QEBA_NXZ
??A?$vector@Umy_option@@V?$allocator@Umy_option@@@std@@@std@@QEAAAEAUmy_option@@_K@Z
?push_back@?$vector@Umy_option@@V?$allocator@Umy_option@@@std@@@std@@QEAAXAEBUmy_option@@@Z
?pop_back@?$vector@Umy_option@@V?$allocator@Umy_option@@@std@@@std@@QEAAXXZ
?swap@?$vector@Umy_option@@V?$allocator@Umy_option@@@std@@@std@@QEAAXAEAV12@@Z
?_Destroy@?$vector@Umy_option@@V?$allocator@Umy_option@@@std@@@std@@IEAAXPEAUmy_option@@0@Z
?_Inside@?$vector@Umy_option@@V?$allocator@Umy_option@@@std@@@std@@IEBA_NPEBUmy_option@@@Z
?_Reallocate@?$vector@Umy_option@@V?$allocator@Umy_option@@@std@@@std@@IEAAX_K@Z
?_Reserve@?$vector@Umy_option@@V?$allocator@Umy_option@@@std@@@std@@IEAAX_K@Z
?_Tidy@?$vector@Umy_option@@V?$allocator@Umy_option@@@std@@@std@@IEAAXXZ
?_Xlen@?$vector@Umy_option@@V?$allocator@Umy_option@@@std@@@std@@IEBAXXZ
?_Orphan_range@?$vector@Umy_option@@V?$allocator@Umy_option@@@std@@@std@@IEBAXPEAUmy_option@@0@Z
?push_back@?$base_ilist@Vi_string@@@@QEAAXPEAVi_string@@@Z
?get_db@Log_event@@UEAAPEBDXZ
??3Log_event@@SAXPEAX_K@Z
?write@Log_event@@UEAA_NPEAUst_io_cache@@@Z
?write_data_header@Log_event@@UEAA_NPEAUst_io_cache@@@Z
?write_data_body@Log_event@@UEAA_NPEAUst_io_cache@@@Z
??1Log_event@@UEAA@XZ
?free_temp_buf@Log_event@@QEAAXXZ
?get_data_size@Log_event@@UEAAHXZ
?get_mts_dbs@Log_event@@EEAAEPEAUst_mts_db_names@@@Z
?set_mts_isolate_group@Log_event@@EEAAXXZ
?mts_number_dbs@Log_event@@UEAAEXZ
?starts_group@Log_event@@UEAA_NXZ
?ends_group@Log_event@@UEAA_NXZ
?do_apply_event@Log_event@@UEAAHPEBVRelay_log_info@@@Z
??1Previous_gtids_log_event@@UEAA@XZ
?get_type_code@Previous_gtids_log_event@@UEAA?AW4Log_event_type@@XZ
?is_valid@Previous_gtids_log_event@@UEBA_NXZ
?get_data_size@Previous_gtids_log_event@@UEAAHXZ
?write@Previous_gtids_log_event@@UEAA_NPEAUst_io_cache@@@Z
?do_shall_skip@Previous_gtids_log_event@@UEAA?AW4enum_skip_reason@Log_event@@PEAVRelay_log_info@@@Z
?do_apply_event@Previous_gtids_log_event@@UEAAHPEBVRelay_log_info@@@Z
?set_psi_keys@MYSQL_BIN_LOG@@QEAAXIIIIIIIIIIIIII@Z
?set_previous_gtid_set@MYSQL_BIN_LOG@@QEAAXPEAVGtid_set@@@Z
?add_bytes_written@MYSQL_BIN_LOG@@QEAAX_K@Z
?get_log_file@MYSQL_BIN_LOG@@QEAAPEAUst_io_cache@@XZ
?_Kfn@?$_Tset_traits@PEAVTHD@@U?$less@PEAVTHD@@@std@@V?$allocator@PEAVTHD@@@3@$0A@@std@@SAAEBQEAVTHD@@AEBQEAV3@@Z
??R?$less@PEAVTHD@@@std@@QEBA_NAEBQEAVTHD@@0@Z
??0?$allocator@PEAVTHD@@@std@@QEAA@XZ
??0?$allocator@U?$_Tree_node@PEAVTHD@@PEAX@std@@@std@@QEAA@XZ
??0?$allocator@U?$_Tree_node@PEAVTHD@@PEAX@std@@@std@@QEAA@AEBV01@@Z
?deallocate@?$allocator@U?$_Tree_node@PEAVTHD@@PEAX@std@@@std@@QEAAXPEAU?$_Tree_node@PEAVTHD@@PEAX@2@_K@Z
?allocate@?$allocator@U?$_Tree_node@PEAVTHD@@PEAX@std@@@std@@QEAAPEAU?$_Tree_node@PEAVTHD@@PEAX@2@_K@Z
?max_size@?$allocator@U?$_Tree_node@PEAVTHD@@PEAX@std@@@std@@QEBA_KXZ
?max_size@?$allocator_traits@V?$allocator@U?$_Tree_node@PEAVTHD@@PEAX@std@@@std@@@std@@SA_KAEBV?$allocator@U?$_Tree_node@PEAVTHD@@PEAX@std@@@2@@Z
??0?$_Wrap_alloc@V?$allocator@U?$_Tree_node@PEAVTHD@@PEAX@std@@@std@@@std@@QEAA@XZ
?allocate@?$_Wrap_alloc@V?$allocator@U?$_Tree_node@PEAVTHD@@PEAX@std@@@std@@@std@@QEAAPEAU?$_Tree_node@PEAVTHD@@PEAX@2@_K@Z
?deallocate@?$_Wrap_alloc@V?$allocator@U?$_Tree_node@PEAVTHD@@PEAX@std@@@std@@@std@@QEAAXPEAU?$_Tree_node@PEAVTHD@@PEAX@2@_K@Z
?max_size@?$_Wrap_alloc@V?$allocator@U?$_Tree_node@PEAVTHD@@PEAX@std@@@std@@@std@@QEBA_KXZ
??0?$_Tree_val@U?$_Tree_simple_types@PEAVTHD@@@std@@@std@@QEAA@XZ
?_Color@?$_Tree_val@U?$_Tree_simple_types@PEAVTHD@@@std@@@std@@SAAEADPEAU?$_Tree_node@PEAVTHD@@PEAX@2@@Z
?_Isnil@?$_Tree_val@U?$_Tree_simple_types@PEAVTHD@@@std@@@std@@SAAEADPEAU?$_Tree_node@PEAVTHD@@PEAX@2@@Z
?_Left@?$_Tree_val@U?$_Tree_simple_types@PEAVTHD@@@std@@@std@@SAAEAPEAU?$_Tree_node@PEAVTHD@@PEAX@2@PEAU32@@Z
?_Parent@?$_Tree_val@U?$_Tree_simple_types@PEAVTHD@@@std@@@std@@SAAEAPEAU?$_Tree_node@PEAVTHD@@PEAX@2@PEAU32@@Z
?_Right@?$_Tree_val@U?$_Tree_simple_types@PEAVTHD@@@std@@@std@@SAAEAPEAU?$_Tree_node@PEAVTHD@@PEAX@2@PEAU32@@Z
?_Myval@?$_Tree_val@U?$_Tree_simple_types@PEAVTHD@@@std@@@std@@SAAEAPEAVTHD@@PEAU?$_Tree_node@PEAVTHD@@PEAX@2@@Z
?_Max@?$_Tree_val@U?$_Tree_simple_types@PEAVTHD@@@std@@@std@@SAPEAU?$_Tree_node@PEAVTHD@@PEAX@2@PEAU32@@Z
?_Min@?$_Tree_val@U?$_Tree_simple_types@PEAVTHD@@@std@@@std@@SAPEAU?$_Tree_node@PEAVTHD@@PEAX@2@PEAU32@@Z
??1?$_Tree_val@U?$_Tree_simple_types@PEAVTHD@@@std@@@std@@QEAA@XZ
??0?$_Tree_alloc@$0A@U?$_Tree_base_types@PEAVTHD@@V?$allocator@PEAVTHD@@@std@@@std@@@std@@QEAA@AEBV?$allocator@PEAVTHD@@@1@@Z
??1?$_Tree_alloc@$0A@U?$_Tree_base_types@PEAVTHD@@V?$allocator@PEAVTHD@@@std@@@std@@@std@@QEAA@XZ
?_Change_alloc@?$_Tree_alloc@$0A@U?$_Tree_base_types@PEAVTHD@@V?$allocator@PEAVTHD@@@std@@@std@@@std@@QEAAXAEBU?$_Wrap_alloc@V?$allocator@U?$_Tree_node@PEAVTHD@@PEAX@std@@@std@@@2@@Z
?_Alloc_proxy@?$_Tree_alloc@$0A@U?$_Tree_base_types@PEAVTHD@@V?$allocator@PEAVTHD@@@std@@@std@@@std@@QEAAXXZ
?_Free_proxy@?$_Tree_alloc@$0A@U?$_Tree_base_types@PEAVTHD@@V?$allocator@PEAVTHD@@@std@@@std@@@std@@QEAAXXZ
?_Buyheadnode@?$_Tree_alloc@$0A@U?$_Tree_base_types@PEAVTHD@@V?$allocator@PEAVTHD@@@std@@@std@@@std@@QEAAPEAU?$_Tree_node@PEAVTHD@@PEAX@2@XZ
?_Freeheadnode@?$_Tree_alloc@$0A@U?$_Tree_base_types@PEAVTHD@@V?$allocator@PEAVTHD@@@std@@@std@@@std@@QEAAXPEAU?$_Tree_node@PEAVTHD@@PEAX@2@@Z
??0?$_Tree_buy@PEAVTHD@@V?$allocator@PEAVTHD@@@std@@@std@@QEAA@AEBV?$allocator@PEAVTHD@@@1@@Z
?_Buynode0@?$_Tree_buy@PEAVTHD@@V?$allocator@PEAVTHD@@@std@@@std@@QEAAPEAU?$_Tree_node@PEAVTHD@@PEAX@2@XZ
?_Freenode0@?$_Tree_buy@PEAVTHD@@V?$allocator@PEAVTHD@@@std@@@std@@QEAAXPEAU?$_Tree_node@PEAVTHD@@PEAX@2@@Z
??1?$_Tree_buy@PEAVTHD@@V?$allocator@PEAVTHD@@@std@@@std@@QEAA@XZ
??0?$_Tree_comp@$0A@V?$_Tset_traits@PEAVTHD@@U?$less@PEAVTHD@@@std@@V?$allocator@PEAVTHD@@@3@$0A@@std@@@std@@QEAA@AEBU?$less@PEAVTHD@@@1@AEBV?$allocator@PEAVTHD@@@1@@Z
?_Setcomp@?$_Tree_comp@$0A@V?$_Tset_traits@PEAVTHD@@U?$less@PEAVTHD@@@std@@V?$allocator@PEAVTHD@@@3@$0A@@std@@@std@@QEAAXAEBU?$less@PEAVTHD@@@2@@Z
??1?$_Tree_comp@$0A@V?$_Tset_traits@PEAVTHD@@U?$less@PEAVTHD@@@std@@V?$allocator@PEAVTHD@@@3@$0A@@std@@@std@@QEAA@XZ
??0?$_Tree@V?$_Tset_traits@PEAVTHD@@U?$less@PEAVTHD@@@std@@V?$allocator@PEAVTHD@@@3@$0A@@std@@@std@@QEAA@AEBU?$less@PEAVTHD@@@1@AEBV?$allocator@PEAVTHD@@@1@@Z
??1?$_Tree@V?$_Tset_traits@PEAVTHD@@U?$less@PEAVTHD@@@std@@V?$allocator@PEAVTHD@@@3@$0A@@std@@@std@@QEAA@XZ
??4?$_Tree@V?$_Tset_traits@PEAVTHD@@U?$less@PEAVTHD@@@std@@V?$allocator@PEAVTHD@@@3@$0A@@std@@@std@@QEAAAEAV01@AEBV01@@Z
?begin@?$_Tree@V?$_Tset_traits@PEAVTHD@@U?$less@PEAVTHD@@@std@@V?$allocator@PEAVTHD@@@3@$0A@@std@@@std@@QEAA?AV?$_Tree_const_iterator@V?$_Tree_val@U?$_Tree_simple_types@PEAVTHD@@@std@@@std@@@2@XZ
?end@?$_Tree@V?$_Tset_traits@PEAVTHD@@U?$less@PEAVTHD@@@std@@V?$allocator@PEAVTHD@@@3@$0A@@std@@@std@@QEAA?AV?$_Tree_const_iterator@V?$_Tree_val@U?$_Tree_simple_types@PEAVTHD@@@std@@@std@@@2@XZ
?size@?$_Tree@V?$_Tset_traits@PEAVTHD@@U?$less@PEAVTHD@@@std@@V?$allocator@PEAVTHD@@@3@$0A@@std@@@std@@QEBA_KXZ
?max_size@?$_Tree@V?$_Tset_traits@PEAVTHD@@U?$less@PEAVTHD@@@std@@V?$allocator@PEAVTHD@@@3@$0A@@std@@@std@@QEBA_KXZ
?insert@?$_Tree@V?$_Tset_traits@PEAVTHD@@U?$less@PEAVTHD@@@std@@V?$allocator@PEAVTHD@@@3@$0A@@std@@@std@@QEAA?AU?$pair@V?$_Tree_const_iterator@V?$_Tree_val@U?$_Tree_simple_types@PEAVTHD@@@std@@@std@@@std@@_N@2@AEBQEAVTHD@@@Z
?erase@?$_Tree@V?$_Tset_traits@PEAVTHD@@U?$less@PEAVTHD@@@std@@V?$allocator@PEAVTHD@@@3@$0A@@std@@@std@@QEAA?AV?$_Tree_const_iterator@V?$_Tree_val@U?$_Tree_simple_types@PEAVTHD@@@std@@@std@@@2@V32@@Z
?erase@?$_Tree@V?$_Tset_traits@PEAVTHD@@U?$less@PEAVTHD@@@std@@V?$allocator@PEAVTHD@@@3@$0A@@std@@@std@@QEAA?AV?$_Tree_const_iterator@V?$_Tree_val@U?$_Tree_simple_types@PEAVTHD@@@std@@@std@@@2@V32@0@Z
?erase@?$_Tree@V?$_Tset_traits@PEAVTHD@@U?$less@PEAVTHD@@@std@@V?$allocator@PEAVTHD@@@3@$0A@@std@@@std@@QEAA_KAEBQEAVTHD@@@Z
?clear@?$_Tree@V?$_Tset_traits@PEAVTHD@@U?$less@PEAVTHD@@@std@@V?$allocator@PEAVTHD@@@3@$0A@@std@@@std@@QEAAXXZ
?find@?$_Tree@V?$_Tset_traits@PEAVTHD@@U?$less@PEAVTHD@@@std@@V?$allocator@PEAVTHD@@@3@$0A@@std@@@std@@QEAA?AV?$_Tree_const_iterator@V?$_Tree_val@U?$_Tree_simple_types@PEAVTHD@@@std@@@std@@@2@AEBQEAVTHD@@@Z
?lower_bound@?$_Tree@V?$_Tset_traits@PEAVTHD@@U?$less@PEAVTHD@@@std@@V?$allocator@PEAVTHD@@@3@$0A@@std@@@std@@QEAA?AV?$_Tree_const_iterator@V?$_Tree_val@U?$_Tree_simple_types@PEAVTHD@@@std@@@std@@@2@AEBQEAVTHD@@@Z
?equal_range@?$_Tree@V?$_Tset_traits@PEAVTHD@@U?$less@PEAVTHD@@@std@@V?$allocator@PEAVTHD@@@3@$0A@@std@@@std@@QEAA?AU?$pair@V?$_Tree_const_iterator@V?$_Tree_val@U?$_Tree_simple_types@PEAVTHD@@@std@@@std@@@std@@V12@@2@AEBQEAVTHD@@@Z
?_Destroy_if_not_nil@?$_Tree@V?$_Tset_traits@PEAVTHD@@U?$less@PEAVTHD@@@std@@V?$allocator@PEAVTHD@@@3@$0A@@std@@@std@@IEAAXU_Nil@2@@Z
?_Lbound@?$_Tree@V?$_Tset_traits@PEAVTHD@@U?$less@PEAVTHD@@@std@@V?$allocator@PEAVTHD@@@3@$0A@@std@@@std@@IEAAPEAU?$_Tree_node@PEAVTHD@@PEAX@2@AEBQEAVTHD@@@Z
?_Lmost@?$_Tree@V?$_Tset_traits@PEAVTHD@@U?$less@PEAVTHD@@@std@@V?$allocator@PEAVTHD@@@3@$0A@@std@@@std@@IEBAAEAPEAU?$_Tree_node@PEAVTHD@@PEAX@2@XZ
?_Lrotate@?$_Tree@V?$_Tset_traits@PEAVTHD@@U?$less@PEAVTHD@@@std@@V?$allocator@PEAVTHD@@@3@$0A@@std@@@std@@IEAAXPEAU?$_Tree_node@PEAVTHD@@PEAX@2@@Z
?_Rmost@?$_Tree@V?$_Tset_traits@PEAVTHD@@U?$less@PEAVTHD@@@std@@V?$allocator@PEAVTHD@@@3@$0A@@std@@@std@@IEBAAEAPEAU?$_Tree_node@PEAVTHD@@PEAX@2@XZ
?_Root@?$_Tree@V?$_Tset_traits@PEAVTHD@@U?$less@PEAVTHD@@@std@@V?$allocator@PEAVTHD@@@3@$0A@@std@@@std@@IEBAAEAPEAU?$_Tree_node@PEAVTHD@@PEAX@2@XZ
?_Rrotate@?$_Tree@V?$_Tset_traits@PEAVTHD@@U?$less@PEAVTHD@@@std@@V?$allocator@PEAVTHD@@@3@$0A@@std@@@std@@IEAAXPEAU?$_Tree_node@PEAVTHD@@PEAX@2@@Z
?_Orphan_ptr@?$_Tree@V?$_Tset_traits@PEAVTHD@@U?$less@PEAVTHD@@@std@@V?$allocator@PEAVTHD@@@3@$0A@@std@@@std@@IEBAXAEAV12@PEAU?$_Tree_node@PEAVTHD@@PEAX@2@@Z
?_Tidy@?$_Tree@V?$_Tset_traits@PEAVTHD@@U?$less@PEAVTHD@@@std@@V?$allocator@PEAVTHD@@@3@$0A@@std@@@std@@IEAAXXZ
?_Kfn@?$_Tree@V?$_Tset_traits@PEAVTHD@@U?$less@PEAVTHD@@@std@@V?$allocator@PEAVTHD@@@3@$0A@@std@@@std@@IEBAAEBQEAVTHD@@AEBQEAV3@@Z
?_Key@?$_Tree@V?$_Tset_traits@PEAVTHD@@U?$less@PEAVTHD@@@std@@V?$allocator@PEAVTHD@@@3@$0A@@std@@@std@@IEBAAEBQEAVTHD@@PEAU?$_Tree_node@PEAVTHD@@PEAX@2@@Z
??0?$set@PEAVTHD@@U?$less@PEAVTHD@@@std@@V?$allocator@PEAVTHD@@@3@@std@@QEAA@XZ
??4?$set@PEAVTHD@@U?$less@PEAVTHD@@@std@@V?$allocator@PEAVTHD@@@3@@std@@QEAAAEAV01@AEBV01@@Z
?insert@?$set@PEAVTHD@@U?$less@PEAVTHD@@@std@@V?$allocator@PEAVTHD@@@3@@std@@QEAA?AU?$pair@V?$_Tree_const_iterator@V?$_Tree_val@U?$_Tree_simple_types@PEAVTHD@@@std@@@std@@@std@@_N@2@AEBQEAVTHD@@@Z
??1?$set@PEAVTHD@@U?$less@PEAVTHD@@@std@@V?$allocator@PEAVTHD@@@3@@std@@QEAA@XZ
?global_thread_list_begin@@YA?AV?$_Tree_const_iterator@V?$_Tree_val@U?$_Tree_simple_types@PEAVTHD@@@std@@@std@@@std@@XZ
?global_thread_list_end@@YA?AV?$_Tree_const_iterator@V?$_Tree_val@U?$_Tree_simple_types@PEAVTHD@@@std@@@std@@@std@@XZ
?copy_global_thread_list@@YAXPEAV?$set@PEAVTHD@@U?$less@PEAVTHD@@@std@@V?$allocator@PEAVTHD@@@3@@std@@@Z
?add_global_thread@@YAXPEAVTHD@@@Z
?remove_global_thread@@YAXPEAVTHD@@@Z
?get_thread_count@@YAIXZ
?empty@?$base_ilist@VNAMED_ILINK@@@@QEAAXXZ
setup_fpu
??0?$allocator@U?$_List_node@PEAVTHD@@PEAX@std@@@std@@QEAA@XZ
?deallocate@?$allocator@U?$_List_node@PEAVTHD@@PEAX@std@@@std@@QEAAXPEAU?$_List_node@PEAVTHD@@PEAX@2@_K@Z
?allocate@?$allocator@U?$_List_node@PEAVTHD@@PEAX@std@@@std@@QEAAPEAU?$_List_node@PEAVTHD@@PEAX@2@_K@Z
?max_size@?$allocator@U?$_List_node@PEAVTHD@@PEAX@std@@@std@@QEBA_KXZ
?max_size@?$allocator_traits@V?$allocator@U?$_List_node@PEAVTHD@@PEAX@std@@@std@@@std@@SA_KAEBV?$allocator@U?$_List_node@PEAVTHD@@PEAX@std@@@2@@Z
??0?$_Wrap_alloc@V?$allocator@U?$_List_node@PEAVTHD@@PEAX@std@@@std@@@std@@QEAA@XZ
?allocate@?$_Wrap_alloc@V?$allocator@U?$_List_node@PEAVTHD@@PEAX@std@@@std@@@std@@QEAAPEAU?$_List_node@PEAVTHD@@PEAX@2@_K@Z
?deallocate@?$_Wrap_alloc@V?$allocator@U?$_List_node@PEAVTHD@@PEAX@std@@@std@@@std@@QEAAXPEAU?$_List_node@PEAVTHD@@PEAX@2@_K@Z
?max_size@?$_Wrap_alloc@V?$allocator@U?$_List_node@PEAVTHD@@PEAX@std@@@std@@@std@@QEBA_KXZ
??0?$_List_val@U?$_List_simple_types@PEAVTHD@@@std@@@std@@QEAA@XZ
?_Nextnode@?$_List_val@U?$_List_simple_types@PEAVTHD@@@std@@@std@@SAAEAPEAU?$_List_node@PEAVTHD@@PEAX@2@PEAU32@@Z
?_Prevnode@?$_List_val@U?$_List_simple_types@PEAVTHD@@@std@@@std@@SAAEAPEAU?$_List_node@PEAVTHD@@PEAX@2@PEAU32@@Z
?_Myval@?$_List_val@U?$_List_simple_types@PEAVTHD@@@std@@@std@@SAAEAPEAVTHD@@PEAU?$_List_node@PEAVTHD@@PEAX@2@@Z
??1?$_List_val@U?$_List_simple_types@PEAVTHD@@@std@@@std@@QEAA@XZ
??0?$_List_alloc@$0A@U?$_List_base_types@PEAVTHD@@V?$allocator@PEAVTHD@@@std@@@std@@@std@@QEAA@AEBV?$allocator@PEAVTHD@@@1@@Z
??1?$_List_alloc@$0A@U?$_List_base_types@PEAVTHD@@V?$allocator@PEAVTHD@@@std@@@std@@@std@@QEAA@XZ
?_Alloc_proxy@?$_List_alloc@$0A@U?$_List_base_types@PEAVTHD@@V?$allocator@PEAVTHD@@@std@@@std@@@std@@QEAAXXZ
?_Free_proxy@?$_List_alloc@$0A@U?$_List_base_types@PEAVTHD@@V?$allocator@PEAVTHD@@@std@@@std@@@std@@QEAAXXZ
?_Buyheadnode@?$_List_alloc@$0A@U?$_List_base_types@PEAVTHD@@V?$allocator@PEAVTHD@@@std@@@std@@@std@@QEAAPEAU?$_List_node@PEAVTHD@@PEAX@2@XZ
?_Freeheadnode@?$_List_alloc@$0A@U?$_List_base_types@PEAVTHD@@V?$allocator@PEAVTHD@@@std@@@std@@@std@@QEAAXPEAU?$_List_node@PEAVTHD@@PEAX@2@@Z
?_Buynode0@?$_List_alloc@$0A@U?$_List_base_types@PEAVTHD@@V?$allocator@PEAVTHD@@@std@@@std@@@std@@QEAAPEAU?$_List_node@PEAVTHD@@PEAX@2@PEAU32@0@Z
??0?$_List_buy@PEAVTHD@@V?$allocator@PEAVTHD@@@std@@@std@@QEAA@AEBV?$allocator@PEAVTHD@@@1@@Z
?_Freenode@?$_List_buy@PEAVTHD@@V?$allocator@PEAVTHD@@@std@@@std@@QEAAXPEAU?$_List_node@PEAVTHD@@PEAX@2@@Z
??1?$_List_buy@PEAVTHD@@V?$allocator@PEAVTHD@@@std@@@std@@QEAA@XZ
??0?$list@PEAVTHD@@V?$allocator@PEAVTHD@@@std@@@std@@QEAA@XZ
??1?$list@PEAVTHD@@V?$allocator@PEAVTHD@@@std@@@std@@QEAA@XZ
?begin@?$list@PEAVTHD@@V?$allocator@PEAVTHD@@@std@@@std@@QEAA?AV?$_List_iterator@V?$_List_val@U?$_List_simple_types@PEAVTHD@@@std@@@std@@@2@XZ
?_Unchecked_end@?$list@PEAVTHD@@V?$allocator@PEAVTHD@@@std@@@std@@QEAA?AV?$_List_unchecked_iterator@V?$_List_val@U?$_List_simple_types@PEAVTHD@@@std@@@std@@@2@XZ
?_Make_iter@?$list@PEAVTHD@@V?$allocator@PEAVTHD@@@std@@@std@@QEBA?AV?$_List_iterator@V?$_List_val@U?$_List_simple_types@PEAVTHD@@@std@@@std@@@2@V?$_List_const_iterator@V?$_List_val@U?$_List_simple_types@PEAVTHD@@@std@@@std@@@2@@Z
?max_size@?$list@PEAVTHD@@V?$allocator@PEAVTHD@@@std@@@std@@QEBA_KXZ
?empty@?$list@PEAVTHD@@V?$allocator@PEAVTHD@@@std@@@std@@QEBA_NXZ
?front@?$list@PEAVTHD@@V?$allocator@PEAVTHD@@@std@@@std@@QEAAAEAPEAVTHD@@XZ
?pop_front@?$list@PEAVTHD@@V?$allocator@PEAVTHD@@@std@@@std@@QEAAXXZ
?push_back@?$list@PEAVTHD@@V?$allocator@PEAVTHD@@@std@@@std@@QEAAXAEBQEAVTHD@@@Z
?_Unlinknode@?$list@PEAVTHD@@V?$allocator@PEAVTHD@@@std@@@std@@QEAAPEAU?$_List_node@PEAVTHD@@PEAX@2@V?$_List_const_iterator@V?$_List_val@U?$_List_simple_types@PEAVTHD@@@std@@@std@@@2@@Z
?erase@?$list@PEAVTHD@@V?$allocator@PEAVTHD@@@std@@@std@@QEAA?AV?$_List_iterator@V?$_List_val@U?$_List_simple_types@PEAVTHD@@@std@@@std@@@2@V?$_List_const_iterator@V?$_List_val@U?$_List_simple_types@PEAVTHD@@@std@@@std@@@2@@Z
?clear@?$list@PEAVTHD@@V?$allocator@PEAVTHD@@@std@@@std@@QEAAXXZ
?_Tidy@?$list@PEAVTHD@@V?$allocator@PEAVTHD@@@std@@@std@@QEAAXXZ
?_Incsize@?$list@PEAVTHD@@V?$allocator@PEAVTHD@@@std@@@std@@QEAAX_K@Z
?_Orphan_ptr@?$list@PEAVTHD@@V?$allocator@PEAVTHD@@@std@@@std@@QEBAXAEAV12@PEAU?$_List_node@PEAVTHD@@PEAX@2@@Z
??0?$_Iterator012@Ubidirectional_iterator_tag@std@@PEAVTHD@@_JPEBQEAV3@AEBQEAV3@U_Iterator_base12@2@@std@@QEAA@XZ
??1?$_Iterator012@Ubidirectional_iterator_tag@std@@PEAVTHD@@_JPEBQEAV3@AEBQEAV3@U_Iterator_base12@2@@std@@QEAA@XZ
??0?$_Iterator012@Ubidirectional_iterator_tag@std@@PEAVTHD@@_JPEBQEAV3@AEBQEAV3@U_Iterator_base12@2@@std@@QEAA@AEBU01@@Z
??4?$_Iterator012@Ubidirectional_iterator_tag@std@@PEAVTHD@@_JPEBQEAV3@AEBQEAV3@U_Iterator_base12@2@@std@@QEAAAEAU01@AEBU01@@Z
??0?$_Tree_unchecked_const_iterator@V?$_Tree_val@U?$_Tree_simple_types@PEAVTHD@@@std@@@std@@U_Iterator_base12@2@@std@@QEAA@PEAU?$_Tree_node@PEAVTHD@@PEAX@1@PEBV?$_Tree_val@U?$_Tree_simple_types@PEAVTHD@@@std@@@1@@Z
??E?$_Tree_unchecked_const_iterator@V?$_Tree_val@U?$_Tree_simple_types@PEAVTHD@@@std@@@std@@U_Iterator_base12@2@@std@@QEAAAEAV01@XZ
??F?$_Tree_unchecked_const_iterator@V?$_Tree_val@U?$_Tree_simple_types@PEAVTHD@@@std@@@std@@U_Iterator_base12@2@@std@@QEAAAEAV01@XZ
?_Mynode@?$_Tree_unchecked_const_iterator@V?$_Tree_val@U?$_Tree_simple_types@PEAVTHD@@@std@@@std@@U_Iterator_base12@2@@std@@QEBAPEAU?$_Tree_node@PEAVTHD@@PEAX@2@XZ
??1?$_Tree_unchecked_const_iterator@V?$_Tree_val@U?$_Tree_simple_types@PEAVTHD@@@std@@@std@@U_Iterator_base12@2@@std@@QEAA@XZ
??0?$_Tree_unchecked_const_iterator@V?$_Tree_val@U?$_Tree_simple_types@PEAVTHD@@@std@@@std@@U_Iterator_base12@2@@std@@QEAA@AEBV01@@Z
??4?$_Tree_unchecked_const_iterator@V?$_Tree_val@U?$_Tree_simple_types@PEAVTHD@@@std@@@std@@U_Iterator_base12@2@@std@@QEAAAEAV01@AEBV01@@Z
??0?$_Tree_const_iterator@V?$_Tree_val@U?$_Tree_simple_types@PEAVTHD@@@std@@@std@@@std@@QEAA@PEAU?$_Tree_node@PEAVTHD@@PEAX@1@PEBV?$_Tree_val@U?$_Tree_simple_types@PEAVTHD@@@std@@@1@@Z
??D?$_Tree_const_iterator@V?$_Tree_val@U?$_Tree_simple_types@PEAVTHD@@@std@@@std@@@std@@QEBAAEBQEAVTHD@@XZ
??E?$_Tree_const_iterator@V?$_Tree_val@U?$_Tree_simple_types@PEAVTHD@@@std@@@std@@@std@@QEAAAEAV01@XZ
??E?$_Tree_const_iterator@V?$_Tree_val@U?$_Tree_simple_types@PEAVTHD@@@std@@@std@@@std@@QEAA?AV01@H@Z
??F?$_Tree_const_iterator@V?$_Tree_val@U?$_Tree_simple_types@PEAVTHD@@@std@@@std@@@std@@QEAAAEAV01@XZ
??8?$_Tree_const_iterator@V?$_Tree_val@U?$_Tree_simple_types@PEAVTHD@@@std@@@std@@@std@@QEBA_NAEBV01@@Z
??9?$_Tree_const_iterator@V?$_Tree_val@U?$_Tree_simple_types@PEAVTHD@@@std@@@std@@@std@@QEBA_NAEBV01@@Z
??1?$_Tree_const_iterator@V?$_Tree_val@U?$_Tree_simple_types@PEAVTHD@@@std@@@std@@@std@@QEAA@XZ
??0?$_Tree_const_iterator@V?$_Tree_val@U?$_Tree_simple_types@PEAVTHD@@@std@@@std@@@std@@QEAA@AEBV01@@Z
??4?$_Tree_const_iterator@V?$_Tree_val@U?$_Tree_simple_types@PEAVTHD@@@std@@@std@@@std@@QEAAAEAV01@AEBV01@@Z
??1?$pair@V?$_Tree_const_iterator@V?$_Tree_val@U?$_Tree_simple_types@PEAVTHD@@@std@@@std@@@std@@_N@std@@QEAA@XZ
?net_before_header_psi@@YAXPEAUst_net@@PEAX_K@Z
?net_after_header_psi@@YAXPEAUst_net@@PEAX_KD@Z
?init_net_server_extension@@YAXPEAVTHD@@@Z
??0Buffered_log@@QEAA@W4loglevel@@PEBD@Z
??1Buffered_log@@QEAA@XZ
?print@Buffered_log@@QEAAXXZ
??0Buffered_logs@@QEAA@XZ
??1Buffered_logs@@QEAA@XZ
?init@Buffered_logs@@QEAAXXZ
?cleanup@Buffered_logs@@QEAAXXZ
?buffer@Buffered_logs@@QEAAXW4loglevel@@PEBD@Z
?print@Buffered_logs@@QEAAXXZ
??0?$List@VBuffered_log@@@@QEAA@XZ
?push_back@?$List@VBuffered_log@@@@QEAA_NPEAVBuffered_log@@PEAUst_mem_root@@@Z
?delete_elements@?$List@VBuffered_log@@@@QEAAXXZ
??1?$List@VBuffered_log@@@@QEAA@XZ
??0?$List_iterator_fast@VBuffered_log@@@@QEAA@AEAV?$List@VBuffered_log@@@@@Z
??E?$List_iterator_fast@VBuffered_log@@@@QEAAPEAVBuffered_log@@H@Z
?IsNT@NTService@@QEAAHXZ
?SetShutdownEvent@NTService@@QEAAXPEAX@Z
mysqld_get_one_option
?handle_connections_sockets@@YAXXZ
handle_connections_sockets_thread
kill_server_thread
handle_connections_namedpipes
handle_connections_shared_memory
print_signal_warning
end_thread_signal
?thd_release_resources@@YAXPEAVTHD@@@Z
?my_unhandler_exception_filter@@YAJPEAU_EXCEPTION_POINTERS@@@Z
my_str_malloc_mysqld
my_str_free_mysqld
my_str_realloc_mysqld
handle_shutdown
?flush_auto_options@@YAHPEBD@Z
?decrement_handler_count@@YAXXZ
?win_main@@YAHHPEAPEAD@Z
?mysql_service@@YAHPEAX@Z
?mysqld_main@@YAHHPEAPEAD@Z
?inc_thread_created@@YAXXZ
??$max@I@std@@YAAEBIAEBI0@Z
?adjust_open_files_limit@@YAXPEAK@Z
??$max@K@std@@YAAEBKAEBK0@Z
?adjust_max_connections@@YAXK@Z
?adjust_table_cache_size@@YAXK@Z
?adjust_table_def_size@@YAXXZ
??$min@_J@std@@YAAEB_JAEB_J0@Z
??0?$_Iterator012@Urandom_access_iterator_tag@std@@Umy_option@@_JPEBU3@AEBU3@U_Iterator_base12@2@@std@@QEAA@XZ
??1?$_Iterator012@Urandom_access_iterator_tag@std@@Umy_option@@_JPEBU3@AEBU3@U_Iterator_base12@2@@std@@QEAA@XZ
??0?$_Iterator012@Urandom_access_iterator_tag@std@@Umy_option@@_JPEBU3@AEBU3@U_Iterator_base12@2@@std@@QEAA@AEBU01@@Z
??0?$_Vector_const_iterator@V?$_Vector_val@U?$_Simple_types@Umy_option@@@std@@@std@@@std@@QEAA@PEAUmy_option@@PEBU_Container_base12@1@@Z
??G?$_Vector_const_iterator@V?$_Vector_val@U?$_Simple_types@Umy_option@@@std@@@std@@@std@@QEBA_JAEBV01@@Z
??8?$_Vector_const_iterator@V?$_Vector_val@U?$_Simple_types@Umy_option@@@std@@@std@@@std@@QEBA_NAEBV01@@Z
??9?$_Vector_const_iterator@V?$_Vector_val@U?$_Simple_types@Umy_option@@@std@@@std@@@std@@QEBA_NAEBV01@@Z
??M?$_Vector_const_iterator@V?$_Vector_val@U?$_Simple_types@Umy_option@@@std@@@std@@@std@@QEBA_NAEBV01@@Z
?_Compat@?$_Vector_const_iterator@V?$_Vector_val@U?$_Simple_types@Umy_option@@@std@@@std@@@std@@QEBAXAEBV12@@Z
??1?$_Vector_const_iterator@V?$_Vector_val@U?$_Simple_types@Umy_option@@@std@@@std@@@std@@QEAA@XZ
??0?$_Vector_const_iterator@V?$_Vector_val@U?$_Simple_types@Umy_option@@@std@@@std@@@std@@QEAA@AEBV01@@Z
??0?$_Vector_iterator@V?$_Vector_val@U?$_Simple_types@Umy_option@@@std@@@std@@@std@@QEAA@PEAUmy_option@@PEBU_Container_base12@1@@Z
?_Unchecked@?$_Vector_iterator@V?$_Vector_val@U?$_Simple_types@Umy_option@@@std@@@std@@@std@@QEBAPEAUmy_option@@XZ
??G?$_Vector_iterator@V?$_Vector_val@U?$_Simple_types@Umy_option@@@std@@@std@@@std@@QEBA_JAEBV?$_Vector_const_iterator@V?$_Vector_val@U?$_Simple_types@Umy_option@@@std@@@std@@@1@@Z
??1?$_Vector_iterator@V?$_Vector_val@U?$_Simple_types@Umy_option@@@std@@@std@@@std@@QEAA@XZ
??0?$_Vector_iterator@V?$_Vector_val@U?$_Simple_types@Umy_option@@@std@@@std@@@std@@QEAA@AEBV01@@Z
??R?$less@Umy_option@@@std@@QEBA_NAEBUmy_option@@0@Z
??$sort@V?$_Vector_iterator@V?$_Vector_val@U?$_Simple_types@Umy_option@@@std@@@std@@@std@@U?$less@Umy_option@@@2@@std@@YAXV?$_Vector_iterator@V?$_Vector_val@U?$_Simple_types@Umy_option@@@std@@@std@@@0@0U?$less@Umy_option@@@0@@Z
?fn_format_relative_to_data_home@@YA_NPEADPEBD11@Z
??$addressof@$$CBUmy_option@@@std@@YAPEBUmy_option@@AEBU1@@Z
??$construct@Umy_option@@AEAU1@@?$_Wrap_alloc@V?$allocator@Umy_option@@@std@@@std@@QEAAXPEAUmy_option@@AEAU2@@Z
??$construct@Umy_option@@AEBU1@@?$_Wrap_alloc@V?$allocator@Umy_option@@@std@@@std@@QEAAXPEAUmy_option@@AEBU2@@Z
??$destroy@Umy_option@@@?$_Wrap_alloc@V?$allocator@Umy_option@@@std@@@std@@QEAAXPEAUmy_option@@@Z
??$?8V?$allocator@Umy_option@@@std@@V01@@std@@YA_NAEBU?$_Wrap_alloc@V?$allocator@Umy_option@@@std@@@0@0@Z
??$?8Umy_option@@U0@@std@@YA_NAEBV?$allocator@Umy_option@@@0@0@Z
??$_Swap_adl@PEAUmy_option@@@std@@YAXAEAPEAUmy_option@@0@Z
??1?$pair@V?$_Tree_const_iterator@V?$_Tree_val@U?$_Tree_simple_types@PEAVTHD@@@std@@@std@@@std@@V12@@std@@QEAA@XZ
??$_Distance@V?$_Tree_const_iterator@V?$_Tree_val@U?$_Tree_simple_types@PEAVTHD@@@std@@@std@@@std@@_K@std@@YAXV?$_Tree_const_iterator@V?$_Tree_val@U?$_Tree_simple_types@PEAVTHD@@@std@@@std@@@0@0AEA_K@Z
??$_Debug_lt_pred@U?$less@PEAVTHD@@@std@@AEBQEAVTHD@@AEBQEAV3@@std@@YA_NU?$less@PEAVTHD@@@0@AEBQEAVTHD@@1PEB_WI@Z
??0?$_List_unchecked_const_iterator@V?$_List_val@U?$_List_simple_types@PEAVTHD@@@std@@@std@@U_Iterator_base12@2@@std@@QEAA@PEAU?$_List_node@PEAVTHD@@PEAX@1@PEBV?$_List_val@U?$_List_simple_types@PEAVTHD@@@std@@@1@@Z
?_Mynode@?$_List_unchecked_const_iterator@V?$_List_val@U?$_List_simple_types@PEAVTHD@@@std@@@std@@U_Iterator_base12@2@@std@@QEBAPEAU?$_List_node@PEAVTHD@@PEAX@2@XZ
??1?$_List_unchecked_const_iterator@V?$_List_val@U?$_List_simple_types@PEAVTHD@@@std@@@std@@U_Iterator_base12@2@@std@@QEAA@XZ
??0?$_List_unchecked_const_iterator@V?$_List_val@U?$_List_simple_types@PEAVTHD@@@std@@@std@@U_Iterator_base12@2@@std@@QEAA@AEBV01@@Z
??0?$_List_const_iterator@V?$_List_val@U?$_List_simple_types@PEAVTHD@@@std@@@std@@@std@@QEAA@PEAU?$_List_node@PEAVTHD@@PEAX@1@PEBV?$_List_val@U?$_List_simple_types@PEAVTHD@@@std@@@1@@Z
??D?$_List_const_iterator@V?$_List_val@U?$_List_simple_types@PEAVTHD@@@std@@@std@@@std@@QEBAAEBQEAVTHD@@XZ
??E?$_List_const_iterator@V?$_List_val@U?$_List_simple_types@PEAVTHD@@@std@@@std@@@std@@QEAAAEAV01@XZ
??E?$_List_const_iterator@V?$_List_val@U?$_List_simple_types@PEAVTHD@@@std@@@std@@@std@@QEAA?AV01@H@Z
??1?$_List_const_iterator@V?$_List_val@U?$_List_simple_types@PEAVTHD@@@std@@@std@@@std@@QEAA@XZ
??0?$_List_const_iterator@V?$_List_val@U?$_List_simple_types@PEAVTHD@@@std@@@std@@@std@@QEAA@AEBV01@@Z
??0?$_List_iterator@V?$_List_val@U?$_List_simple_types@PEAVTHD@@@std@@@std@@@std@@QEAA@PEAU?$_List_node@PEAVTHD@@PEAX@1@PEBV?$_List_val@U?$_List_simple_types@PEAVTHD@@@std@@@1@@Z
??D?$_List_iterator@V?$_List_val@U?$_List_simple_types@PEAVTHD@@@std@@@std@@@std@@QEBAAEAPEAVTHD@@XZ
??1?$_List_iterator@V?$_List_val@U?$_List_simple_types@PEAVTHD@@@std@@@std@@@std@@QEAA@XZ
??0?$_List_unchecked_const_iterator@V?$_List_val@U?$_List_simple_types@PEAVTHD@@@std@@@std@@U_Iterator_base0@2@@std@@QEAA@PEAU?$_List_node@PEAVTHD@@PEAX@1@PEBV?$_List_val@U?$_List_simple_types@PEAVTHD@@@std@@@1@@Z
?_Mynode@?$_List_unchecked_const_iterator@V?$_List_val@U?$_List_simple_types@PEAVTHD@@@std@@@std@@U_Iterator_base0@2@@std@@QEBAPEAU?$_List_node@PEAVTHD@@PEAX@2@XZ
??0?$_List_unchecked_iterator@V?$_List_val@U?$_List_simple_types@PEAVTHD@@@std@@@std@@@std@@QEAA@PEAU?$_List_node@PEAVTHD@@PEAX@1@PEBV?$_List_val@U?$_List_simple_types@PEAVTHD@@@std@@@1@@Z
??$_Insert@AEBQEAVTHD@@@?$list@PEAVTHD@@V?$allocator@PEAVTHD@@@std@@@std@@QEAAXV?$_List_unchecked_const_iterator@V?$_List_val@U?$_List_simple_types@PEAVTHD@@@std@@@std@@U_Iterator_base0@2@@1@AEBQEAVTHD@@@Z
??$_Umove@PEAUmy_option@@@?$vector@Umy_option@@V?$allocator@Umy_option@@@std@@@std@@IEAAPEAUmy_option@@PEAU2@00@Z
??$_Swap_adl@PEAU_Container_proxy@std@@@std@@YAXAEAPEAU_Container_proxy@0@0@Z
??$?9V?$allocator@U?$_Tree_node@PEAVTHD@@PEAX@std@@@std@@V01@@std@@YA_NAEBU?$_Wrap_alloc@V?$allocator@U?$_Tree_node@PEAVTHD@@PEAX@std@@@std@@@0@0@Z
??$_Copy@U?$integral_constant@_N$0A@@std@@@?$_Tree@V?$_Tset_traits@PEAVTHD@@U?$less@PEAVTHD@@@std@@V?$allocator@PEAVTHD@@@3@$0A@@std@@@std@@IEAAXAEBV01@U?$integral_constant@_N$0A@@1@@Z
??$_Insert_nohint@AEBQEAVTHD@@U_Nil@std@@@?$_Tree@V?$_Tset_traits@PEAVTHD@@U?$less@PEAVTHD@@@std@@V?$allocator@PEAVTHD@@@3@$0A@@std@@@std@@IEAA?AU?$pair@V?$_Tree_const_iterator@V?$_Tree_val@U?$_Tree_simple_types@PEAVTHD@@@std@@@std@@@std@@_N@1@_NAEBQEAVTHD@@U_Nil@1@@Z
??$_Destroy_range@U?$_Wrap_alloc@V?$allocator@Umy_option@@@std@@@std@@@std@@YAXPEAUmy_option@@0AEAU?$_Wrap_alloc@V?$allocator@Umy_option@@@std@@@0@@Z
??0?$allocator@U_Container_proxy@std@@@std@@QEAA@XZ
?deallocate@?$allocator@U_Container_proxy@std@@@std@@QEAAXPEAU_Container_proxy@2@_K@Z
?allocate@?$allocator@U_Container_proxy@std@@@std@@QEAAPEAU_Container_proxy@2@_K@Z
??0?$_Wrap_alloc@V?$allocator@U_Container_proxy@std@@@std@@@std@@QEAA@XZ
?allocate@?$_Wrap_alloc@V?$allocator@U_Container_proxy@std@@@std@@@std@@QEAAPEAU_Container_proxy@2@_K@Z
?deallocate@?$_Wrap_alloc@V?$allocator@U_Container_proxy@std@@@std@@@std@@QEAAXPEAU_Container_proxy@2@_K@Z
??$construct@U_Container_proxy@std@@U12@@?$_Wrap_alloc@V?$allocator@U_Container_proxy@std@@@std@@@std@@QEAAXPEAU_Container_proxy@1@$$QEAU21@@Z
??$destroy@U_Container_proxy@std@@@?$_Wrap_alloc@V?$allocator@U_Container_proxy@std@@@std@@@std@@QEAAXPEAU_Container_proxy@1@@Z
??$swap@D@std@@YAXAEAD0@Z
??$addressof@PEAVTHD@@@std@@YAPEAPEAVTHD@@AEAPEAV1@@Z
??$destroy@PEAVTHD@@@?$_Wrap_alloc@V?$allocator@U?$_Tree_node@PEAVTHD@@PEAX@std@@@std@@@std@@QEAAXPEAPEAVTHD@@@Z
??$?0AEAV?$_Tree_const_iterator@V?$_Tree_val@U?$_Tree_simple_types@PEAVTHD@@@std@@@std@@@std@@AEAV01@X@?$pair@V?$_Tree_const_iterator@V?$_Tree_val@U?$_Tree_simple_types@PEAVTHD@@@std@@@std@@@std@@V12@@std@@QEAA@AEAV?$_Tree_const_iterator@V?$_Tree_val@U?$_Tree_simple_types@PEAVTHD@@@std@@@std@@@1@0@Z
??$?0U?$_Wrap_alloc@V?$allocator@U?$_Tree_node@PEAVTHD@@PEAX@std@@@std@@@std@@@?$_Wrap_alloc@V?$allocator@U_Container_proxy@std@@@std@@@std@@QEAA@AEBU?$_Wrap_alloc@V?$allocator@U?$_Tree_node@PEAVTHD@@PEAX@std@@@std@@@1@@Z
??$?0U?$_Tree_node@PEAVTHD@@PEAX@std@@@?$allocator@U_Container_proxy@std@@@std@@QEAA@AEBV?$allocator@U?$_Tree_node@PEAVTHD@@PEAX@std@@@1@@Z
??$addressof@PEAU?$_Tree_node@PEAVTHD@@PEAX@std@@@std@@YAPEAPEAU?$_Tree_node@PEAVTHD@@PEAX@0@AEAPEAU10@@Z
??$destroy@PEAU?$_Tree_node@PEAVTHD@@PEAX@std@@@?$_Wrap_alloc@V?$allocator@U?$_Tree_node@PEAVTHD@@PEAX@std@@@std@@@std@@QEAAXPEAPEAU?$_Tree_node@PEAVTHD@@PEAX@1@@Z
??$addressof@PEAU?$_List_node@PEAVTHD@@PEAX@std@@@std@@YAPEAPEAU?$_List_node@PEAVTHD@@PEAX@0@AEAPEAU10@@Z
??$destroy@PEAU?$_List_node@PEAVTHD@@PEAX@std@@@?$_Wrap_alloc@V?$allocator@U?$_List_node@PEAVTHD@@PEAX@std@@@std@@@std@@QEAAXPEAPEAU?$_List_node@PEAVTHD@@PEAX@1@@Z
??$destroy@PEAVTHD@@@?$_Wrap_alloc@V?$allocator@U?$_List_node@PEAVTHD@@PEAX@std@@@std@@@std@@QEAAXPEAPEAVTHD@@@Z
??$_Allocate@Umy_option@@@std@@YAPEAUmy_option@@_KPEAU1@@Z
??$construct@PEAU?$_List_node@PEAVTHD@@PEAX@std@@AEAPEAU12@@?$_Wrap_alloc@V?$allocator@U?$_List_node@PEAVTHD@@PEAX@std@@@std@@@std@@QEAAXPEAPEAU?$_List_node@PEAVTHD@@PEAX@1@AEAPEAU21@@Z
??$_Allocate@U_Container_proxy@std@@@std@@YAPEAU_Container_proxy@0@_KPEAU10@@Z
??$construct@PEAU?$_Tree_node@PEAVTHD@@PEAX@std@@AEAPEAU12@@?$_Wrap_alloc@V?$allocator@U?$_Tree_node@PEAVTHD@@PEAX@std@@@std@@@std@@QEAAXPEAPEAU?$_Tree_node@PEAVTHD@@PEAX@1@AEAPEAU21@@Z
??$_Allocate@U?$_List_node@PEAVTHD@@PEAX@std@@@std@@YAPEAU?$_List_node@PEAVTHD@@PEAX@0@_KPEAU10@@Z
??$_Allocate@U?$_Tree_node@PEAVTHD@@PEAX@std@@@std@@YAPEAU?$_Tree_node@PEAVTHD@@PEAX@0@_KPEAU10@@Z
??$_Debug_lt@AEBIAEBI@std@@YA_NAEBI0PEB_WI@Z
??$_Debug_lt@AEBKAEBK@std@@YA_NAEBK0PEB_WI@Z
??$_Debug_lt@AEB_JAEB_J@std@@YA_NAEB_J0PEB_WI@Z
??$_Debug_range@V?$_Vector_iterator@V?$_Vector_val@U?$_Simple_types@Umy_option@@@std@@@std@@@std@@@std@@YAXV?$_Vector_iterator@V?$_Vector_val@U?$_Simple_types@Umy_option@@@std@@@std@@@0@0PEB_WI@Z
??$_Debug_pointer@U?$less@Umy_option@@@std@@@std@@YAXAEAU?$less@Umy_option@@@0@PEB_WI@Z
??$_Unchecked@V?$_Vector_val@U?$_Simple_types@Umy_option@@@std@@@std@@@std@@YAPEAUmy_option@@V?$_Vector_iterator@V?$_Vector_val@U?$_Simple_types@Umy_option@@@std@@@std@@@0@@Z
??$_Sort@PEAUmy_option@@_JU?$less@Umy_option@@@std@@@std@@YAXPEAUmy_option@@0_JU?$less@Umy_option@@@0@@Z
??$forward@AEAUmy_option@@@std@@YAAEAUmy_option@@AEAU1@@Z
??$construct@Umy_option@@AEAU1@@?$allocator_traits@V?$allocator@Umy_option@@@std@@@std@@SAXAEAV?$allocator@Umy_option@@@1@PEAUmy_option@@AEAU3@@Z
??$forward@AEBUmy_option@@@std@@YAAEBUmy_option@@AEBU1@@Z
??$construct@Umy_option@@AEBU1@@?$allocator_traits@V?$allocator@Umy_option@@@std@@@std@@SAXAEAV?$allocator@Umy_option@@@1@PEAUmy_option@@AEBU3@@Z
??$destroy@Umy_option@@@?$allocator_traits@V?$allocator@Umy_option@@@std@@@std@@SAXAEAV?$allocator@Umy_option@@@1@PEAUmy_option@@@Z
??$swap@PEAUmy_option@@@std@@YAXAEAPEAUmy_option@@0@Z
??$_Iter_cat@V?$_Tree_const_iterator@V?$_Tree_val@U?$_Tree_simple_types@PEAVTHD@@@std@@@std@@@std@@@std@@YA?AUbidirectional_iterator_tag@0@AEBV?$_Tree_const_iterator@V?$_Tree_val@U?$_Tree_simple_types@PEAVTHD@@@std@@@std@@@0@@Z
??$_Distance2@V?$_Tree_const_iterator@V?$_Tree_val@U?$_Tree_simple_types@PEAVTHD@@@std@@@std@@@std@@_K@std@@YAXV?$_Tree_const_iterator@V?$_Tree_val@U?$_Tree_simple_types@PEAVTHD@@@std@@@std@@@0@0AEA_KUbidirectional_iterator_tag@0@@Z
??$forward@AEBQEAVTHD@@@std@@YAAEBQEAVTHD@@AEBQEAV1@@Z
??$_Buynode@AEBQEAVTHD@@@?$_List_buy@PEAVTHD@@V?$allocator@PEAVTHD@@@std@@@std@@QEAAPEAU?$_List_node@PEAVTHD@@PEAX@1@PEAU21@0AEBQEAVTHD@@@Z
??$_Uninitialized_move@PEAUmy_option@@PEAU1@U?$_Wrap_alloc@V?$allocator@Umy_option@@@std@@@std@@@std@@YAPEAUmy_option@@PEAU1@00AEAU?$_Wrap_alloc@V?$allocator@Umy_option@@@std@@@0@@Z
??$swap@PEAU_Container_proxy@std@@@std@@YAXAEAPEAU_Container_proxy@0@0@Z
??$?8V?$allocator@U?$_Tree_node@PEAVTHD@@PEAX@std@@@std@@V01@@std@@YA_NAEBU?$_Wrap_alloc@V?$allocator@U?$_Tree_node@PEAVTHD@@PEAX@std@@@std@@@0@0@Z
??$?8U?$_Tree_node@PEAVTHD@@PEAX@std@@U01@@std@@YA_NAEBV?$allocator@U?$_Tree_node@PEAVTHD@@PEAX@std@@@0@0@Z
??$_Copy_nodes@U?$integral_constant@_N$0A@@std@@@?$_Tree@V?$_Tset_traits@PEAVTHD@@U?$less@PEAVTHD@@@std@@V?$allocator@PEAVTHD@@@3@$0A@@std@@@std@@IEAAPEAU?$_Tree_node@PEAVTHD@@PEAX@1@PEAU21@0U?$integral_constant@_N$0A@@1@@Z
??$_Insert_at@AEBQEAVTHD@@U_Nil@std@@@?$_Tree@V?$_Tset_traits@PEAVTHD@@U?$less@PEAVTHD@@@std@@V?$allocator@PEAVTHD@@@3@$0A@@std@@@std@@IEAA?AV?$_Tree_const_iterator@V?$_Tree_val@U?$_Tree_simple_types@PEAVTHD@@@std@@@std@@@1@_NPEAU?$_Tree_node@PEAVTHD@@PEAX@1@AEBQEAVTHD@@U_Nil@1@@Z
??$?0V?$_Tree_const_iterator@V?$_Tree_val@U?$_Tree_simple_types@PEAVTHD@@@std@@@std@@@std@@_NX@?$pair@V?$_Tree_const_iterator@V?$_Tree_val@U?$_Tree_simple_types@PEAVTHD@@@std@@@std@@@std@@_N@std@@QEAA@$$QEAV?$_Tree_const_iterator@V?$_Tree_val@U?$_Tree_simple_types@PEAVTHD@@@std@@@std@@@1@$$QEA_N@Z
??$?0AEAV?$_Tree_const_iterator@V?$_Tree_val@U?$_Tree_simple_types@PEAVTHD@@@std@@@std@@@std@@_NX@?$pair@V?$_Tree_const_iterator@V?$_Tree_val@U?$_Tree_simple_types@PEAVTHD@@@std@@@std@@@std@@_N@std@@QEAA@AEAV?$_Tree_const_iterator@V?$_Tree_val@U?$_Tree_simple_types@PEAVTHD@@@std@@@std@@@1@$$QEA_N@Z
??$_Ptr_cat@Umy_option@@U1@@std@@YA?AU_Nonscalar_ptr_iterator_tag@0@PEAUmy_option@@0@Z
??$_Destroy_range@U?$_Wrap_alloc@V?$allocator@Umy_option@@@std@@@std@@@std@@YAXPEAUmy_option@@0AEAU?$_Wrap_alloc@V?$allocator@Umy_option@@@std@@@0@U_Nonscalar_ptr_iterator_tag@0@@Z
??$forward@U_Container_proxy@std@@@std@@YA$$QEAU_Container_proxy@0@AEAU10@@Z
??$construct@U_Container_proxy@std@@U12@@?$allocator_traits@V?$allocator@U_Container_proxy@std@@@std@@@std@@SAXAEAV?$allocator@U_Container_proxy@std@@@1@PEAU_Container_proxy@1@$$QEAU31@@Z
??$destroy@U_Container_proxy@std@@@?$allocator_traits@V?$allocator@U_Container_proxy@std@@@std@@@std@@SAXAEAV?$allocator@U_Container_proxy@std@@@1@PEAU_Container_proxy@1@@Z
??$_Move@AEAD@std@@YA$$QEADAEAD@Z
??$destroy@PEAVTHD@@@?$allocator_traits@V?$allocator@U?$_Tree_node@PEAVTHD@@PEAX@std@@@std@@@std@@SAXAEAV?$allocator@U?$_Tree_node@PEAVTHD@@PEAX@std@@@1@PEAPEAVTHD@@@Z
??$forward@AEAV?$_Tree_const_iterator@V?$_Tree_val@U?$_Tree_simple_types@PEAVTHD@@@std@@@std@@@std@@@std@@YAAEAV?$_Tree_const_iterator@V?$_Tree_val@U?$_Tree_simple_types@PEAVTHD@@@std@@@std@@@0@AEAV10@@Z
??$destroy@PEAU?$_Tree_node@PEAVTHD@@PEAX@std@@@?$allocator_traits@V?$allocator@U?$_Tree_node@PEAVTHD@@PEAX@std@@@std@@@std@@SAXAEAV?$allocator@U?$_Tree_node@PEAVTHD@@PEAX@std@@@1@PEAPEAU?$_Tree_node@PEAVTHD@@PEAX@1@@Z
??$destroy@PEAU?$_List_node@PEAVTHD@@PEAX@std@@@?$allocator_traits@V?$allocator@U?$_List_node@PEAVTHD@@PEAX@std@@@std@@@std@@SAXAEAV?$allocator@U?$_List_node@PEAVTHD@@PEAX@std@@@1@PEAPEAU?$_List_node@PEAVTHD@@PEAX@1@@Z
??$destroy@PEAVTHD@@@?$allocator_traits@V?$allocator@U?$_List_node@PEAVTHD@@PEAX@std@@@std@@@std@@SAXAEAV?$allocator@U?$_List_node@PEAVTHD@@PEAX@std@@@1@PEAPEAVTHD@@@Z
??$forward@AEAPEAU?$_List_node@PEAVTHD@@PEAX@std@@@std@@YAAEAPEAU?$_List_node@PEAVTHD@@PEAX@0@AEAPEAU10@@Z
??$construct@PEAU?$_List_node@PEAVTHD@@PEAX@std@@AEAPEAU12@@?$allocator_traits@V?$allocator@U?$_List_node@PEAVTHD@@PEAX@std@@@std@@@std@@SAXAEAV?$allocator@U?$_List_node@PEAVTHD@@PEAX@std@@@1@PEAPEAU?$_List_node@PEAVTHD@@PEAX@1@AEAPEAU31@@Z
??$forward@AEAPEAU?$_Tree_node@PEAVTHD@@PEAX@std@@@std@@YAAEAPEAU?$_Tree_node@PEAVTHD@@PEAX@0@AEAPEAU10@@Z
??$construct@PEAU?$_Tree_node@PEAVTHD@@PEAX@std@@AEAPEAU12@@?$allocator_traits@V?$allocator@U?$_Tree_node@PEAVTHD@@PEAX@std@@@std@@@std@@SAXAEAV?$allocator@U?$_Tree_node@PEAVTHD@@PEAX@std@@@1@PEAPEAU?$_Tree_node@PEAVTHD@@PEAX@1@AEAPEAU31@@Z
??$forward@AEBI@std@@YAAEBIAEBI@Z
??$_Debug_lt_pred@U?$less@X@std@@AEBIAEBI@std@@YA_NU?$less@X@0@AEBI1PEB_WI@Z
??$forward@AEBK@std@@YAAEBKAEBK@Z
??$_Debug_lt_pred@U?$less@X@std@@AEBKAEBK@std@@YA_NU?$less@X@0@AEBK1PEB_WI@Z
??$forward@AEB_J@std@@YAAEB_JAEB_J@Z
??$_Debug_lt_pred@U?$less@X@std@@AEB_JAEB_J@std@@YA_NU?$less@X@0@AEB_J1PEB_WI@Z
??$_Iter_cat@V?$_Vector_iterator@V?$_Vector_val@U?$_Simple_types@Umy_option@@@std@@@std@@@std@@@std@@YA?AUrandom_access_iterator_tag@0@AEBV?$_Vector_iterator@V?$_Vector_val@U?$_Simple_types@Umy_option@@@std@@@std@@@0@@Z
??$_Debug_range2@V?$_Vector_iterator@V?$_Vector_val@U?$_Simple_types@Umy_option@@@std@@@std@@@std@@@std@@YAXV?$_Vector_iterator@V?$_Vector_val@U?$_Simple_types@Umy_option@@@std@@@std@@@0@0PEB_WIUrandom_access_iterator_tag@0@@Z
??$_Unguarded_partition@PEAUmy_option@@U?$less@Umy_option@@@std@@@std@@YA?AU?$pair@PEAUmy_option@@PEAU1@@0@PEAUmy_option@@0U?$less@Umy_option@@@0@@Z
??$make_heap@PEAUmy_option@@U?$less@Umy_option@@@std@@@std@@YAXPEAUmy_option@@0U?$less@Umy_option@@@0@@Z
??$sort_heap@PEAUmy_option@@U?$less@Umy_option@@@std@@@std@@YAXPEAUmy_option@@0U?$less@Umy_option@@@0@@Z
??$_Insertion_sort@PEAUmy_option@@U?$less@Umy_option@@@std@@@std@@YAXPEAUmy_option@@0U?$less@Umy_option@@@0@@Z
??$construct@Umy_option@@AEAU1@@?$allocator@Umy_option@@@std@@QEAAXPEAUmy_option@@AEAU2@@Z
??$destroy@Umy_option@@@?$allocator@Umy_option@@@std@@QEAAXPEAUmy_option@@@Z
??$_Move@AEAPEAUmy_option@@@std@@YA$$QEAPEAUmy_option@@AEAPEAU1@@Z
??$construct@PEAVTHD@@AEBQEAV1@@?$_Wrap_alloc@V?$allocator@U?$_List_node@PEAVTHD@@PEAX@std@@@std@@@std@@QEAAXPEAPEAVTHD@@AEBQEAV2@@Z
??$_Unchecked@PEAUmy_option@@@std@@YAPEAUmy_option@@PEAU1@@Z
??$_Uninit_move@PEAUmy_option@@PEAU1@U?$_Wrap_alloc@V?$allocator@Umy_option@@@std@@@std@@@std@@YAPEAUmy_option@@PEAU1@00AEAU?$_Wrap_alloc@V?$allocator@Umy_option@@@std@@@0@@Z
??$_Rechecked@PEAUmy_option@@PEAU1@@std@@YAAEAPEAUmy_option@@AEAPEAU1@PEAU1@@Z
??$_Move@AEAPEAU_Container_proxy@std@@@std@@YA$$QEAPEAU_Container_proxy@0@AEAPEAU10@@Z
??$_Copy_or_move@U?$integral_constant@_N$0A@@std@@U?$integral_constant@_N$00@2@U32@H@?$_Tree@V?$_Tset_traits@PEAVTHD@@U?$less@PEAVTHD@@@std@@V?$allocator@PEAVTHD@@@3@$0A@@std@@@std@@IEAAPEAU?$_Tree_node@PEAVTHD@@PEAX@1@PEAU21@U?$integral_constant@_N$0A@@1@U?$integral_constant@_N$00@1@2H@Z
??$_Buynode_if_nil@AEBQEAVTHD@@@?$_Tree@V?$_Tset_traits@PEAVTHD@@U?$less@PEAVTHD@@@std@@V?$allocator@PEAVTHD@@@3@$0A@@std@@@std@@IEAAPEAU?$_Tree_node@PEAVTHD@@PEAX@1@U_Nil@1@AEBQEAVTHD@@@Z
??$forward@V?$_Tree_const_iterator@V?$_Tree_val@U?$_Tree_simple_types@PEAVTHD@@@std@@@std@@@std@@@std@@YA$$QEAV?$_Tree_const_iterator@V?$_Tree_val@U?$_Tree_simple_types@PEAVTHD@@@std@@@std@@@0@AEAV10@@Z
??$forward@_N@std@@YA$$QEA_NAEA_N@Z
??$construct@U_Container_proxy@std@@U12@@?$allocator@U_Container_proxy@std@@@std@@QEAAXPEAU_Container_proxy@1@$$QEAU21@@Z
??$destroy@U_Container_proxy@std@@@?$allocator@U_Container_proxy@std@@@std@@QEAAXPEAU_Container_proxy@1@@Z
??$destroy@PEAVTHD@@@?$allocator@U?$_Tree_node@PEAVTHD@@PEAX@std@@@std@@QEAAXPEAPEAVTHD@@@Z
??$destroy@PEAU?$_Tree_node@PEAVTHD@@PEAX@std@@@?$allocator@U?$_Tree_node@PEAVTHD@@PEAX@std@@@std@@QEAAXPEAPEAU?$_Tree_node@PEAVTHD@@PEAX@1@@Z
??$destroy@PEAU?$_List_node@PEAVTHD@@PEAX@std@@@?$allocator@U?$_List_node@PEAVTHD@@PEAX@std@@@std@@QEAAXPEAPEAU?$_List_node@PEAVTHD@@PEAX@1@@Z
??$destroy@PEAVTHD@@@?$allocator@U?$_List_node@PEAVTHD@@PEAX@std@@@std@@QEAAXPEAPEAVTHD@@@Z
??$construct@PEAU?$_List_node@PEAVTHD@@PEAX@std@@AEAPEAU12@@?$allocator@U?$_List_node@PEAVTHD@@PEAX@std@@@std@@QEAAXPEAPEAU?$_List_node@PEAVTHD@@PEAX@1@AEAPEAU21@@Z
??$construct@PEAU?$_Tree_node@PEAVTHD@@PEAX@std@@AEAPEAU12@@?$allocator@U?$_Tree_node@PEAVTHD@@PEAX@std@@@std@@QEAAXPEAPEAU?$_Tree_node@PEAVTHD@@PEAX@1@AEAPEAU21@@Z
??$?RAEBIAEBI@?$less@X@std@@QEBA_NAEBI0@Z
??$?RAEBKAEBK@?$less@X@std@@QEBA_NAEBK0@Z
??$?RAEB_JAEB_J@?$less@X@std@@QEBA_NAEB_J0@Z
??$_Debug_pointer@V?$_Vector_iterator@V?$_Vector_val@U?$_Simple_types@Umy_option@@@std@@@std@@@std@@@std@@YAXAEAV?$_Vector_iterator@V?$_Vector_val@U?$_Simple_types@Umy_option@@@std@@@std@@@0@PEB_WI@Z
??$_Median@PEAUmy_option@@U?$less@Umy_option@@@std@@@std@@YAXPEAUmy_option@@00U?$less@Umy_option@@@0@@Z
??$_Debug_lt_pred@U?$less@Umy_option@@@std@@AEAUmy_option@@AEAU3@@std@@YA_NU?$less@Umy_option@@@0@AEAUmy_option@@1PEB_WI@Z
??$iter_swap@PEAUmy_option@@PEAU1@@std@@YAXPEAUmy_option@@0@Z
??$?0AEAPEAUmy_option@@AEAPEAU0@X@?$pair@PEAUmy_option@@PEAU1@@std@@QEAA@AEAPEAUmy_option@@0@Z
??$_Debug_range@PEAUmy_option@@@std@@YAXPEAUmy_option@@0PEB_WI@Z
??$_Dist_type@PEAUmy_option@@@std@@YAPEA_JPEAUmy_option@@@Z
??$_Val_type@PEAUmy_option@@@std@@YAPEAUmy_option@@PEAU1@@Z
??$_Make_heap@PEAUmy_option@@_JU1@U?$less@Umy_option@@@std@@@std@@YAXPEAUmy_option@@0U?$less@Umy_option@@@0@PEA_J0@Z
??$_Debug_heap@PEAUmy_option@@U?$less@Umy_option@@@std@@@std@@YAXPEAUmy_option@@0U?$less@Umy_option@@@0@@Z
??$_Sort_heap@PEAUmy_option@@U?$less@Umy_option@@@std@@@std@@YAXPEAUmy_option@@0U?$less@Umy_option@@@0@@Z
??$_Insertion_sort1@PEAUmy_option@@U?$less@Umy_option@@@std@@U1@@std@@YAXPEAUmy_option@@0U?$less@Umy_option@@@0@0@Z
??$construct@PEAVTHD@@AEBQEAV1@@?$allocator_traits@V?$allocator@U?$_List_node@PEAVTHD@@PEAX@std@@@std@@@std@@SAXAEAV?$allocator@U?$_List_node@PEAVTHD@@PEAX@std@@@1@PEAPEAVTHD@@AEBQEAV3@@Z
??$_Uninit_move@PEAUmy_option@@PEAU1@V?$allocator@Umy_option@@@std@@U1@@std@@YAPEAUmy_option@@PEAU1@00AEAU?$_Wrap_alloc@V?$allocator@Umy_option@@@std@@@0@0U_Nonscalar_ptr_iterator_tag@0@@Z
??$_Buynode@AEAPEAVTHD@@@?$_Tree_buy@PEAVTHD@@V?$allocator@PEAVTHD@@@std@@@std@@QEAAPEAU?$_Tree_node@PEAVTHD@@PEAX@1@AEAPEAVTHD@@@Z
??$_Buynode@AEBQEAVTHD@@@?$_Tree_buy@PEAVTHD@@V?$allocator@PEAVTHD@@@std@@@std@@QEAAPEAU?$_Tree_node@PEAVTHD@@PEAX@1@AEBQEAVTHD@@@Z
??$_Med3@PEAUmy_option@@U?$less@Umy_option@@@std@@@std@@YAXPEAUmy_option@@00U?$less@Umy_option@@@0@@Z
??$swap@Umy_option@@@std@@YAXAEAUmy_option@@0@Z
??$forward@AEAPEAUmy_option@@@std@@YAAEAPEAUmy_option@@AEAPEAU1@@Z
??$_Iter_cat@PEAUmy_option@@@std@@YA?AUrandom_access_iterator_tag@0@AEBQEAUmy_option@@@Z
??$_Debug_range2@PEAUmy_option@@@std@@YAXPEAUmy_option@@0PEB_WIUrandom_access_iterator_tag@0@@Z
??$_Move@AEAUmy_option@@@std@@YA$$QEAUmy_option@@AEAU1@@Z
??$_Adjust_heap@PEAUmy_option@@_JU1@U?$less@Umy_option@@@std@@@std@@YAXPEAUmy_option@@_J1$$QEAU1@U?$less@Umy_option@@@0@@Z
??$_Pop_heap@PEAUmy_option@@U?$less@Umy_option@@@std@@@std@@YAXPEAUmy_option@@0U?$less@Umy_option@@@0@@Z
??$_Move_backward@PEAUmy_option@@PEAU1@@std@@YAPEAUmy_option@@PEAU1@00@Z
??$construct@PEAVTHD@@AEBQEAV1@@?$allocator@U?$_List_node@PEAVTHD@@PEAX@std@@@std@@QEAAXPEAPEAVTHD@@AEBQEAV2@@Z
??$_Debug_pointer@Umy_option@@@std@@YAXPEAUmy_option@@PEB_WI@Z
??$construct@Umy_option@@U1@@?$_Wrap_alloc@V?$allocator@Umy_option@@@std@@@std@@QEAAXPEAUmy_option@@$$QEAU2@@Z
??$forward@AEAPEAVTHD@@@std@@YAAEAPEAVTHD@@AEAPEAV1@@Z
??$construct@PEAVTHD@@AEAPEAV1@@?$_Wrap_alloc@V?$allocator@U?$_Tree_node@PEAVTHD@@PEAX@std@@@std@@@std@@QEAAXPEAPEAVTHD@@AEAPEAV2@@Z
??$construct@PEAVTHD@@AEBQEAV1@@?$_Wrap_alloc@V?$allocator@U?$_Tree_node@PEAVTHD@@PEAX@std@@@std@@@std@@QEAAXPEAPEAVTHD@@AEBQEAV2@@Z
??$_Push_heap@PEAUmy_option@@_JU1@U?$less@Umy_option@@@std@@@std@@YAXPEAUmy_option@@_J1$$QEAU1@U?$less@Umy_option@@@0@@Z
??$_Pop_heap_0@PEAUmy_option@@U1@U?$less@Umy_option@@@std@@@std@@YAXPEAUmy_option@@0U?$less@Umy_option@@@0@0@Z
??$_Move_backward@PEAUmy_option@@PEAU1@@std@@YAPEAUmy_option@@PEAU1@00U_Nonscalar_ptr_iterator_tag@0@@Z
??$forward@Umy_option@@@std@@YA$$QEAUmy_option@@AEAU1@@Z
??$construct@Umy_option@@U1@@?$allocator_traits@V?$allocator@Umy_option@@@std@@@std@@SAXAEAV?$allocator@Umy_option@@@1@PEAUmy_option@@$$QEAU3@@Z
??$construct@PEAVTHD@@AEAPEAV1@@?$allocator_traits@V?$allocator@U?$_Tree_node@PEAVTHD@@PEAX@std@@@std@@@std@@SAXAEAV?$allocator@U?$_Tree_node@PEAVTHD@@PEAX@std@@@1@PEAPEAVTHD@@AEAPEAV3@@Z
??$construct@PEAVTHD@@AEBQEAV1@@?$allocator_traits@V?$allocator@U?$_Tree_node@PEAVTHD@@PEAX@std@@@std@@@std@@SAXAEAV?$allocator@U?$_Tree_node@PEAVTHD@@PEAX@std@@@1@PEAPEAVTHD@@AEBQEAV3@@Z
??$_Pop_heap@PEAUmy_option@@_JU1@U?$less@Umy_option@@@std@@@std@@YAXPEAUmy_option@@00$$QEAU1@U?$less@Umy_option@@@0@PEA_J@Z
??$move@AEAUmy_option@@@std@@YA$$QEAUmy_option@@AEAU1@@Z
??$construct@Umy_option@@U1@@?$allocator@Umy_option@@@std@@QEAAXPEAUmy_option@@$$QEAU2@@Z
??$construct@PEAVTHD@@AEAPEAV1@@?$allocator@U?$_Tree_node@PEAVTHD@@PEAX@std@@@std@@QEAAXPEAPEAVTHD@@AEAPEAV2@@Z
??$construct@PEAVTHD@@AEBQEAV1@@?$allocator@U?$_Tree_node@PEAVTHD@@PEAX@std@@@std@@QEAAXPEAPEAVTHD@@AEBQEAV2@@Z
?decimal_zero@@3Vmy_decimal@@A DATA
?key_map_empty@@3V?$Bitmap@$0EA@@@B DATA
?key_map_full@@3V?$Bitmap@$0EA@@@A DATA
?query_cache@@3VQuery_cache@@A DATA
?file_parser_dummy_hook@@3VFile_parser_dummy_hook@@A DATA
?eq_creator@@3VEq_creator@@A DATA
?ne_creator@@3VNe_creator@@A DATA
?gt_creator@@3VGt_creator@@A DATA
?lt_creator@@3VLt_creator@@A DATA
?ge_creator@@3VGe_creator@@A DATA
?le_creator@@3VLe_creator@@A DATA
?err_log_throttle@@3VError_log_throttle@@A DATA
?all_options@@3V?$vector@Umy_option@@V?$allocator@Umy_option@@@std@@@std@@A DATA
?key_LOCK_event_queue@@3IA DATA
?key_COND_queue_state@@3IA DATA
?key_event_scheduler_LOCK_scheduler_state@@3IA DATA
?key_event_scheduler_COND_state@@3IA DATA
?key_thread_event_scheduler@@3IA DATA
?key_thread_event_worker@@3IA DATA
?stage_waiting_on_empty_queue@@3UPSI_stage_info_v1@@A DATA
?stage_waiting_for_next_activation@@3UPSI_stage_info_v1@@A DATA
?stage_waiting_for_scheduler_to_stop@@3UPSI_stage_info_v1@@A DATA
?opt_event_scheduler@Events@@2KA DATA
?event_queue@Events@@0PEAVEvent_queue@@EA DATA
?scheduler@Events@@0PEAVEvent_scheduler@@EA DATA
?db_repository@Events@@0PEAVEvent_db_repository@@EA DATA
?check_system_tables_error@Events@@0_NA DATA
?all_events_stages@@3PAPEAUPSI_stage_info_v1@@A DATA
??2Sql_alloc@@SAPEAX_K@Z
?push_back@base_list@@QEAA_NPEAX@Z
?set@Simple_cstring@@IEAAXPEBD_K@Z
??0Simple_cstring@@QEAA@PEBD_K@Z
??0String@@QEAA@PEADIPEBUcharset_info_st@@@Z
?length@String@@QEAAXI@Z
?append@String@@QEAA_ND@Z
?get_client_cs@Default_object_creation_ctx@@QEAAPEBUcharset_info_st@@XZ
?get_connection_cl@Default_object_creation_ctx@@QEAAPEBUcharset_info_st@@XZ
??0?$List@VItem@@@@QEAA@XZ
?push_back@?$List@VItem@@@@QEAA_NPEAVItem@@@Z
??1?$List@VItem@@@@QEAA@XZ
?is_infoschema_db@@YA_NPEBD@Z
??0Name_string@@QEAA@PEBD_K@Z
??0Item_name_string@@QEAA@VName_string@@@Z
??2Item@@SAPEAX_K@Z
??0Item_basic_constant@@QEAA@XZ
?used_tables@Item_basic_constant@@UEBA_KXZ
?cleanup@Item_basic_constant@@UEAAXXZ
??1Item_basic_constant@@UEAA@XZ
??0Item_string@@QEAA@VName_string@@PEBDIPEBUcharset_info_st@@W4Derivation@@I@Z
?type@Item_string@@UEBA?AW4Type@Item@@XZ
?val_str@Item_string@@UEAAPEAVString@@PEAV2@@Z
?get_date@Item_string@@UEAA_NPEAUst_mysql_time@@I@Z
?get_time@Item_string@@UEAA_NPEAUst_mysql_time@@@Z
?result_type@Item_string@@UEBA?AW4Item_result@@XZ
?field_type@Item_string@@UEBA?AW4enum_field_types@@XZ
?basic_const_item@Item_string@@UEBA_NXZ
?clone_item@Item_string@@UEAAPEAVItem@@XZ
?check_partition_func_processor@Item_string@@UEAA_NPEAE@Z
??1Item_string@@UEAA@XZ
??0Item_partition_func_safe_string@@QEAA@VName_string@@IPEBUcharset_info_st@@@Z
??1Item_partition_func_safe_string@@UEAA@XZ
??0Item_empty_string@@QEAA@PEBDIPEBUcharset_info_st@@@Z
??1Item_empty_string@@UEAA@XZ
?query@Statement@@QEBAPEADXZ
?query_length@Statement@@QEBAIXZ
?is_current_stmt_binlog_format_row@THD@@QEBAHXZ
?set_row_count_func@THD@@QEAAX_J@Z
?set_time@THD@@QEAAXXZ
?set_current_stmt_binlog_format_row@THD@@QEAAXXZ
?clear_current_stmt_binlog_format_row@THD@@QEAAXXZ
?my_eof@@YAXPEAVTHD@@@Z
?sortcmp_lex_string@@YAHUst_mysql_lex_string@@0PEAUcharset_info_st@@@Z
?check_if_system_tables_error@Events@@SA_NXZ
?start@Events@@SA_NPEAH@Z
?stop@Events@@SA_NXZ
?init@Events@@SA_ND@Z
?deinit@Events@@SAXXZ
?init_mutexes@Events@@SAXXZ
?create_event@Events@@SA_NPEAVTHD@@PEAVEvent_parse_data@@_N@Z
?update_event@Events@@SA_NPEAVTHD@@PEAVEvent_parse_data@@PEAUst_mysql_lex_string@@2@Z
?drop_event@Events@@SA_NPEAVTHD@@Ust_mysql_lex_string@@1_N@Z
?drop_schema_events@Events@@SAXPEAVTHD@@PEAD@Z
?show_create_event@Events@@SA_NPEAVTHD@@Ust_mysql_lex_string@@1@Z
?reconstruct_interval_expression@Events@@SAHPEAVString@@W4interval_type@@_J@Z
?fill_schema_events@Events@@SAHPEAVTHD@@PEAUTABLE_LIST@@PEAVItem@@@Z
?dump_internal_status@Events@@SAXXZ
?load_events_from_db@Events@@CA_NPEAVTHD@@@Z
??0READ_RECORD@@QEAA@XZ
??0Event_db_repository@@QEAA@XZ
?init@Event_worker_thread@@SAXPEAVEvent_db_repository@@@Z
?get_db_cl@Stored_program_creation_ctx@@QEAAPEBUcharset_info_st@@XZ
?db_repository@Event_worker_thread@@0PEAVEvent_db_repository@@EA DATA
?inc_thread_running@@YAHXZ
?dec_thread_running@@YAHXZ
?get_level@Sql_condition@@QEBA?AW4enum_warning_level@1@XZ
?is_empty@?$I_P_List@VSql_condition@@U?$I_P_List_adapter@VSql_condition@@$0BHA@$0BHI@@@VI_P_List_counter@@V?$I_P_List_fast_push_back@VSql_condition@@@@@@QEBA_NXZ
?is_empty@Warning_info@@AEBA_NXZ
?is_warning_info_empty@Diagnostics_area@@QEBA_NXZ
?sql_conditions@Diagnostics_area@@QEBA?AV?$I_P_List_iterator@$$CBVSql_condition@@V?$I_P_List@VSql_condition@@U?$I_P_List_adapter@VSql_condition@@$0BHA@$0BHI@@@VI_P_List_counter@@V?$I_P_List_fast_push_back@VSql_condition@@@@@@@@XZ
??0?$I_P_List_iterator@$$CBVSql_condition@@V?$I_P_List@VSql_condition@@U?$I_P_List_adapter@VSql_condition@@$0BHA@$0BHI@@@VI_P_List_counter@@V?$I_P_List_fast_push_back@VSql_condition@@@@@@@@QEAA@AEBV?$I_P_List@VSql_condition@@U?$I_P_List_adapter@VSql_condition@@$0BHA@$0BHI@@@VI_P_List_counter@@V?$I_P_List_fast_push_back@VSql_condition@@@@@@@Z
??E?$I_P_List_iterator@$$CBVSql_condition@@V?$I_P_List@VSql_condition@@U?$I_P_List_adapter@VSql_condition@@$0BHA@$0BHI@@@VI_P_List_counter@@V?$I_P_List_fast_push_back@VSql_condition@@@@@@@@QEAAPEBVSql_condition@@H@Z
?pre_init_event_thread@@YAXPEAVTHD@@@Z
?post_init_event_thread@@YA_NPEAVTHD@@@Z
?deinit_event_thread@@YAXPEAVTHD@@@Z
?run@Event_worker_thread@@QEAAXPEAVTHD@@PEAVEvent_queue_element_for_exec@@@Z
?print_warnings@Event_worker_thread@@AEAAXPEAVTHD@@PEAVEvent_job_data@@@Z
??0Event_scheduler@@QEAA@PEAVEvent_queue@@@Z
??1Event_scheduler@@QEAA@XZ
?start@Event_scheduler@@QEAA_NPEAH@Z
?stop@Event_scheduler@@QEAA_NXZ
?run@Event_scheduler@@QEAA_NPEAVTHD@@@Z
?is_running@Event_scheduler@@QEAA_NXZ
?dump_internal_status@Event_scheduler@@QEAAXXZ
?workers_count@Event_scheduler@@AEAAIXZ
?execute_top@Event_scheduler@@AEAA_NPEAVEvent_queue_element_for_exec@@@Z
?lock_data@Event_scheduler@@AEAAXPEBDI@Z
?unlock_data@Event_scheduler@@AEAAXPEBDI@Z
?cond_wait@Event_scheduler@@AEAAXPEAVTHD@@PEAUtimespec@@PEBUPSI_stage_info_v1@@PEBD3I@Z
??1Event_job_data@@UEAA@XZ
event_scheduler_thread
event_worker_thread
?next_ptr@?$I_P_List_adapter@VSql_condition@@$0BHA@$0BHI@@@SAPEBQEBVSql_condition@@PEBV2@@Z
??0Event_queue@@QEAA@XZ
??1Event_queue@@QEAA@XZ
?init_queue@Event_queue@@QEAA_NPEAVTHD@@@Z
?create_event@Event_queue@@QEAA_NPEAVTHD@@PEAVEvent_queue_element@@PEA_N@Z
?update_event@Event_queue@@QEAAXPEAVTHD@@Ust_mysql_lex_string@@1PEAVEvent_queue_element@@@Z
?drop_event@Event_queue@@QEAAXPEAVTHD@@Ust_mysql_lex_string@@1@Z
?drop_schema_events@Event_queue@@QEAAXPEAVTHD@@Ust_mysql_lex_string@@@Z
?recalculate_activation_times@Event_queue@@QEAAXPEAVTHD@@@Z
?get_top_for_execution_if_time@Event_queue@@QEAA_NPEAVTHD@@PEAPEAVEvent_queue_element_for_exec@@@Z
?dump_internal_status@Event_queue@@QEAAXXZ
?empty_queue@Event_queue@@AEAAXXZ
?deinit_queue@Event_queue@@AEAAXXZ
?lock_data@Event_queue@@AEAAXPEBDI@Z
?unlock_data@Event_queue@@AEAAXPEBDI@Z
?cond_wait@Event_queue@@AEAAXPEAVTHD@@PEAUtimespec@@PEBUPSI_stage_info_v1@@PEBD3I@Z
?find_n_remove_event@Event_queue@@AEAAXUst_mysql_lex_string@@0@Z
?drop_matching_events@Event_queue@@AEAAXPEAVTHD@@Ust_mysql_lex_string@@P6A_N1PEAVEvent_basic@@@Z@Z
?dbug_dump_queue@Event_queue@@AEAAX_J@Z
??0Event_queue_element_for_exec@@QEAA@XZ
?get_db_repository@Events@@SAPEAVEvent_db_repository@@XZ
?set_current_time@THD@@QEAAXXZ
event_queue_element_compare_q
?alloc@String@@QEAA_NI@Z
?alloc@Query_arena@@QEAAPEAX_K@Z
?strmake@Query_arena@@QEAAPEADPEBD_K@Z
?new_instance@Event_parse_data@@SAPEAV1@PEAVTHD@@@Z
?check_parse_data@Event_parse_data@@QEAA_NPEAVTHD@@@Z
?check_dates@Event_parse_data@@QEAA_NPEAVTHD@@H@Z
?init_definer@Event_parse_data@@AEAAXPEAVTHD@@@Z
?init_name@Event_parse_data@@AEAAXPEAVTHD@@PEAVsp_name@@@Z
?init_execute_at@Event_parse_data@@AEAAHPEAVTHD@@@Z
?init_interval@Event_parse_data@@AEAAHPEAVTHD@@@Z
?init_starts@Event_parse_data@@AEAAHPEAVTHD@@@Z
?init_ends@Event_parse_data@@AEAAHPEAVTHD@@@Z
??0Event_parse_data@@AEAA@XZ
?report_bad_value@Event_parse_data@@AEAAXPEBDPEAVItem@@@Z
?check_if_in_the_past@Event_parse_data@@AEAAXPEAVTHD@@J@Z
?check_originator_id@Event_parse_data@@AEAAXPEAVTHD@@@Z
??0MDL_key@@QEAA@XZ
??0MDL_request@@QEAA@XZ
??0MDL_savepoint@@QEAA@XZ
??0MDL_savepoint@@AEAA@PEAVMDL_ticket@@0@Z
?front@?$I_P_List@VMDL_ticket@@U?$I_P_List_adapter@VMDL_ticket@@$07$0BA@@@VI_P_List_null_counter@@V?$I_P_List_no_push_back@VMDL_ticket@@@@@@QEAAPEAVMDL_ticket@@XZ
?mdl_savepoint@MDL_context@@QEAA?AVMDL_savepoint@@XZ
??0Table_id@@QEAA@XZ
??0Table_check_intact@@QEAA@XZ
??1Table_check_intact@@UEAA@XZ
?column_bitmaps_set@TABLE@@QEAAXPEAUst_bitmap@@0@Z
?use_all_columns@TABLE@@QEAAXXZ
??0TABLE_LIST@@QEAA@XZ
?init_one_table@TABLE_LIST@@QEAAXPEBD_K010W4thr_lock_type@@@Z
??0?$List@VDerived_key@@@@QEAA@XZ
??1?$List@VDerived_key@@@@QEAA@XZ
??1TABLE_LIST@@QEAA@XZ
?store_time@Field@@QEAA?AW4type_conversion_status@@PEAUst_mysql_time@@@Z
?set_null@Field@@QEAAX_J@Z
?set_notnull@Field@@QEAAX_J@Z
?real_maybe_null@Field@@QEBA_NXZ
??0?$Dynamic_array@PEAVReprepare_observer@@@@QEAA@II@Z
?init@?$Dynamic_array@PEAVReprepare_observer@@@@QEAAXII@Z
??1?$Dynamic_array@PEAVReprepare_observer@@@@QEAA@XZ
??0Open_tables_state@@QEAA@XZ
??1Open_tables_state@@QEAA@XZ
??0Open_tables_backup@@QEAA@XZ
??1Open_tables_backup@@QEAA@XZ
??1Prelocking_strategy@@UEAA@XZ
??0Prelocking_strategy@@QEAA@XZ
??0DML_prelocking_strategy@@QEAA@XZ
??1DML_prelocking_strategy@@UEAA@XZ
?open_and_lock_tables@@YA_NPEAVTHD@@PEAUTABLE_LIST@@_NI@Z
?create_event@Event_db_repository@@QEAA_NPEAVTHD@@PEAVEvent_parse_data@@_NPEA_N@Z
?update_event@Event_db_repository@@QEAA_NPEAVTHD@@PEAVEvent_parse_data@@PEAUst_mysql_lex_string@@2@Z
?drop_event@Event_db_repository@@QEAA_NPEAVTHD@@Ust_mysql_lex_string@@1_N@Z
?drop_schema_events@Event_db_repository@@QEAAXPEAVTHD@@Ust_mysql_lex_string@@@Z
?find_named_event@Event_db_repository@@QEAA_NUst_mysql_lex_string@@0PEAUTABLE@@@Z
?load_named_event@Event_db_repository@@QEAA_NPEAVTHD@@Ust_mysql_lex_string@@1PEAVEvent_basic@@@Z
?open_event_table@Event_db_repository@@SA_NPEAVTHD@@W4thr_lock_type@@PEAPEAUTABLE@@@Z
?fill_schema_events@Event_db_repository@@QEAA_NPEAVTHD@@PEAUTABLE_LIST@@PEBD@Z
?update_timing_fields_for_event@Event_db_repository@@QEAA_NPEAVTHD@@Ust_mysql_lex_string@@1J_K@Z
?check_system_tables@Event_db_repository@@SA_NPEAVTHD@@@Z
?index_read_for_db_for_i_s@Event_db_repository@@AEAA_NPEAVTHD@@PEAUTABLE@@1PEBD@Z
?table_scan_all_for_i_s@Event_db_repository@@AEAA_NPEAVTHD@@PEAUTABLE@@1@Z
?report_error@Event_db_intact@@MEAAXIPEBDZZ
??0Event_db_intact@@QEAA@XZ
??1Event_db_intact@@UEAA@XZ
??0String@@QEAA@PEBDPEBUcharset_info_st@@@Z
?set@String@@QEAAXPEADIPEBUcharset_info_st@@@Z
??1Object_creation_ctx@@UEAA@XZ
??1Default_object_creation_ctx@@UEAA@XZ
?val_str@Field@@QEAAPEAVString@@PEAV2@@Z
?is_null@Field@@QEBA_N_J@Z
??0Lex_input_stream@@QEAA@XZ
??1Lex_input_stream@@QEAA@XZ
??0Set_signal_information@@QEAA@XZ
??1Set_signal_information@@QEAA@XZ
??0Yacc_state@@QEAA@XZ
?reset@Yacc_state@@QEAAXXZ
??0Parser_input@@QEAA@XZ
??0Parser_state@@QEAA@XZ
?init@Parser_state@@QEAA_NPEAVTHD@@PEADI@Z
??1Parser_state@@QEAA@XZ
??0Security_context@@QEAA@XZ
??1Security_context@@QEAA@XZ
?set_db@THD@@QEAA_NPEBD_K@Z
?set_query@THD@@QEAAXPEADI@Z
?reset_query@THD@@QEAAXXZ
??0Stored_program_creation_ctx@@IEAA@PEBUcharset_info_st@@00@Z
?change_env@Stored_program_creation_ctx@@MEBAXPEAVTHD@@@Z
??1Stored_program_creation_ctx@@UEAA@XZ
?set_creation_ctx@sp_head@@QEAAXPEAVStored_program_creation_ctx@@@Z
??1Event_queue_element_for_exec@@QEAA@XZ
?init@Event_queue_element_for_exec@@QEAA_NUst_mysql_lex_string@@0@Z
??0Event_basic@@QEAA@XZ
??1Event_basic@@UEAA@XZ
?load_string_fields@Event_basic@@IEAA_NPEAPEAVField@@ZZ
?load_time_zone@Event_basic@@IEAA_NPEAVTHD@@Ust_mysql_lex_string@@@Z
??0Event_queue_element@@QEAA@XZ
??1Event_queue_element@@UEAA@XZ
?load_from_row@Event_queue_element@@UEAA_NPEAVTHD@@PEAUTABLE@@@Z
?compute_next_execution_time@Event_queue_element@@QEAA_NXZ
?mark_last_executed@Event_queue_element@@QEAAXPEAVTHD@@@Z
??0Event_timed@@QEAA@XZ
??1Event_timed@@UEAA@XZ
?init@Event_timed@@QEAAXXZ
?load_from_row@Event_timed@@UEAA_NPEAVTHD@@PEAUTABLE@@@Z
?get_create_event@Event_timed@@QEAAHPEAVTHD@@PEAVString@@@Z
??0Event_job_data@@QEAA@XZ
?load_from_row@Event_job_data@@UEAA_NPEAVTHD@@PEAUTABLE@@@Z
?execute@Event_job_data@@QEAA_NPEAVTHD@@_N@Z
?construct_sp_sql@Event_job_data@@AEAA_NPEAVTHD@@PEAVString@@@Z
?construct_drop_event_sql@Event_job_data@@AEAA_NPEAVTHD@@PEAVString@@@Z
?event_basic_db_equal@@YA_NUst_mysql_lex_string@@PEAVEvent_basic@@@Z
?event_basic_identifier_equal@@YA_NUst_mysql_lex_string@@0PEAVEvent_basic@@@Z
?load_from_db@Event_creation_ctx@@SA_NPEAVTHD@@PEAUst_mem_root@@PEBD2PEAUTABLE@@PEAPEAVStored_program_creation_ctx@@@Z
?clone@Event_creation_ctx@@UEAAPEAVStored_program_creation_ctx@@PEAUst_mem_root@@@Z
?create_backup_ctx@Event_creation_ctx@@MEBAPEAVObject_creation_ctx@@PEAVTHD@@@Z
??0Event_creation_ctx@@AEAA@PEBUcharset_info_st@@00@Z
??1Event_creation_ctx@@UEAA@XZ
sha256_password_auth_client
sha256_password_init
sha256_password_deinit
net_field_length
net_field_length_ll
net_store_length
parse_user
log_10_int DATA
days_in_month DATA
my_zero_datetime6 DATA
check_date
str_to_datetime
number_to_datetime
number_to_time
TIME_to_ulonglong_datetime
TIME_to_ulonglong_date
TIME_to_ulonglong_time
TIME_to_ulonglong
year_to_longlong_datetime_packed
TIME_to_longlong_datetime_packed
TIME_to_longlong_date_packed
TIME_to_longlong_time_packed
TIME_to_longlong_packed
TIME_from_longlong_datetime_packed
TIME_from_longlong_time_packed
TIME_from_longlong_date_packed
TIME_set_yymmdd
TIME_set_hhmmss
my_datetime_packed_to_binary
my_datetime_packed_from_binary
my_datetime_binary_length
my_time_packed_to_binary
my_time_packed_from_binary
my_time_binary_length
my_timestamp_to_binary
my_timestamp_from_binary
my_timestamp_binary_length
str_to_time
check_time_mmssff_range
check_time_range_quick
check_datetime_range
adjust_time_range
calc_daynr
calc_days_in_year
year_2000_handling
my_init_time
my_system_gmt_sec
set_zero_time
set_max_time
set_max_hhmmss
my_time_to_str
my_date_to_str
my_datetime_to_str
my_TIME_to_str
my_timeval_to_str
plugin_list DATA
mysql_client_plugin_init
mysql_client_plugin_deinit
mysql_load_plugin
mysql_load_plugin_v
mysql_client_find_plugin
mysql_client_register_plugin
mysql_plugin_options
sql_protocol_names_lib DATA
mysql_port DATA
mysql_unix_port DATA
sql_protocol_typelib DATA
cli_read_rows
unknown_sqlstate DATA
cant_connect_sqlstate DATA
not_error_sqlstate DATA
default_client_charset_info DATA
cli_advanced_command
mysql_client_builtins DATA
libmysql_cleartext_plugin_enabled DATA
mysql_server_last_errno DATA
mysql_server_last_error DATA
cli_read_change_user_result
charsets DATA
mysql_num_rows
mysql_num_fields
mysql_errno
mysql_error
mysql_set_character_set
mysql_init
mysql_ssl_set
mysql_get_ssl_cipher
mysql_real_connect
mysql_select_db
mysql_send_query
mysql_real_query
mysql_store_result
mysql_get_server_version
mysql_options
mysql_options4
mysql_free_result
mysql_fetch_row
mysql_fetch_lengths
mysql_close
unpack_fields
free_rows
free_old_query
end_server
mysql_reconnect
mysql_read_default_options
cli_safe_read
net_clear_error
set_mysql_error
set_mysql_extended_error
mpvio_info
run_plugin_auth
send_client_connect_attrs
my_net_is_inited
flush_one_result
opt_flush_ok_packet
mysql_init_character_set
write_length_encoded_string4
write_string
mysql_detach_stmt_list
get_attr_key
client_errors DATA
init_client_errs
finish_client_errs
get_client_errmsgs
?next@base_list_iterator@@QEAAPEAXXZ
?rewind@base_list_iterator@@QEAAXXZ
??0?$Bitmap@$0EA@@@QEAA@XZ
?init@?$Bitmap@$0EA@@@QEAAXXZ
?clear_all@?$Bitmap@$0EA@@@QEAAXXZ
?max_record_length@handler@@QEBAIXZ
??$min@I@std@@YAAEBIAEBI0@Z
??0Filesort_buffer@@QEAA@XZ
??0?$Bounds_checked_array@PEAE@@QEAA@XZ
??0Filesort_info@@QEAA@XZ
??0TABLE_SHARE@@QEAA@XZ
??0?$I_P_List_no_push_back@VWait_for_flush@@@@IEAA@PEAPEAVWait_for_flush@@@Z
??0?$I_P_List@VWait_for_flush@@U?$I_P_List_adapter@VWait_for_flush@@$0CA@$0CI@@@VI_P_List_null_counter@@V?$I_P_List_no_push_back@VWait_for_flush@@@@@@QEAA@XZ
??0TABLE@@QEAA@XZ
?is_error@Diagnostics_area@@QEBA_NXZ
?init@Field@@QEAAXPEAUTABLE@@@Z
?field_storage_type@Create_field@@QEBA?AW4ha_storage_media@@XZ
?column_format@Create_field@@QEBA?AW4column_format_type@@XZ
?mysql_create_frm@@YA_NPEAVTHD@@PEBD11PEAUst_ha_create_information@@AEAV?$List@VCreate_field@@@@IPEAUst_key@@PEAVhandler@@@Z
?rea_create_table@@YAHPEAVTHD@@PEBD11PEAUst_ha_create_information@@AEAV?$List@VCreate_field@@@@IPEAUst_key@@PEAVhandler@@_N@Z
??0Internal_error_handler@@IEAA@XZ
??1Internal_error_handler@@MEAA@XZ
?clear_error@THD@@QEAAXXZ
?is_error@THD@@QEBA_NXZ
?get_stmt_da@THD@@QEBAPEBVDiagnostics_area@@XZ
?handle_condition@Pack_header_error_handler@@UEAA_NPEAVTHD@@IPEBDW4enum_warning_level@Sql_condition@@1PEAPEAV4@@Z
??0Pack_header_error_handler@@QEAA@XZ
??1Pack_header_error_handler@@UEAA@XZ
??0?$List_iterator@VCreate_field@@@@QEAA@AEAV?$List@VCreate_field@@@@@Z
??E?$List_iterator@VCreate_field@@@@QEAAPEAVCreate_field@@H@Z
?rewind@?$List_iterator@VCreate_field@@@@QEAAXXZ
??$min@E@std@@YAAEBEAEBE0@Z
??$_Debug_lt@AEBEAEBE@std@@YA_NAEBE0PEB_WI@Z
??$forward@AEBE@std@@YAAEBEAEBE@Z
??$_Debug_lt_pred@U?$less@X@std@@AEBEAEBE@std@@YA_NU?$less@X@0@AEBE1PEB_WI@Z
??$?RAEBEAEBE@?$less@X@std@@QEBA_NAEBE0@Z
??0Sort_param@@QEAA@XZ
?flush@Unique@@AEAA_NXZ
??0Unique@@QEAA@P6AHPEBX00@ZPEAXI_K@Z
??1Unique@@QEAA@XZ
?get@Unique@@QEAA_NPEAUTABLE@@@Z
?get_use_cost@Unique@@SANPEAIII_K@Z
?reset@Unique@@QEAAXXZ
?walk@Unique@@QEAA_NP6AHPEAXI0@Z0@Z
?unique_write_to_file@@YAHPEAEIPEAVUnique@@@Z
?unique_write_to_ptrs@@YAHPEAEIPEAVUnique@@@Z
?log2_n_fact@@YANN@Z
?my_tz_UTC@@3PEAVTime_zone@@EA DATA
?my_tz_SYSTEM@@3PEAVTime_zone@@EA DATA
?my_tz_OFFSET0@@3PEAVTime_zone@@EA DATA
??0String@@QEAA@PEBDIPEBUcharset_info_st@@@Z
?is_empty@String@@QEBA_NXZ
?set@String@@QEAAXPEBDIPEBUcharset_info_st@@@Z
?message@Diagnostics_area@@QEBAPEBDXZ
??0Time_zone@@QEAA@XZ
??1Time_zone@@UEAA@XZ
?adjust_leap_second@Time_zone@@KAXPEAUst_mysql_time@@@Z
?my_tz_find@@YAPEAVTime_zone@@PEAVTHD@@PEBVString@@@Z
?my_tz_init@@YADPEAVTHD@@PEBDD@Z
?my_tz_free@@YAXXZ
??$min@J@std@@YAAEBJAEBJ0@Z
??0Time_zone_system@@QEAA@XZ
?TIME_to_gmt_sec@Time_zone_system@@UEBAJPEBUst_mysql_time@@PEAD@Z
?gmt_sec_to_TIME@Time_zone_system@@UEBAXPEAUst_mysql_time@@J@Z
?get_name@Time_zone_system@@UEBAPEBVString@@XZ
??1Time_zone_system@@UEAA@XZ
??0Time_zone_utc@@QEAA@XZ
?TIME_to_gmt_sec@Time_zone_utc@@UEBAJPEBUst_mysql_time@@PEAD@Z
?gmt_sec_to_TIME@Time_zone_utc@@UEBAXPEAUst_mysql_time@@J@Z
?get_name@Time_zone_utc@@UEBAPEBVString@@XZ
??1Time_zone_utc@@UEAA@XZ
??0Time_zone_db@@QEAA@PEAUst_time_zone_info@@PEBVString@@@Z
?TIME_to_gmt_sec@Time_zone_db@@UEBAJPEBUst_mysql_time@@PEAD@Z
?gmt_sec_to_TIME@Time_zone_db@@UEBAXPEAUst_mysql_time@@J@Z
?get_name@Time_zone_db@@UEBAPEBVString@@XZ
??1Time_zone_db@@UEAA@XZ
??0Time_zone_offset@@QEAA@J@Z
?TIME_to_gmt_sec@Time_zone_offset@@UEBAJPEBUst_mysql_time@@PEAD@Z
?gmt_sec_to_TIME@Time_zone_offset@@UEBAXPEAUst_mysql_time@@J@Z
?get_name@Time_zone_offset@@UEBAPEBVString@@XZ
??1Time_zone_offset@@UEAA@XZ
??0Tz_names_entry@@QEAA@XZ
my_tz_names_get_key
my_offset_tzs_get_key
?str_to_offset@@YADPEBDIPEAJ@Z
??$_Debug_lt@AEBJAEBJ@std@@YA_NAEBJ0PEB_WI@Z
??$forward@AEBJ@std@@YAAEBJAEBJ@Z
??$_Debug_lt_pred@U?$less@X@std@@AEBJAEBJ@std@@YA_NU?$less@X@0@AEBJ1PEB_WI@Z
??$?RAEBJAEBJ@?$less@X@std@@QEBA_NAEBJ0@Z
?trans_check_state@@YA_NPEAVTHD@@@Z
?trans_begin@@YA_NPEAVTHD@@I@Z
?trans_commit@@YA_NPEAVTHD@@@Z
?trans_commit_implicit@@YA_NPEAVTHD@@@Z
?trans_rollback@@YA_NPEAVTHD@@@Z
?trans_rollback_implicit@@YA_NPEAVTHD@@@Z
?trans_commit_stmt@@YA_NPEAVTHD@@@Z
?trans_rollback_stmt@@YA_NPEAVTHD@@@Z
?trans_savepoint@@YA_NPEAVTHD@@Ust_mysql_lex_string@@@Z
?trans_rollback_to_savepoint@@YA_NPEAVTHD@@Ust_mysql_lex_string@@@Z
?trans_release_savepoint@@YA_NPEAVTHD@@Ust_mysql_lex_string@@@Z
?trans_xa_start@@YA_NPEAVTHD@@@Z
?trans_xa_end@@YA_NPEAVTHD@@@Z
?trans_xa_prepare@@YA_NPEAVTHD@@@Z
?trans_xa_commit@@YA_NPEAVTHD@@@Z
?trans_xa_rollback@@YA_NPEAVTHD@@@Z
?eq@xid_t@@QEAA_NPEAU1@@Z
?eq@xid_t@@QEAA_NJJPEBD@Z
?set@xid_t@@QEAAXPEAU1@@Z
?is_null@xid_t@@QEAA_NXZ
?null@xid_t@@QEAAXXZ
?length@xid_t@@QEAAIXZ
?is_open@MYSQL_LOG@@QEAA_NXZ
?dbug_unsafe_rollback_flags@THD_TRANS@@QEBAXPEBD@Z
?cannot_safely_rollback@THD_TRANS@@QEBA_NXZ
?get_unsafe_rollback_flags@THD_TRANS@@QEBAIXZ
?add_unsafe_rollback_flags@THD_TRANS@@QEAAXI@Z
?reset_unsafe_rollback_flags@THD_TRANS@@QEAAXXZ
?has_modified_non_trans_table@THD_TRANS@@QEBA_NXZ
?has_created_temp_table@THD_TRANS@@QEBA_NXZ
?has_dropped_temp_table@THD_TRANS@@QEBA_NXZ
?reset@THD_TRANS@@QEAAXXZ
?is_empty@THD_TRANS@@QEBA_NXZ
?ha_list_names@@YAPEBDPEAVHa_trx_info@@QEAD@Z
?push_unsafe_rollback_warnings@st_transactions@THD@@QEAAXPEAV2@@Z
?merge_unsafe_rollback_flags@st_transactions@THD@@QEAAXXZ
?in_multi_stmt_transaction_mode@THD@@QEBA_NXZ
?in_active_multi_stmt_transaction@THD@@QEBA_NXZ
?init_sql_alloc@@YAXPEAUst_mem_root@@II@Z
?sql_alloc@@YAPEAX_K@Z
?sql_calloc@@YAPEAX_K@Z
?sql_strdup@@YAPEADPEBD@Z
?sql_strmake@@YAPEADPEBD_K@Z
?sql_memdup@@YAPEAXPEBX_K@Z
?sql_strmake_with_convert@@YAPEADPEBD_KPEBUcharset_info_st@@12PEA_K@Z
?copy_and_convert@@YAIPEADIPEBUcharset_info_st@@PEBDI1PEAI@Z
??$min@_K@std@@YAAEB_KAEB_K0@Z
?m_lock_key@Table_cache@@0IA DATA
?m_mutex_keys@Table_cache@@0PAUPSI_mutex_info_v1@@A DATA
?table_cache_manager@@3VTable_cache_manager@@A DATA
?dec@I_P_List_null_counter@@IEAAXXZ
?check_unused@Table_cache@@AEAAXXZ
?unlink_unused_table@Table_cache@@AEAAXPEAUTABLE@@@Z
?init@Table_cache@@QEAA_NXZ
?destroy@Table_cache@@QEAAXXZ
?init_psi_keys@Table_cache@@SAXXZ
?lock@Table_cache@@QEAAXXZ
?unlock@Table_cache@@QEAAXXZ
?assert_owner@Table_cache@@QEAAXXZ
?remove_table@Table_cache@@QEAAXPEAUTABLE@@@Z
?cached_tables@Table_cache@@QEBAIXZ
?free_all_unused_tables@Table_cache@@QEAAXXZ
?print_tables@Table_cache@@QEAAXXZ
?init@Table_cache_manager@@QEAA_NXZ
?destroy@Table_cache_manager@@QEAAXXZ
?cache_index@Table_cache_manager@@QEBAIPEAVTable_cache@@@Z
?cached_tables@Table_cache_manager@@QEAAIXZ
?lock_all_and_tdc@Table_cache_manager@@QEAAXXZ
?unlock_all_and_tdc@Table_cache_manager@@QEAAXXZ
?assert_owner_all@Table_cache_manager@@QEAAXXZ
?assert_owner_all_and_tdc@Table_cache_manager@@QEAAXXZ
?free_table@Table_cache_manager@@QEAAXPEAVTHD@@W4enum_tdc_remove_table_type@@PEAUTABLE_SHARE@@@Z
?free_all_unused_tables@Table_cache_manager@@QEAAXXZ
?print_tables@Table_cache_manager@@QEAAXXZ
?set_last@?$I_P_List_no_push_back@UTABLE@@@@IEAAXPEAPEAUTABLE@@@Z
?is_empty@?$I_P_List@UTABLE@@U?$I_P_List_adapter@UTABLE@@$0CA@$0CI@@@VI_P_List_null_counter@@V?$I_P_List_no_push_back@UTABLE@@@@@@QEBA_NXZ
?remove@?$I_P_List@UTABLE@@U?$I_P_List_adapter@UTABLE@@$0CA@$0CI@@@VI_P_List_null_counter@@V?$I_P_List_no_push_back@UTABLE@@@@@@QEAAXPEAUTABLE@@@Z
?get_share@Table_cache_element@@QEBAPEAUTABLE_SHARE@@XZ
??0?$I_P_List_iterator@UTABLE@@V?$I_P_List@UTABLE@@U?$I_P_List_adapter@UTABLE@@$0CA@$0CI@@@VI_P_List_null_counter@@V?$I_P_List_no_push_back@UTABLE@@@@@@@@QEAA@AEBV?$I_P_List@UTABLE@@U?$I_P_List_adapter@UTABLE@@$0CA@$0CI@@@VI_P_List_null_counter@@V?$I_P_List_no_push_back@UTABLE@@@@@@@Z
?init@?$I_P_List_iterator@UTABLE@@V?$I_P_List@UTABLE@@U?$I_P_List_adapter@UTABLE@@$0CA@$0CI@@@VI_P_List_null_counter@@V?$I_P_List_no_push_back@UTABLE@@@@@@@@QEAAXAEBV?$I_P_List@UTABLE@@U?$I_P_List_adapter@UTABLE@@$0CA@$0CI@@@VI_P_List_null_counter@@V?$I_P_List_no_push_back@UTABLE@@@@@@@Z
??E?$I_P_List_iterator@UTABLE@@V?$I_P_List@UTABLE@@U?$I_P_List_adapter@UTABLE@@$0CA@$0CI@@@VI_P_List_null_counter@@V?$I_P_List_no_push_back@UTABLE@@@@@@@@QEAAPEAUTABLE@@H@Z
table_cache_key
table_cache_free_entry
?next_ptr@?$I_P_List_adapter@UTABLE@@$0CA@$0CI@@@SAPEAPEAUTABLE@@PEAU2@@Z
?prev_ptr@?$I_P_List_adapter@UTABLE@@$0CA@$0CI@@@SAPEAPEAPEAUTABLE@@PEAU2@@Z
?PERFORMANCE_SCHEMA_DB_NAME@@3Ust_mysql_lex_string@@A DATA
?GENERAL_LOG_NAME@@3Ust_mysql_lex_string@@A DATA
?SLOW_LOG_NAME@@3Ust_mysql_lex_string@@A DATA
?INFORMATION_SCHEMA_NAME@@3Ust_mysql_lex_string@@A DATA
?MYSQL_SCHEMA_NAME@@3Ust_mysql_lex_string@@A DATA
?RLI_INFO_NAME@@3Ust_mysql_lex_string@@A DATA
?MI_INFO_NAME@@3Ust_mysql_lex_string@@A DATA
?WORKER_INFO_NAME@@3Ust_mysql_lex_string@@A DATA
?strrchr@@YAPEADPEADH@Z
?push_front@base_list@@QEAA_NPEAX@Z
?sort@base_list@@QEAAXP6AHPEAX00@Z0@Z
?head@base_list@@QEAAPEAXXZ
?init_from_field@KEY_PART_INFO@@QEAAXPEAVField@@@Z
?init_flags@KEY_PART_INFO@@QEAAXXZ
?init@?$Bitmap@$0EA@@@QEAAXI@Z
?set_bit@?$Bitmap@$0EA@@@QEAAXI@Z
?intersect@?$Bitmap@$0EA@@@QEAAXAEBV1@@Z
?subtract@?$Bitmap@$0EA@@@QEAAXAEBV1@@Z
?merge@?$Bitmap@$0EA@@@QEAAXAEBV1@@Z
?is_set@?$Bitmap@$0EA@@@QEBADI@Z
?is_clear_all@?$Bitmap@$0EA@@@QEBADXZ
?is_overlapping@?$Bitmap@$0EA@@@QEBADAEBV1@@Z
?alloced_length@String@@QEBAIXZ
?my_decimal_precision_to_length_no_truncation@@YAIIE_N@Z
?my_decimal_precision_to_length@@YAIIE_N@Z
?reset@I_P_List_null_counter@@IEAAXXZ
?inc@I_P_List_null_counter@@IEAAXXZ
??0MDL_wait_for_subgraph@@QEAA@XZ
?will_wait_for@MDL_context@@QEAAXPEAVMDL_wait_for_subgraph@@@Z
?done_waiting_for@MDL_context@@QEAAXXZ
?calculate_key_len@@YAIPEAUTABLE@@IPEBEK@Z
?ha_table_flags@handler@@QEBA_KXZ
?type@File_parser@@QEBAPEBUst_mysql_lex_string@@XZ
??4Table_id@@QEAAX_K@Z
?set_n_backup@Object_creation_ctx@@QEAAPEAV1@PEAVTHD@@@Z
?restore_env@Object_creation_ctx@@QEAAXPEAVTHD@@PEAV1@@Z
??0Object_creation_ctx@@IEAA@XZ
??0Default_object_creation_ctx@@IEAA@PEAVTHD@@@Z
??0Default_object_creation_ctx@@IEAA@PEBUcharset_info_st@@0@Z
?create_backup_ctx@Default_object_creation_ctx@@MEBAPEAVObject_creation_ctx@@PEAVTHD@@@Z
?change_env@Default_object_creation_ctx@@MEBAXPEAVTHD@@@Z
?create@View_creation_ctx@@SAPEAV1@PEAVTHD@@@Z
?create@View_creation_ctx@@SAPEAV1@PEAVTHD@@PEAUTABLE_LIST@@@Z
??0View_creation_ctx@@AEAA@PEAVTHD@@@Z
??1View_creation_ctx@@UEAA@XZ
?get_table_category@@YA?AW4enum_table_category@@PEBUst_mysql_lex_string@@0@Z
?check@Table_check_intact@@QEAA_NPEAUTABLE@@PEBUst_table_field_def@@@Z
??0Wait_for_flush@@QEAA@PEAVMDL_context@@PEAUTABLE_SHARE@@I@Z
?get_ctx@Wait_for_flush@@QEBAPEAVMDL_context@@XZ
?accept_visitor@Wait_for_flush@@UEAA_NPEAVMDL_wait_for_graph_visitor@@@Z
?get_deadlock_weight@Wait_for_flush@@UEBAIXZ
??1Wait_for_flush@@UEAA@XZ
?db_type@TABLE_SHARE@@QEBAPEAUhandlerton@@XZ
?set_last@?$I_P_List_no_push_back@VWait_for_flush@@@@IEAAXPEAPEAVWait_for_flush@@@Z
?empty@?$I_P_List@VWait_for_flush@@U?$I_P_List_adapter@VWait_for_flush@@$0CA@$0CI@@@VI_P_List_null_counter@@V?$I_P_List_no_push_back@VWait_for_flush@@@@@@QEAAXXZ
?is_empty@?$I_P_List@VWait_for_flush@@U?$I_P_List_adapter@VWait_for_flush@@$0CA@$0CI@@@VI_P_List_null_counter@@V?$I_P_List_no_push_back@VWait_for_flush@@@@@@QEBA_NXZ
?push_front@?$I_P_List@VWait_for_flush@@U?$I_P_List_adapter@VWait_for_flush@@$0CA@$0CI@@@VI_P_List_null_counter@@V?$I_P_List_no_push_back@VWait_for_flush@@@@@@QEAAXPEAVWait_for_flush@@@Z
?remove@?$I_P_List@VWait_for_flush@@U?$I_P_List_adapter@VWait_for_flush@@$0CA@$0CI@@@VI_P_List_null_counter@@V?$I_P_List_no_push_back@VWait_for_flush@@@@@@QEAAXPEAVWait_for_flush@@@Z
?set_table_cache_key@TABLE_SHARE@@QEAAXPEADI@Z
?set_table_cache_key@TABLE_SHARE@@QEAAXPEADPEBDI@Z
?visit_subgraph@TABLE_SHARE@@QEAA_NPEAVWait_for_flush@@PEAVMDL_wait_for_graph_visitor@@@Z
?wait_for_old_version@TABLE_SHARE@@QEAA_NPEAVTHD@@PEAUtimespec@@I@Z
?destroy@TABLE_SHARE@@QEAAXXZ
?init@TABLE@@QEAAXPEAVTHD@@PEAUTABLE_LIST@@@Z
?fill_item_list@TABLE@@QEBA_NPEAV?$List@VItem@@@@@Z
?reset_item_list@TABLE@@QEBAXPEAV?$List@VItem@@@@@Z
?clear_column_bitmaps@TABLE@@QEAAXXZ
?prepare_for_position@TABLE@@QEAAXXZ
?mark_columns_used_by_index_no_reset@TABLE@@QEAAXIPEAUst_bitmap@@@Z
?mark_columns_used_by_index@TABLE@@QEAAXI@Z
?mark_auto_increment_column@TABLE@@QEAAXXZ
?mark_columns_needed_for_update@TABLE@@QEAAXXZ
?mark_columns_needed_for_delete@TABLE@@QEAAXXZ
?mark_columns_needed_for_insert@TABLE@@QEAAXXZ
?mark_columns_per_binlog_row_image@TABLE@@QEAAXXZ
?default_column_bitmaps@TABLE@@QEAAXXZ
?alloc_keys@TABLE@@QEAA_NI@Z
?add_tmp_key@TABLE@@QEAA_NPEAV?$Bitmap@$0BAAA@@@PEAD@Z
?use_index@TABLE@@QEAAXH@Z
?set_keyread@TABLE@@QEAAX_N@Z
?update_const_key_parts@TABLE@@QEAA_NPEAVItem@@@Z
?check_read_removal@TABLE@@QEAA_NI@Z
?is_created@TABLE@@QEBA_NXZ
??0Natural_join_column@@QEAA@PEAUField_translator@@PEAUTABLE_LIST@@@Z
??0Natural_join_column@@QEAA@PEAVItem_field@@PEAUTABLE_LIST@@@Z
?name@Natural_join_column@@QEAAPEBDXZ
?create_item@Natural_join_column@@QEAAPEAVItem@@PEAVTHD@@@Z
?field@Natural_join_column@@QEAAPEAVField@@XZ
?table_name@Natural_join_column@@QEAAPEBDXZ
?db_name@Natural_join_column@@QEAAPEBDXZ
?grant@Natural_join_column@@QEAAPEAUst_grant_info@@XZ
??0?$Bitmap@$0BAAA@@@QEAA@XZ
?init@?$Bitmap@$0BAAA@@@QEAAXXZ
?set_bit@?$Bitmap@$0BAAA@@@QEAAXI@Z
?clear_all@?$Bitmap@$0BAAA@@@QEAAXXZ
?is_set@?$Bitmap@$0BAAA@@@QEBADI@Z
?bits_set@?$Bitmap@$0BAAA@@@QEBAIXZ
??0Derived_key@@QEAA@XZ
?new_nested_join@TABLE_LIST@@SAPEAU1@PEAUst_mem_root@@PEBDPEAU1@PEAV?$List@UTABLE_LIST@@@@PEAVst_select_lex@@@Z
?join_cond@TABLE_LIST@@QEBAPEAVItem@@XZ
?set_join_cond@TABLE_LIST@@QEAAPEAVItem@@PEAV2@@Z
?push_back@?$List@VDerived_key@@@@QEAA_NPEAVDerived_key@@PEAUst_mem_root@@@Z
?calc_md5@TABLE_LIST@@QEAAXPEAD@Z
?set_underlying_merge@TABLE_LIST@@QEAAXXZ
?view_check_option@TABLE_LIST@@QEBAHPEAVTHD@@_N@Z
?setup_underlying@TABLE_LIST@@QEAA_NPEAVTHD@@@Z
?cleanup_items@TABLE_LIST@@QEAAXXZ
?check_single_table@TABLE_LIST@@QEAA_NPEAPEAU1@_KPEAU1@@Z
?set_insert_values@TABLE_LIST@@QEAA_NPEAUst_mem_root@@@Z
?hide_view_error@TABLE_LIST@@QEAAXPEAVTHD@@@Z
?find_underlying_table@TABLE_LIST@@QEAAPEAU1@PEAUTABLE@@@Z
?first_leaf_for_name_resolution@TABLE_LIST@@QEAAPEAU1@XZ
?last_leaf_for_name_resolution@TABLE_LIST@@QEAAPEAU1@XZ
?is_leaf_for_name_resolution@TABLE_LIST@@QEAA_NXZ
?top_table@TABLE_LIST@@QEBAPEBU1@XZ
?top_table@TABLE_LIST@@QEAAPEAU1@XZ
?uses_materialization@TABLE_LIST@@QEBA_NXZ
?materializable_is_const@TABLE_LIST@@QEBA_NXZ
?register_want_access@TABLE_LIST@@QEAAXK@Z
?prepare_security@TABLE_LIST@@QEAA_NPEAVTHD@@@Z
?find_view_security_context@TABLE_LIST@@QEAAPEAVSecurity_context@@PEAVTHD@@@Z
?prepare_view_securety_context@TABLE_LIST@@QEAA_NPEAVTHD@@@Z
?reinit_before_use@TABLE_LIST@@QEAAXPEAVTHD@@@Z
?containing_subselect@TABLE_LIST@@QEAAPEAVItem_subselect@@XZ
?process_index_hints@TABLE_LIST@@QEAA_NPEAUTABLE@@@Z
?query_block_id@TABLE_LIST@@QEBAIXZ
?fetch_number_of_rows@TABLE_LIST@@QEAAHXZ
?update_derived_keys@TABLE_LIST@@QEAA_NPEAVField@@PEAPEAVItem@@I@Z
?generate_keys@TABLE_LIST@@QEAA_NXZ
?handle_derived@TABLE_LIST@@QEAA_NPEAULEX@@P6A_NPEAVTHD@@0PEAU1@@Z@Z
?get_unit@TABLE_LIST@@QEBAPEAVst_select_lex_unit@@XZ
?prep_check_option@TABLE_LIST@@AEAA_NPEAVTHD@@E@Z
?prep_where@TABLE_LIST@@AEAA_NPEAVTHD@@PEAPEAVItem@@_N@Z
?name@Field_iterator_table@@UEAAPEBDXZ
?create_item@Field_iterator_table@@UEAAPEAVItem@@PEAVTHD@@@Z
?set@Field_iterator_view@@UEAAXPEAUTABLE_LIST@@@Z
?name@Field_iterator_view@@UEAAPEBDXZ
?create_item@Field_iterator_view@@UEAAPEAVItem@@PEAVTHD@@@Z
?field_translator@Field_iterator_view@@QEAAPEAUField_translator@@XZ
?init@?$List_iterator_fast@VNatural_join_column@@@@QEAAXAEAV?$List@VNatural_join_column@@@@@Z
??E?$List_iterator_fast@VNatural_join_column@@@@QEAAPEAVNatural_join_column@@H@Z
?set@Field_iterator_natural_join@@UEAAXPEAUTABLE_LIST@@@Z
?next@Field_iterator_natural_join@@UEAAXXZ
?column_ref@Field_iterator_natural_join@@QEAAPEAVNatural_join_column@@XZ
?set_field_iterator@Field_iterator_table_ref@@AEAAXXZ
?set@Field_iterator_table_ref@@UEAAXPEAUTABLE_LIST@@@Z
?next@Field_iterator_table_ref@@UEAAXXZ
?get_table_name@Field_iterator_table_ref@@QEAAPEBDXZ
?get_db_name@Field_iterator_table_ref@@QEAAPEBDXZ
?grant@Field_iterator_table_ref@@QEAAPEAUst_grant_info@@XZ
?get_or_create_column_ref@Field_iterator_table_ref@@QEAAPEAVNatural_join_column@@PEAVTHD@@PEAUTABLE_LIST@@@Z
?get_natural_column_ref@Field_iterator_table_ref@@QEAAPEAVNatural_join_column@@XZ
?head@?$List@UTABLE_LIST@@@@QEAAPEAUTABLE_LIST@@XZ
?max_row_length@@YA_KPEAUTABLE@@PEBE@Z
?init_mdl_requests@@YAXPEAUTABLE_LIST@@@Z
?open_table_from_share@@YAHPEAVTHD@@PEAUTABLE_SHARE@@PEBDIIIPEAUTABLE@@_N@Z
?alloc_table_share@@YAPEAUTABLE_SHARE@@PEAUTABLE_LIST@@PEBDI@Z
?init_tmp_table_share@@YAXPEAVTHD@@PEAUTABLE_SHARE@@PEBDI22@Z
?free_table_share@@YAXPEAUTABLE_SHARE@@@Z
?open_table_def@@YAHPEAVTHD@@PEAUTABLE_SHARE@@I@Z
?open_table_error@@YAXPEAUTABLE_SHARE@@HHH@Z
?update_create_info_from_table@@YAXPEAUst_ha_create_information@@PEAUTABLE@@@Z
?check_and_convert_db_name@@YA?AW4enum_ident_name_check@@PEAUst_mysql_lex_string@@_N@Z
?check_column_name@@YA_NPEBD@Z
?check_table_name@@YA?AW4enum_ident_name_check@@PEBD_K_N@Z
?rename_file_ext@@YAHPEBD00@Z
?get_field@@YAPEADPEAUst_mem_root@@PEAVField@@@Z
?get_field@@YA_NPEAUst_mem_root@@PEAVField@@PEAVString@@@Z
?closefrm@@YAHPEAUTABLE@@_N@Z
?read_string@@YAHHPEAPEAE_K@Z
?free_blobs@@YAXPEAUTABLE@@@Z
?free_field_buffers_larger_than@@YAXPEAUTABLE@@I@Z
?set_zone@@YAHHHH@Z
?make_new_entry@@YAKHPEAEPEAUst_typelib@@PEBD@Z
?next_io_size@@YAKK@Z
?append_unescaped@@YAXPEAVString@@PEBDI@Z
?create_frm@@YAHPEAVTHD@@PEBD11IPEAEPEAUst_ha_create_information@@IPEAUst_key@@@Z
?fn_rext@@YAPEADPEAD@Z
?is_infoschema_db@@YA_NPEBD_K@Z
?typelib@@YAPEAUst_typelib@@PEAUst_mem_root@@AEAV?$List@VString@@@@@Z
?is_simple_order@@YA_NPEAUst_order@@@Z
?sql_errno@Diagnostics_area@@QEBAIXZ
?null_offset@Field@@QEBAIPEBE@Z
?null_offset@Field@@QEBAIXZ
?offset@Field@@QEAAIPEAE@Z
?field_storage_type@Field@@QEBA?AW4ha_storage_media@@XZ
?set_storage_type@Field@@QEAAXW4ha_storage_media@@@Z
?column_format@Field@@QEBA?AW4column_format_type@@XZ
?set_column_format@Field@@QEAAXW4column_format_type@@@Z
?get_field_buffer_size@Field_blob@@QEAAIXZ
?get_length@Field_blob@@QEAAIPEBE@Z
?build_table_filename@@YAIPEAD_KPEBD22I@Z
?set_numeric@DTCollation@@QEAAXXZ
?change_context_processor@Item_ident@@UEAA_NPEAE@Z
??1Item_ident@@UEAA@XZ
?type@Item_ref@@UEBA?AW4Type@Item@@XZ
?eq@Item_ref@@UEBA_NPEBVItem@@_N@Z
?result_type@Item_ref@@UEBA?AW4Item_result@@XZ
?field_type@Item_ref@@UEBA?AW4enum_field_types@@XZ
?get_tmp_table_field@Item_ref@@UEAAPEAVField@@XZ
?const_item@Item_ref@@UEBA_NXZ
?used_tables@Item_ref@@UEBA_KXZ
?update_used_tables@Item_ref@@UEAAXXZ
?resolved_used_tables@Item_ref@@UEBA_KXZ
?not_null_tables@Item_ref@@UEBA_KXZ
?set_result_field@Item_ref@@UEAAXPEAVField@@@Z
?is_result_field@Item_ref@@UEAA_NXZ
?save_in_result_field@Item_ref@@UEAAX_N@Z
?real_item@Item_ref@@UEAAPEAVItem@@XZ
?walk@Item_ref@@UEAA_NP8Item@@EAA_NPEAE@Z_N0@Z
?explain_subquery_checker@Item_ref@@UEAA_NPEAPEAE@Z
?field_for_view_update@Item_ref@@UEAAPEAVItem_field@@XZ
?cols@Item_ref@@UEAAIXZ
?element_index@Item_ref@@UEAAPEAVItem@@I@Z
?addr@Item_ref@@UEAAPEAPEAVItem@@I@Z
?check_cols@Item_ref@@UEAA_NI@Z
?null_inside@Item_ref@@UEAA_NXZ
?bring_value@Item_ref@@UEAAXXZ
?get_time@Item_ref@@UEAA_NPEAUst_mysql_time@@@Z
?basic_const_item@Item_ref@@UEBA_NXZ
?is_outer_field@Item_ref@@UEBA_NXZ
?has_subquery@Item_ref@@UEBA_NXZ
?has_stored_program@Item_ref@@UEBA_NXZ
?created_by_in2exists@Item_ref@@UEBA_NXZ
??1Item_ref@@UEAA@XZ
??0Item_direct_ref@@QEAA@PEAUName_resolution_context@@PEAPEAVItem@@PEBD2_N@Z
?ref_type@Item_direct_ref@@UEAA?AW4Ref_Type@Item_ref@@XZ
??1Item_direct_ref@@UEAA@XZ
??0Item_direct_view_ref@@QEAA@PEAUName_resolution_context@@PEAPEAVItem@@PEBD22@Z
?subst_argument_checker@Item_direct_view_ref@@UEAA_NPEAPEAE@Z
?get_tmp_table_item@Item_direct_view_ref@@UEAAPEAVItem@@PEAVTHD@@@Z
?ref_type@Item_direct_view_ref@@UEAA?AW4Ref_Type@Item_ref@@XZ
??1Item_direct_view_ref@@UEAA@XZ
??0Item_int_func@@QEAA@XZ
?get_date@Item_int_func@@UEAA_NPEAUst_mysql_time@@I@Z
?get_time@Item_int_func@@UEAA_NPEAUst_mysql_time@@@Z
?result_type@Item_int_func@@UEBA?AW4Item_result@@XZ
?fix_length_and_dec@Item_int_func@@UEAAXXZ
??1Item_int_func@@UEAA@XZ
??0Item_bool_func@@QEAA@XZ
?is_bool_func@Item_bool_func@@UEAA_NXZ
?fix_length_and_dec@Item_bool_func@@UEAAXXZ
?decimal_precision@Item_bool_func@@UEBAIXZ
?created_by_in2exists@Item_bool_func@@UEBA_NXZ
??1Item_bool_func@@UEAA@XZ
??0Item_cond@@QEAA@PEAVItem@@0@Z
?type@Item_cond@@UEBA?AW4Type@Item@@XZ
?used_tables@Item_cond@@UEBA_KXZ
?top_level_item@Item_cond@@UEAAXXZ
?field_type@Item_cond@@UEBA?AW4enum_field_types@@XZ
?subst_argument_checker@Item_cond@@UEAA_NPEAPEAE@Z
?equality_substitution_analyzer@Item_cond@@UEAA_NPEAPEAE@Z
??1Item_cond@@UEAA@XZ
??0?$List@VItem_equal@@@@QEAA@XZ
??1?$List@VItem_equal@@@@QEAA@XZ
??0COND_EQUAL@@QEAA@XZ
??1COND_EQUAL@@QEAA@XZ
??0Item_cond_and@@QEAA@PEAVItem@@0@Z
??0Item_cond_and@@QEAA@PEAVTHD@@PEAV0@@Z
?functype@Item_cond_and@@UEBA?AW4Functype@Item_func@@XZ
?func_name@Item_cond_and@@UEBAPEBDXZ
?copy_andor_structure@Item_cond_and@@UEAAPEAVItem@@PEAVTHD@@_N@Z
??1Item_cond_and@@UEAA@XZ
?and_conds@@YAPEAVItem@@PEAV1@0@Z
??1SQL_CRYPT@@QEAA@XZ
?first_select@st_select_lex_unit@@QEAAPEAVst_select_lex@@XZ
?get_result@st_select_lex_unit@@QEAAPEAVselect_result@@XZ
?push_front@?$List@VItem_func_match@@@@QEAA_NPEAVItem_func_match@@@Z
?next_select@st_select_lex@@QEAAPEAV1@XZ
?set_non_agg_field_used@st_select_lex@@QEAAX_N@Z
??0Switch_resolve_place@@QEAA@PEAW4Resolve_place@st_select_lex@@W412@_N@Z
??1Switch_resolve_place@@QEAA@XZ
?is_ps_or_view_context_analysis@LEX@@QEAA_NXZ
??0Query_arena@@QEAA@PEAUst_mem_root@@W4enum_state@0@@Z
??0Query_arena@@QEAA@XZ
??1Query_arena@@UEAA@XZ
?is_conventional@Query_arena@@QEBA_NXZ
?strdup@Query_arena@@QEAAPEADPEBD@Z
?get_internal_handler@THD@@QEAAPEAVInternal_error_handler@@XZ
??0Prepared_stmt_arena_holder@@QEAA@PEAVTHD@@_N@Z
??1Prepared_stmt_arena_holder@@QEAA@XZ
?is_activated@Prepared_stmt_arena_holder@@QEBA_NXZ
?front@?$I_P_List@UTABLE@@U?$I_P_List_adapter@UTABLE@@$0CA@$0CI@@@VI_P_List_null_counter@@V?$I_P_List_no_push_back@UTABLE@@@@@@QEAAPEAUTABLE@@XZ
?move_to_next_table@Table_cache_iterator@@AEAAXXZ
??0Table_cache_iterator@@QEAA@PEBUTABLE_SHARE@@@Z
??ETable_cache_iterator@@QEAAPEAUTABLE@@H@Z
?rewind@Table_cache_iterator@@QEAAXXZ
??0?$I_P_List_iterator@UTABLE@@V?$I_P_List@UTABLE@@U?$I_P_List_adapter@UTABLE@@$0CA@$0CI@@@VI_P_List_null_counter@@V?$I_P_List_no_push_back@UTABLE@@@@@@@@QEAA@AEBV?$I_P_List@UTABLE@@U?$I_P_List_adapter@UTABLE@@$0CA@$0CI@@@VI_P_List_null_counter@@V?$I_P_List_no_push_back@UTABLE@@@@@@PEAUTABLE@@@Z
??E?$I_P_List_iterator@UTABLE@@V?$I_P_List@UTABLE@@U?$I_P_List_adapter@UTABLE@@$0CA@$0CI@@@VI_P_List_null_counter@@V?$I_P_List_no_push_back@UTABLE@@@@@@@@QEAAPEAUTABLE@@XZ
?is_system_table_name@@YA_NPEBDI@Z
??0?$I_P_List_iterator@VWait_for_flush@@V?$I_P_List@VWait_for_flush@@U?$I_P_List_adapter@VWait_for_flush@@$0CA@$0CI@@@VI_P_List_null_counter@@V?$I_P_List_no_push_back@VWait_for_flush@@@@@@@@QEAA@AEBV?$I_P_List@VWait_for_flush@@U?$I_P_List_adapter@VWait_for_flush@@$0CA@$0CI@@@VI_P_List_null_counter@@V?$I_P_List_no_push_back@VWait_for_flush@@@@@@@Z
??E?$I_P_List_iterator@VWait_for_flush@@V?$I_P_List@VWait_for_flush@@U?$I_P_List_adapter@VWait_for_flush@@$0CA@$0CI@@@VI_P_List_null_counter@@V?$I_P_List_no_push_back@VWait_for_flush@@@@@@@@QEAAPEAVWait_for_flush@@H@Z
??0?$List_iterator@VString@@@@QEAA@AEAV?$List@VString@@@@@Z
??E?$List_iterator@VString@@@@QEAAPEAVString@@H@Z
??0?$List_iterator_fast@VItem@@@@QEAA@AEAV?$List@VItem@@@@@Z
??E?$List_iterator_fast@VItem@@@@QEAAPEAVItem@@H@Z
??0?$List_iterator_fast@VItem_func_match@@@@QEAA@AEAV?$List@VItem_func_match@@@@@Z
??E?$List_iterator_fast@VItem_func_match@@@@QEAAPEAVItem_func_match@@H@Z
??0?$List_iterator@UTABLE_LIST@@@@QEAA@AEAV?$List@UTABLE_LIST@@@@@Z
??E?$List_iterator@UTABLE_LIST@@@@QEAAPEAUTABLE_LIST@@H@Z
??_9Item@@$BCII@AA
??0?$List_iterator_fast@UTABLE_LIST@@@@QEAA@AEAV?$List@UTABLE_LIST@@@@@Z
??E?$List_iterator_fast@UTABLE_LIST@@@@QEAAPEAUTABLE_LIST@@H@Z
??0?$List@VNatural_join_column@@@@QEAA@XZ
?push_back@?$List@VNatural_join_column@@@@QEAA_NPEAVNatural_join_column@@@Z
??0?$List_iterator@VIndex_hint@@@@QEAA@AEAV?$List@VIndex_hint@@@@@Z
??E?$List_iterator@VIndex_hint@@@@QEAAPEAVIndex_hint@@H@Z
??0?$List_iterator@VDerived_key@@@@QEAA@AEAV?$List@VDerived_key@@@@@Z
??E?$List_iterator@VDerived_key@@@@QEAAPEAVDerived_key@@H@Z
?next_ptr@?$I_P_List_adapter@VWait_for_flush@@$0CA@$0CI@@@SAPEAPEAVWait_for_flush@@PEAV2@@Z
?prev_ptr@?$I_P_List_adapter@VWait_for_flush@@$0CA@$0CI@@@SAPEAPEAPEAVWait_for_flush@@PEAV2@@Z
?abort@Rpl_info_dummy@@0_NB DATA
?opt_mi_repository_id@@3KA DATA
?opt_rli_repository_id@@3KA DATA
?slave_type_conversions_name@@3PAPEBDA DATA
?gtid_purged@@3PEAVGtid_set@@EA DATA
?Sys_autocommit_ptr@@3PEAVsys_var@@EA DATA
?Sys_gtid_next_ptr@@3PEAVsys_var@@EA DATA
?Sys_gtid_purged_ptr@@3PEAVsys_var@@EA DATA
?Sys_optimizer_trace_ptr@@3PEAVsys_var@@EA DATA
?bool_typelib@@3Ust_typelib@@A DATA
?my_double2ulonglong@@YA_KN@Z
?replace@Discrete_interval@@QEAAX_K00@Z
?minimum@Discrete_interval@@QEBA_KXZ
?merge_if_contiguous@Discrete_interval@@QEAA_N_K00@Z
?append@Discrete_intervals_list@@AEAA_NPEAVDiscrete_interval@@@Z
?empty@Discrete_intervals_list@@QEAAXXZ
?append@Discrete_intervals_list@@QEAA_N_K00@Z
?minimum@Discrete_intervals_list@@QEBA_KXZ
?is_disabled@Query_cache@@QEAA_NXZ
?warn_count@Warning_info@@AEBAKXZ
?error_count@Warning_info@@AEBAKXZ
??0ErrConvString@@QEAA@PEAVString@@@Z
??0ErrConvString@@QEAA@PEBDIPEBUcharset_info_st@@@Z
??1ErrConvString@@QEAA@XZ
?ptr@ErrConvString@@QEAAPEADXZ
?error_count@Diagnostics_area@@QEBAKXZ
?warn_count@Diagnostics_area@@QEBAKXZ
?open_slow_log@MYSQL_QUERY_LOG@@QEAA_NPEBD@Z
?open_query_log@MYSQL_QUERY_LOG@@QEAA_NPEBD@Z
?get_mysql_slow_log@Log_to_file_event_handler@@QEAAPEAVMYSQL_QUERY_LOG@@XZ
?get_mysql_log@Log_to_file_event_handler@@QEAAPEAVMYSQL_QUERY_LOG@@XZ
?lock_exclusive@LOGGER@@QEAAXXZ
?unlock@LOGGER@@QEAAXXZ
?get_slow_log_file_handler@LOGGER@@QEBAPEAVMYSQL_QUERY_LOG@@XZ
?get_log_file_handler@LOGGER@@QEBAPEAVMYSQL_QUERY_LOG@@XZ
?sidno_to_sid@Sid_map@@QEBAAEBUUuid@@H@Z
?get_sorted_sidno@Sid_map@@QEBAHH@Z
?get_max_sidno@Sid_map@@QEBAHXZ
?to_string@Gtid_set@@QEBAPEADXZ
?add_interval_memory@Gtid_set@@QEAAXHPEAUInterval@1@@Z
?get_max_sidno@Owned_gtids@@QEBAHXZ
?to_string@Owned_gtids@@QEBAHPEAD@Z
?get_max_string_length@Owned_gtids@@QEBA_KXZ
?thread_owns_anything@Owned_gtids@@QEBA_NK@Z
?get_hash@Owned_gtids@@AEBAPEAUst_hash@@H@Z
??0Gtid_iterator@Owned_gtids@@QEAA@PEBV1@@Z
?next@Gtid_iterator@Owned_gtids@@QEAAXXZ
?get_node@Gtid_iterator@Owned_gtids@@QEBAPEAUNode@2@XZ
?get_owned_gtids@Gtid_state@@QEBAPEBVOwned_gtids@@XZ
?is_valid@Gtid_specification@@SA_NPEBD@Z
?show_system_thread@@YAPEBDW4enum_thread_type@@@Z
?is_acquired@Global_read_lock@@QEBA_NXZ
?read_first_successful_insert_id_in_prev_stmt@THD@@QEAA_KXZ
?force_one_auto_inc_interval@THD@@QEAAX_K@Z
?get_user_connect@THD@@QEAAPEBUuser_conn@@XZ
?set_time@THD@@QEAAXPEBUtimeval@@@Z
?reset_current_stmt_binlog_format_row@THD@@QEAAXXZ
?get_gtid_next_list@THD@@QEAAPEAVGtid_set@@XZ
?get_gtid_next_list_const@THD@@QEBAPEBVGtid_set@@XZ
??1sys_var@@UEAA@XZ
?cleanup@sys_var@@UEAAXXZ
?cast_pluginvar@sys_var@@UEAAPEAVsys_var_pluginvar@@XZ
?update_default@sys_var@@UEAAX_J@Z
?scope@sys_var@@QEBAHXZ
?is_readonly@sys_var@@QEBA_NXZ
?session_var_ptr@sys_var@@IEAAPEAEPEAVTHD@@@Z
?global_var_ptr@sys_var@@IEAAPEAEXZ
?get_log_lock@MYSQL_BIN_LOG@@QEAAPEAUst_mysql_mutex@@XZ
?fix_delay_key_write@@YA_NPEAVsys_var@@PEAVTHD@@W4enum_var_type@@@Z
?expand_sql_mode@@YA_K_K@Z
?sql_mode_string_representation@@YA_NPEAVTHD@@_KPEAUst_mysql_lex_string@@@Z
??1PolyLock@@UEAA@XZ
??0PolyLock@@QEAA@XZ
??0PolyLock_mutex@@QEAA@PEAUst_mysql_mutex@@@Z
?rdlock@PolyLock_mutex@@UEAAXXZ
?wrlock@PolyLock_mutex@@UEAAXXZ
?unlock@PolyLock_mutex@@UEAAXXZ
??1PolyLock_mutex@@UEAA@XZ
??0PolyLock_rwlock@@QEAA@PEAUst_mysql_rwlock@@@Z
?rdlock@PolyLock_rwlock@@UEAAXXZ
?wrlock@PolyLock_rwlock@@UEAAXXZ
?unlock@PolyLock_rwlock@@UEAAXXZ
??1PolyLock_rwlock@@UEAA@XZ
??0CMD_LINE@@QEAA@W4get_opt_arg_type@@H@Z
??0Sys_var_typelib@@QEAA@PEBD0H_JUCMD_LINE@@W4enum_mysql_show_type@@QEAPEBD_KPEAVPolyLock@@W4binlog_status_enum@sys_var@@P6A_NPEAV5@PEAVTHD@@PEAVset_var@@@ZP6A_N89W4enum_var_type@@@Z0H@Z
?do_check@Sys_var_typelib@@UEAA_NPEAVTHD@@PEAVset_var@@@Z
?check_update_type@Sys_var_typelib@@UEAA_NW4Item_result@@@Z
??1Sys_var_typelib@@UEAA@XZ
??0Sys_var_enum@@QEAA@PEBD0H_J_KUCMD_LINE@@QEAPEBDIPEAVPolyLock@@W4binlog_status_enum@sys_var@@P6A_NPEAV4@PEAVTHD@@PEAVset_var@@@ZP6A_N78W4enum_var_type@@@Z0@Z
?session_update@Sys_var_enum@@UEAA_NPEAVTHD@@PEAVset_var@@@Z
?global_update@Sys_var_enum@@UEAA_NPEAVTHD@@PEAVset_var@@@Z
?session_save_default@Sys_var_enum@@UEAAXPEAVTHD@@PEAVset_var@@@Z
?global_save_default@Sys_var_enum@@UEAAXPEAVTHD@@PEAVset_var@@@Z
?session_value_ptr@Sys_var_enum@@UEAAPEAEPEAVTHD@@PEAUst_mysql_lex_string@@@Z
?global_value_ptr@Sys_var_enum@@UEAAPEAEPEAVTHD@@PEAUst_mysql_lex_string@@@Z
??1Sys_var_enum@@UEAA@XZ
??0Sys_var_mybool@@QEAA@PEBD0H_J_KUCMD_LINE@@DPEAVPolyLock@@W4binlog_status_enum@sys_var@@P6A_NPEAV4@PEAVTHD@@PEAVset_var@@@ZP6A_N67W4enum_var_type@@@Z0H@Z
?session_update@Sys_var_mybool@@UEAA_NPEAVTHD@@PEAVset_var@@@Z
?global_update@Sys_var_mybool@@UEAA_NPEAVTHD@@PEAVset_var@@@Z
?session_save_default@Sys_var_mybool@@UEAAXPEAVTHD@@PEAVset_var@@@Z
?global_save_default@Sys_var_mybool@@UEAAXPEAVTHD@@PEAVset_var@@@Z
??1Sys_var_mybool@@UEAA@XZ
??0Sys_var_charptr@@QEAA@PEBD0H_J_KUCMD_LINE@@W4charset_enum@@0PEAVPolyLock@@W4binlog_status_enum@sys_var@@P6A_NPEAV5@PEAVTHD@@PEAVset_var@@@ZP6A_N78W4enum_var_type@@@Z0H@Z
?cleanup@Sys_var_charptr@@UEAAXXZ
?do_check@Sys_var_charptr@@UEAA_NPEAVTHD@@PEAVset_var@@@Z
?session_update@Sys_var_charptr@@UEAA_NPEAVTHD@@PEAVset_var@@@Z
?global_update@Sys_var_charptr@@UEAA_NPEAVTHD@@PEAVset_var@@@Z
?session_save_default@Sys_var_charptr@@UEAAXPEAVTHD@@PEAVset_var@@@Z
?global_save_default@Sys_var_charptr@@UEAAXPEAVTHD@@PEAVset_var@@@Z
?check_update_type@Sys_var_charptr@@UEAA_NW4Item_result@@@Z
??1Sys_var_charptr@@UEAA@XZ
??0Sys_var_proxy_user@@QEAA@PEBD0W4charset_enum@@@Z
?do_check@Sys_var_proxy_user@@UEAA_NPEAVTHD@@PEAVset_var@@@Z
?session_update@Sys_var_proxy_user@@UEAA_NPEAVTHD@@PEAVset_var@@@Z
?global_update@Sys_var_proxy_user@@UEAA_NPEAVTHD@@PEAVset_var@@@Z
?session_save_default@Sys_var_proxy_user@@UEAAXPEAVTHD@@PEAVset_var@@@Z
?global_save_default@Sys_var_proxy_user@@UEAAXPEAVTHD@@PEAVset_var@@@Z
?check_update_type@Sys_var_proxy_user@@UEAA_NW4Item_result@@@Z
?session_value_ptr@Sys_var_proxy_user@@MEAAPEAEPEAVTHD@@PEAUst_mysql_lex_string@@@Z
??1Sys_var_proxy_user@@UEAA@XZ
??0Sys_var_external_user@@QEAA@PEBD0W4charset_enum@@@Z
?session_value_ptr@Sys_var_external_user@@MEAAPEAEPEAVTHD@@PEAUst_mysql_lex_string@@@Z
??1Sys_var_external_user@@UEAA@XZ
??0Sys_var_lexstring@@QEAA@PEBD0H_J_KUCMD_LINE@@W4charset_enum@@0PEAVPolyLock@@W4binlog_status_enum@sys_var@@P6A_NPEAV5@PEAVTHD@@PEAVset_var@@@ZP6A_N78W4enum_var_type@@@Z0@Z
?global_update@Sys_var_lexstring@@UEAA_NPEAVTHD@@PEAVset_var@@@Z
??1Sys_var_lexstring@@UEAA@XZ
??0Sys_var_dbug@@QEAA@PEBD0HUCMD_LINE@@0PEAVPolyLock@@W4binlog_status_enum@sys_var@@P6A_NPEAV4@PEAVTHD@@PEAVset_var@@@ZP6A_N45W4enum_var_type@@@Z0H@Z
?do_check@Sys_var_dbug@@UEAA_NPEAVTHD@@PEAVset_var@@@Z
?session_update@Sys_var_dbug@@UEAA_NPEAVTHD@@PEAVset_var@@@Z
?global_update@Sys_var_dbug@@UEAA_NPEAVTHD@@PEAVset_var@@@Z
?session_save_default@Sys_var_dbug@@UEAAXPEAVTHD@@PEAVset_var@@@Z
?global_save_default@Sys_var_dbug@@UEAAXPEAVTHD@@PEAVset_var@@@Z
?session_value_ptr@Sys_var_dbug@@UEAAPEAEPEAVTHD@@PEAUst_mysql_lex_string@@@Z
?global_value_ptr@Sys_var_dbug@@UEAAPEAEPEAVTHD@@PEAUst_mysql_lex_string@@@Z
?check_update_type@Sys_var_dbug@@UEAA_NW4Item_result@@@Z
??1Sys_var_dbug@@UEAA@XZ
??0?$Sys_var_integer@_K$07$03$0A@@@QEAA@PEBD0H_J_KUCMD_LINE@@222IPEAVPolyLock@@W4binlog_status_enum@sys_var@@P6A_NPEAV4@PEAVTHD@@PEAVset_var@@@ZP6A_N67W4enum_var_type@@@Z0H@Z
?do_check@?$Sys_var_integer@_K$07$03$0A@@@UEAA_NPEAVTHD@@PEAVset_var@@@Z
?session_update@?$Sys_var_integer@_K$07$03$0A@@@UEAA_NPEAVTHD@@PEAVset_var@@@Z
?global_update@?$Sys_var_integer@_K$07$03$0A@@@UEAA_NPEAVTHD@@PEAVset_var@@@Z
?check_update_type@?$Sys_var_integer@_K$07$03$0A@@@UEAA_NW4Item_result@@@Z
?session_save_default@?$Sys_var_integer@_K$07$03$0A@@@UEAAXPEAVTHD@@PEAVset_var@@@Z
?global_save_default@?$Sys_var_integer@_K$07$03$0A@@@UEAAXPEAVTHD@@PEAVset_var@@@Z
?max_var_ptr@?$Sys_var_integer@_K$07$03$0A@@@AEAAPEA_KXZ
??1?$Sys_var_integer@_K$07$03$0A@@@UEAA@XZ
??0Sys_var_keycache@@QEAA@PEBD0H_J_KUCMD_LINE@@2222PEAVPolyLock@@W4binlog_status_enum@sys_var@@P6A_NPEAV4@PEAVTHD@@PEAVset_var@@@ZP6A_N7PEAUst_key_cache@@12@Z0@Z
?global_update@Sys_var_keycache@@UEAA_NPEAVTHD@@PEAVset_var@@@Z
?global_value_ptr@Sys_var_keycache@@UEAAPEAEPEAVTHD@@PEAUst_mysql_lex_string@@@Z
??1Sys_var_keycache@@UEAA@XZ
??0Sys_var_double@@QEAA@PEBD0H_J_KUCMD_LINE@@NNNPEAVPolyLock@@W4binlog_status_enum@sys_var@@P6A_NPEAV4@PEAVTHD@@PEAVset_var@@@ZP6A_N67W4enum_var_type@@@Z0H@Z
?do_check@Sys_var_double@@UEAA_NPEAVTHD@@PEAVset_var@@@Z
?session_update@Sys_var_double@@UEAA_NPEAVTHD@@PEAVset_var@@@Z
?global_update@Sys_var_double@@UEAA_NPEAVTHD@@PEAVset_var@@@Z
?check_update_type@Sys_var_double@@UEAA_NW4Item_result@@@Z
?session_save_default@Sys_var_double@@UEAAXPEAVTHD@@PEAVset_var@@@Z
?global_save_default@Sys_var_double@@UEAAXPEAVTHD@@PEAVset_var@@@Z
??1Sys_var_double@@UEAA@XZ
??0Sys_var_test_flag@@QEAA@PEBD0I@Z
?global_value_ptr@Sys_var_test_flag@@UEAAPEAEPEAVTHD@@PEAUst_mysql_lex_string@@@Z
??1Sys_var_test_flag@@UEAA@XZ
??0?$Sys_var_integer@I$03$01$0A@@@QEAA@PEBD0H_J_KUCMD_LINE@@IIIIPEAVPolyLock@@W4binlog_status_enum@sys_var@@P6A_NPEAV4@PEAVTHD@@PEAVset_var@@@ZP6A_N67W4enum_var_type@@@Z0H@Z
?do_check@?$Sys_var_integer@I$03$01$0A@@@UEAA_NPEAVTHD@@PEAVset_var@@@Z
?session_update@?$Sys_var_integer@I$03$01$0A@@@UEAA_NPEAVTHD@@PEAVset_var@@@Z
?global_update@?$Sys_var_integer@I$03$01$0A@@@UEAA_NPEAVTHD@@PEAVset_var@@@Z
?check_update_type@?$Sys_var_integer@I$03$01$0A@@@UEAA_NW4Item_result@@@Z
?session_save_default@?$Sys_var_integer@I$03$01$0A@@@UEAAXPEAVTHD@@PEAVset_var@@@Z
?global_save_default@?$Sys_var_integer@I$03$01$0A@@@UEAAXPEAVTHD@@PEAVset_var@@@Z
?max_var_ptr@?$Sys_var_integer@I$03$01$0A@@@AEAAPEAIXZ
??1?$Sys_var_integer@I$03$01$0A@@@UEAA@XZ
??0Sys_var_max_user_conn@@QEAA@PEBD0H_J_KUCMD_LINE@@IIIIPEAVPolyLock@@W4binlog_status_enum@sys_var@@P6A_NPEAV4@PEAVTHD@@PEAVset_var@@@ZP6A_N67W4enum_var_type@@@Z0@Z
?session_value_ptr@Sys_var_max_user_conn@@UEAAPEAEPEAVTHD@@PEAUst_mysql_lex_string@@@Z
??1Sys_var_max_user_conn@@UEAA@XZ
??0Sys_var_flagset@@QEAA@PEBD0H_J_KUCMD_LINE@@QEAPEBD2PEAVPolyLock@@W4binlog_status_enum@sys_var@@P6A_NPEAV4@PEAVTHD@@PEAVset_var@@@ZP6A_N78W4enum_var_type@@@Z0@Z
?do_check@Sys_var_flagset@@UEAA_NPEAVTHD@@PEAVset_var@@@Z
?session_update@Sys_var_flagset@@UEAA_NPEAVTHD@@PEAVset_var@@@Z
?global_update@Sys_var_flagset@@UEAA_NPEAVTHD@@PEAVset_var@@@Z
?session_save_default@Sys_var_flagset@@UEAAXPEAVTHD@@PEAVset_var@@@Z
?global_save_default@Sys_var_flagset@@UEAAXPEAVTHD@@PEAVset_var@@@Z
?session_value_ptr@Sys_var_flagset@@UEAAPEAEPEAVTHD@@PEAUst_mysql_lex_string@@@Z
?global_value_ptr@Sys_var_flagset@@UEAAPEAEPEAVTHD@@PEAUst_mysql_lex_string@@@Z
??1Sys_var_flagset@@UEAA@XZ
??0Sys_var_set@@QEAA@PEBD0H_J_KUCMD_LINE@@QEAPEBD2PEAVPolyLock@@W4binlog_status_enum@sys_var@@P6A_NPEAV4@PEAVTHD@@PEAVset_var@@@ZP6A_N78W4enum_var_type@@@Z0@Z
?do_check@Sys_var_set@@UEAA_NPEAVTHD@@PEAVset_var@@@Z
?session_update@Sys_var_set@@UEAA_NPEAVTHD@@PEAVset_var@@@Z
?global_update@Sys_var_set@@UEAA_NPEAVTHD@@PEAVset_var@@@Z
?session_save_default@Sys_var_set@@UEAAXPEAVTHD@@PEAVset_var@@@Z
?global_save_default@Sys_var_set@@UEAAXPEAVTHD@@PEAVset_var@@@Z
?session_value_ptr@Sys_var_set@@UEAAPEAEPEAVTHD@@PEAUst_mysql_lex_string@@@Z
?global_value_ptr@Sys_var_set@@UEAAPEAEPEAVTHD@@PEAUst_mysql_lex_string@@@Z
??1Sys_var_set@@UEAA@XZ
??0Sys_var_plugin@@QEAA@PEBD0H_J_KUCMD_LINE@@HPEAPEADPEAVPolyLock@@W4binlog_status_enum@sys_var@@P6A_NPEAV4@PEAVTHD@@PEAVset_var@@@ZP6A_N78W4enum_var_type@@@Z0H@Z
?do_check@Sys_var_plugin@@UEAA_NPEAVTHD@@PEAVset_var@@@Z
?do_update@Sys_var_plugin@@QEAAXPEAPEAPEAUst_plugin_int@@PEAPEAU2@@Z
?session_update@Sys_var_plugin@@UEAA_NPEAVTHD@@PEAVset_var@@@Z
?global_update@Sys_var_plugin@@UEAA_NPEAVTHD@@PEAVset_var@@@Z
?session_save_default@Sys_var_plugin@@UEAAXPEAVTHD@@PEAVset_var@@@Z
?global_save_default@Sys_var_plugin@@UEAAXPEAVTHD@@PEAVset_var@@@Z
?check_update_type@Sys_var_plugin@@UEAA_NW4Item_result@@@Z
?session_value_ptr@Sys_var_plugin@@UEAAPEAEPEAVTHD@@PEAUst_mysql_lex_string@@@Z
?global_value_ptr@Sys_var_plugin@@UEAAPEAEPEAVTHD@@PEAUst_mysql_lex_string@@@Z
??1Sys_var_plugin@@UEAA@XZ
??0Sys_var_debug_sync@@QEAA@PEBD0HUCMD_LINE@@0PEAVPolyLock@@W4binlog_status_enum@sys_var@@P6A_NPEAV4@PEAVTHD@@PEAVset_var@@@ZP6A_N45W4enum_var_type@@@Z0H@Z
?do_check@Sys_var_debug_sync@@UEAA_NPEAVTHD@@PEAVset_var@@@Z
?session_update@Sys_var_debug_sync@@UEAA_NPEAVTHD@@PEAVset_var@@@Z
?global_update@Sys_var_debug_sync@@UEAA_NPEAVTHD@@PEAVset_var@@@Z
?session_save_default@Sys_var_debug_sync@@UEAAXPEAVTHD@@PEAVset_var@@@Z
?global_save_default@Sys_var_debug_sync@@UEAAXPEAVTHD@@PEAVset_var@@@Z
?session_value_ptr@Sys_var_debug_sync@@UEAAPEAEPEAVTHD@@PEAUst_mysql_lex_string@@@Z
?global_value_ptr@Sys_var_debug_sync@@UEAAPEAEPEAVTHD@@PEAUst_mysql_lex_string@@@Z
?check_update_type@Sys_var_debug_sync@@UEAA_NW4Item_result@@@Z
??1Sys_var_debug_sync@@UEAA@XZ
?set@Sys_var_bit@@AEAAXPEAE_K@Z
??0Sys_var_bit@@QEAA@PEBD0H_J_KUCMD_LINE@@2DPEAVPolyLock@@W4binlog_status_enum@sys_var@@P6A_NPEAV4@PEAVTHD@@PEAVset_var@@@ZP6A_N67W4enum_var_type@@@Z0@Z
?session_update@Sys_var_bit@@UEAA_NPEAVTHD@@PEAVset_var@@@Z
?global_update@Sys_var_bit@@UEAA_NPEAVTHD@@PEAVset_var@@@Z
?session_save_default@Sys_var_bit@@UEAAXPEAVTHD@@PEAVset_var@@@Z
?global_save_default@Sys_var_bit@@UEAAXPEAVTHD@@PEAVset_var@@@Z
?session_value_ptr@Sys_var_bit@@UEAAPEAEPEAVTHD@@PEAUst_mysql_lex_string@@@Z
?global_value_ptr@Sys_var_bit@@UEAAPEAEPEAVTHD@@PEAUst_mysql_lex_string@@@Z
??1Sys_var_bit@@UEAA@XZ
??0Sys_var_session_special@@QEAA@PEBD0HUCMD_LINE@@_K22PEAVPolyLock@@W4binlog_status_enum@sys_var@@P6A_NPEAV4@PEAVTHD@@PEAVset_var@@@ZP6A_N67@ZP6A_K6@Z0@Z
?session_update@Sys_var_session_special@@UEAA_NPEAVTHD@@PEAVset_var@@@Z
?global_update@Sys_var_session_special@@UEAA_NPEAVTHD@@PEAVset_var@@@Z
?session_save_default@Sys_var_session_special@@UEAAXPEAVTHD@@PEAVset_var@@@Z
?global_save_default@Sys_var_session_special@@UEAAXPEAVTHD@@PEAVset_var@@@Z
?session_value_ptr@Sys_var_session_special@@UEAAPEAEPEAVTHD@@PEAUst_mysql_lex_string@@@Z
?global_value_ptr@Sys_var_session_special@@UEAAPEAEPEAVTHD@@PEAUst_mysql_lex_string@@@Z
??1Sys_var_session_special@@UEAA@XZ
??0Sys_var_session_special_double@@QEAA@PEBD0HUCMD_LINE@@_K22PEAVPolyLock@@W4binlog_status_enum@sys_var@@P6A_NPEAV4@PEAVTHD@@PEAVset_var@@@ZP6A_N67@ZP6AN6@Z0@Z
?session_update@Sys_var_session_special_double@@UEAA_NPEAVTHD@@PEAVset_var@@@Z
?global_update@Sys_var_session_special_double@@UEAA_NPEAVTHD@@PEAVset_var@@@Z
?session_save_default@Sys_var_session_special_double@@UEAAXPEAVTHD@@PEAVset_var@@@Z
?global_save_default@Sys_var_session_special_double@@UEAAXPEAVTHD@@PEAVset_var@@@Z
?session_value_ptr@Sys_var_session_special_double@@UEAAPEAEPEAVTHD@@PEAUst_mysql_lex_string@@@Z
?global_value_ptr@Sys_var_session_special_double@@UEAAPEAEPEAVTHD@@PEAUst_mysql_lex_string@@@Z
??1Sys_var_session_special_double@@UEAA@XZ
??0Sys_var_have@@QEAA@PEBD0H_J_KUCMD_LINE@@PEAVPolyLock@@W4binlog_status_enum@sys_var@@P6A_NPEAV4@PEAVTHD@@PEAVset_var@@@ZP6A_N67W4enum_var_type@@@Z0H@Z
?do_check@Sys_var_have@@UEAA_NPEAVTHD@@PEAVset_var@@@Z
?session_update@Sys_var_have@@UEAA_NPEAVTHD@@PEAVset_var@@@Z
?global_update@Sys_var_have@@UEAA_NPEAVTHD@@PEAVset_var@@@Z
?session_save_default@Sys_var_have@@UEAAXPEAVTHD@@PEAVset_var@@@Z
?global_save_default@Sys_var_have@@UEAAXPEAVTHD@@PEAVset_var@@@Z
?session_value_ptr@Sys_var_have@@UEAAPEAEPEAVTHD@@PEAUst_mysql_lex_string@@@Z
?global_value_ptr@Sys_var_have@@UEAAPEAEPEAVTHD@@PEAUst_mysql_lex_string@@@Z
?check_update_type@Sys_var_have@@UEAA_NW4Item_result@@@Z
??1Sys_var_have@@UEAA@XZ
??0Sys_var_struct@@QEAA@PEBD0H_J_KUCMD_LINE@@1PEAXPEAVPolyLock@@W4binlog_status_enum@sys_var@@P6A_NPEAV4@PEAVTHD@@PEAVset_var@@@ZP6A_N78W4enum_var_type@@@Z0H@Z
?do_check@Sys_var_struct@@UEAA_NPEAVTHD@@PEAVset_var@@@Z
?session_update@Sys_var_struct@@UEAA_NPEAVTHD@@PEAVset_var@@@Z
?global_update@Sys_var_struct@@UEAA_NPEAVTHD@@PEAVset_var@@@Z
?session_save_default@Sys_var_struct@@UEAAXPEAVTHD@@PEAVset_var@@@Z
?global_save_default@Sys_var_struct@@UEAAXPEAVTHD@@PEAVset_var@@@Z
?check_update_type@Sys_var_struct@@UEAA_NW4Item_result@@@Z
?session_value_ptr@Sys_var_struct@@UEAAPEAEPEAVTHD@@PEAUst_mysql_lex_string@@@Z
?global_value_ptr@Sys_var_struct@@UEAAPEAEPEAVTHD@@PEAUst_mysql_lex_string@@@Z
??1Sys_var_struct@@UEAA@XZ
??0Sys_var_tz@@QEAA@PEBD0H_J_KUCMD_LINE@@PEAPEAVTime_zone@@PEAVPolyLock@@W4binlog_status_enum@sys_var@@P6A_NPEAV5@PEAVTHD@@PEAVset_var@@@ZP6A_N78W4enum_var_type@@@Z0H@Z
?do_check@Sys_var_tz@@UEAA_NPEAVTHD@@PEAVset_var@@@Z
?session_update@Sys_var_tz@@UEAA_NPEAVTHD@@PEAVset_var@@@Z
?global_update@Sys_var_tz@@UEAA_NPEAVTHD@@PEAVset_var@@@Z
?session_save_default@Sys_var_tz@@UEAAXPEAVTHD@@PEAVset_var@@@Z
?global_save_default@Sys_var_tz@@UEAAXPEAVTHD@@PEAVset_var@@@Z
?session_value_ptr@Sys_var_tz@@UEAAPEAEPEAVTHD@@PEAUst_mysql_lex_string@@@Z
?global_value_ptr@Sys_var_tz@@UEAAPEAEPEAVTHD@@PEAUst_mysql_lex_string@@@Z
?check_update_type@Sys_var_tz@@UEAA_NW4Item_result@@@Z
??1Sys_var_tz@@UEAA@XZ
??0Sys_var_tx_isolation@@QEAA@PEBD0H_J_KUCMD_LINE@@QEAPEBDIPEAVPolyLock@@W4binlog_status_enum@sys_var@@P6A_NPEAV4@PEAVTHD@@PEAVset_var@@@Z@Z
?session_update@Sys_var_tx_isolation@@UEAA_NPEAVTHD@@PEAVset_var@@@Z
??1Sys_var_tx_isolation@@UEAA@XZ
??0Sys_var_tx_read_only@@QEAA@PEBD0H_J_KUCMD_LINE@@DPEAVPolyLock@@W4binlog_status_enum@sys_var@@P6A_NPEAV4@PEAVTHD@@PEAVset_var@@@Z@Z
?session_update@Sys_var_tx_read_only@@UEAA_NPEAVTHD@@PEAVset_var@@@Z
??1Sys_var_tx_read_only@@UEAA@XZ
??0Sys_var_enum_binlog_checksum@@QEAA@PEBD0H_J_KUCMD_LINE@@QEAPEBDIPEAVPolyLock@@W4binlog_status_enum@sys_var@@@Z
?global_update@Sys_var_enum_binlog_checksum@@UEAA_NPEAVTHD@@PEAVset_var@@@Z
??1Sys_var_enum_binlog_checksum@@UEAA@XZ
??0Sys_var_gtid_specification@@QEAA@PEBD0H_J_KUCMD_LINE@@0PEAVPolyLock@@W4binlog_status_enum@sys_var@@P6A_NPEAV4@PEAVTHD@@PEAVset_var@@@ZP6A_N67W4enum_var_type@@@Z0H@Z
?session_update@Sys_var_gtid_specification@@UEAA_NPEAVTHD@@PEAVset_var@@@Z
?global_update@Sys_var_gtid_specification@@UEAA_NPEAVTHD@@PEAVset_var@@@Z
?session_save_default@Sys_var_gtid_specification@@UEAAXPEAVTHD@@PEAVset_var@@@Z
?global_save_default@Sys_var_gtid_specification@@UEAAXPEAVTHD@@PEAVset_var@@@Z
?do_check@Sys_var_gtid_specification@@UEAA_NPEAVTHD@@PEAVset_var@@@Z
?check_update_type@Sys_var_gtid_specification@@UEAA_NW4Item_result@@@Z
?session_value_ptr@Sys_var_gtid_specification@@UEAAPEAEPEAVTHD@@PEAUst_mysql_lex_string@@@Z
?global_value_ptr@Sys_var_gtid_specification@@UEAAPEAEPEAVTHD@@PEAUst_mysql_lex_string@@@Z
??1Sys_var_gtid_specification@@UEAA@XZ
??0Sys_var_charptr_func@@QEAA@PEBD0W4flag_enum@sys_var@@@Z
?session_update@Sys_var_charptr_func@@UEAA_NPEAVTHD@@PEAVset_var@@@Z
?global_update@Sys_var_charptr_func@@UEAA_NPEAVTHD@@PEAVset_var@@@Z
?session_save_default@Sys_var_charptr_func@@UEAAXPEAVTHD@@PEAVset_var@@@Z
?global_save_default@Sys_var_charptr_func@@UEAAXPEAVTHD@@PEAVset_var@@@Z
?do_check@Sys_var_charptr_func@@UEAA_NPEAVTHD@@PEAVset_var@@@Z
?check_update_type@Sys_var_charptr_func@@UEAA_NW4Item_result@@@Z
?session_value_ptr@Sys_var_charptr_func@@UEAAPEAEPEAVTHD@@PEAUst_mysql_lex_string@@@Z
?global_value_ptr@Sys_var_charptr_func@@UEAAPEAEPEAVTHD@@PEAUst_mysql_lex_string@@@Z
??1Sys_var_charptr_func@@UEAA@XZ
??0Sys_var_gtid_set_func@@QEAA@PEBD0W4flag_enum@sys_var@@@Z
?get_string_from_gtid_set@Sys_var_gtid_set_func@@SAPEAEPEAVTHD@@P6A?AW4enum_return_status@@0PEAVGtid_set@@@Z@Z
??1Sys_var_gtid_set_func@@UEAA@XZ
??0Sys_var_gtid_executed@@QEAA@PEBD0@Z
?global_value_ptr@Sys_var_gtid_executed@@UEAAPEAEPEAVTHD@@PEAUst_mysql_lex_string@@@Z
?get_groups_from_trx_cache@Sys_var_gtid_executed@@CA?AW4enum_return_status@@PEAVTHD@@PEAVGtid_set@@@Z
?session_value_ptr@Sys_var_gtid_executed@@UEAAPEAEPEAVTHD@@PEAUst_mysql_lex_string@@@Z
??1Sys_var_gtid_executed@@UEAA@XZ
??0Sys_var_gtid_purged@@QEAA@PEBD0H_J_KUCMD_LINE@@0PEAVPolyLock@@W4binlog_status_enum@sys_var@@P6A_NPEAV4@PEAVTHD@@PEAVset_var@@@ZP6A_N67W4enum_var_type@@@Z0H@Z
?session_update@Sys_var_gtid_purged@@UEAA_NPEAVTHD@@PEAVset_var@@@Z
?session_save_default@Sys_var_gtid_purged@@UEAAXPEAVTHD@@PEAVset_var@@@Z
?global_update@Sys_var_gtid_purged@@UEAA_NPEAVTHD@@PEAVset_var@@@Z
?global_save_default@Sys_var_gtid_purged@@UEAAXPEAVTHD@@PEAVset_var@@@Z
?do_check@Sys_var_gtid_purged@@UEAA_NPEAVTHD@@PEAVset_var@@@Z
?check_update_type@Sys_var_gtid_purged@@UEAA_NW4Item_result@@@Z
?global_value_ptr@Sys_var_gtid_purged@@UEAAPEAEPEAVTHD@@PEAUst_mysql_lex_string@@@Z
?session_value_ptr@Sys_var_gtid_purged@@UEAAPEAEPEAVTHD@@PEAUst_mysql_lex_string@@@Z
??1Sys_var_gtid_purged@@UEAA@XZ
??0Sys_var_gtid_owned@@QEAA@PEBD0@Z
?session_value_ptr@Sys_var_gtid_owned@@UEAAPEAEPEAVTHD@@PEAUst_mysql_lex_string@@@Z
?global_value_ptr@Sys_var_gtid_owned@@UEAAPEAEPEAVTHD@@PEAUst_mysql_lex_string@@@Z
??1Sys_var_gtid_owned@@UEAA@XZ
?is_mts_recovery@Relay_log_info@@QEBA_NXZ
??0?$Sys_var_integer@J$04$0BF@$00@@QEAA@PEBD0H_J_KUCMD_LINE@@JJJIPEAVPolyLock@@W4binlog_status_enum@sys_var@@P6A_NPEAV4@PEAVTHD@@PEAVset_var@@@ZP6A_N67W4enum_var_type@@@Z0H@Z
?do_check@?$Sys_var_integer@J$04$0BF@$00@@UEAA_NPEAVTHD@@PEAVset_var@@@Z
?session_update@?$Sys_var_integer@J$04$0BF@$00@@UEAA_NPEAVTHD@@PEAVset_var@@@Z
?global_update@?$Sys_var_integer@J$04$0BF@$00@@UEAA_NPEAVTHD@@PEAVset_var@@@Z
?check_update_type@?$Sys_var_integer@J$04$0BF@$00@@UEAA_NW4Item_result@@@Z
?session_save_default@?$Sys_var_integer@J$04$0BF@$00@@UEAAXPEAVTHD@@PEAVset_var@@@Z
?global_save_default@?$Sys_var_integer@J$04$0BF@$00@@UEAAXPEAVTHD@@PEAVset_var@@@Z
?max_var_ptr@?$Sys_var_integer@J$04$0BF@$00@@AEAAPEAJXZ
??1?$Sys_var_integer@J$04$0BF@$00@@UEAA@XZ
??0?$Sys_var_integer@K$05$02$0A@@@QEAA@PEBD0H_J_KUCMD_LINE@@KKKIPEAVPolyLock@@W4binlog_status_enum@sys_var@@P6A_NPEAV4@PEAVTHD@@PEAVset_var@@@ZP6A_N67W4enum_var_type@@@Z0H@Z
?do_check@?$Sys_var_integer@K$05$02$0A@@@UEAA_NPEAVTHD@@PEAVset_var@@@Z
?session_update@?$Sys_var_integer@K$05$02$0A@@@UEAA_NPEAVTHD@@PEAVset_var@@@Z
?global_update@?$Sys_var_integer@K$05$02$0A@@@UEAA_NPEAVTHD@@PEAVset_var@@@Z
?check_update_type@?$Sys_var_integer@K$05$02$0A@@@UEAA_NW4Item_result@@@Z
?session_save_default@?$Sys_var_integer@K$05$02$0A@@@UEAAXPEAVTHD@@PEAVset_var@@@Z
?global_save_default@?$Sys_var_integer@K$05$02$0A@@@UEAAXPEAVTHD@@PEAVset_var@@@Z
?max_var_ptr@?$Sys_var_integer@K$05$02$0A@@@AEAAPEAKXZ
??1?$Sys_var_integer@K$05$02$0A@@@UEAA@XZ
??0?$Sys_var_integer@H$03$01$0A@@@QEAA@PEBD0H_J_KUCMD_LINE@@HHHIPEAVPolyLock@@W4binlog_status_enum@sys_var@@P6A_NPEAV4@PEAVTHD@@PEAVset_var@@@ZP6A_N67W4enum_var_type@@@Z0H@Z
?do_check@?$Sys_var_integer@H$03$01$0A@@@UEAA_NPEAVTHD@@PEAVset_var@@@Z
?session_update@?$Sys_var_integer@H$03$01$0A@@@UEAA_NPEAVTHD@@PEAVset_var@@@Z
?global_update@?$Sys_var_integer@H$03$01$0A@@@UEAA_NPEAVTHD@@PEAVset_var@@@Z
?check_update_type@?$Sys_var_integer@H$03$01$0A@@@UEAA_NW4Item_result@@@Z
?session_save_default@?$Sys_var_integer@H$03$01$0A@@@UEAAXPEAVTHD@@PEAVset_var@@@Z
?global_save_default@?$Sys_var_integer@H$03$01$0A@@@UEAAXPEAVTHD@@PEAVset_var@@@Z
?max_var_ptr@?$Sys_var_integer@H$03$01$0A@@@AEAAPEAHXZ
??1?$Sys_var_integer@H$03$01$0A@@@UEAA@XZ
??0?$Sys_var_integer@_K$07$0BA@$0A@@@QEAA@PEBD0H_J_KUCMD_LINE@@222IPEAVPolyLock@@W4binlog_status_enum@sys_var@@P6A_NPEAV4@PEAVTHD@@PEAVset_var@@@ZP6A_N67W4enum_var_type@@@Z0H@Z
?do_check@?$Sys_var_integer@_K$07$0BA@$0A@@@UEAA_NPEAVTHD@@PEAVset_var@@@Z
?session_update@?$Sys_var_integer@_K$07$0BA@$0A@@@UEAA_NPEAVTHD@@PEAVset_var@@@Z
?global_update@?$Sys_var_integer@_K$07$0BA@$0A@@@UEAA_NPEAVTHD@@PEAVset_var@@@Z
?check_update_type@?$Sys_var_integer@_K$07$0BA@$0A@@@UEAA_NW4Item_result@@@Z
?session_save_default@?$Sys_var_integer@_K$07$0BA@$0A@@@UEAAXPEAVTHD@@PEAVset_var@@@Z
?global_save_default@?$Sys_var_integer@_K$07$0BA@$0A@@@UEAAXPEAVTHD@@PEAVset_var@@@Z
?max_var_ptr@?$Sys_var_integer@_K$07$0BA@$0A@@@AEAAPEA_KXZ
??1?$Sys_var_integer@_K$07$0BA@$0A@@@UEAA@XZ
?sql_mode_deprecation_warnings@@YAX_K@Z
?buf@?3??show_system_thread@@YAPEBDW4enum_thread_type@@@Z@4PADA DATA
?hexchar_to_int@@YAHD@Z
?find_set@@YA_KPEAUst_typelib@@PEBDIPEBUcharset_info_st@@PEAPEADPEAIPEA_N@Z
?find_type@@YAIPEBUst_typelib@@PEBDI_N@Z
?find_type2@@YAIPEBUst_typelib@@PEBDIPEBUcharset_info_st@@@Z
?unhex_type2@@YAXPEAUst_typelib@@@Z
?check_word@@YAIPEAUst_typelib@@PEBD1PEAPEBD@Z
?find_string_in_array@@YAHQEAUst_mysql_lex_string@@0QEAUcharset_info_st@@@Z
?flagset_to_string@@YAPEADPEAVTHD@@PEAUst_mysql_lex_string@@_KQEAPEBD@Z
?set_to_string@@YAPEADPEAVTHD@@PEAUst_mysql_lex_string@@_KQEAPEBD@Z
?strconvert@@YAIPEAUcharset_info_st@@PEBD0PEADIPEAI@Z
?view_type@@3Ust_mysql_lex_string@@B DATA
??0base_list@@QEAA@AEBV0@@Z
?set_type@MDL_request@@QEAAXW4enum_mdl_type@@@Z
??1?$SQL_I_List@UTABLE_LIST@@@@QEAA@XZ
??1st_ha_create_information@@QEAA@XZ
?ok@File_parser@@QEAADXZ
??1?$List@Ust_mysql_lex_string@@@@QEAA@XZ
??0?$List@UTABLE_LIST@@@@QEAA@XZ
??0?$List@UTABLE_LIST@@@@QEAA@AEBV0@@Z
?push_back@?$List@UTABLE_LIST@@@@QEAA_NPEAUTABLE_LIST@@@Z
??1?$List@UTABLE_LIST@@@@QEAA@XZ
??1?$List@VString@@@@QEAA@XZ
?is_started@Opt_trace_context@@QEBA_NXZ
?reset@sql_digest_storage@@QEAAXPEAEI@Z
?reset@sql_digest_storage@@QEAAXXZ
?reset@sql_digest_state@@QEAAXPEAEI@Z
??1?$List@VKey_part_spec@@@@QEAA@XZ
?copy@Name_string@@QEAAXPEBD_K@Z
?eq@Name_string@@QEBA_NPEBD@Z
?eq@Name_string@@QEBA_NV1@@Z
?set_autogenerated@Item_name_string@@QEAAX_N@Z
?is_autogenerated@Item_name_string@@QEBA_NXZ
?resolve_in_table_list_only@Name_resolution_context@@QEAAXPEAUTABLE_LIST@@@Z
??1Name_resolution_context@@QEAA@XZ
??1?$List@VItem_field@@@@QEAA@XZ
??1?$List@VAlter_drop@@@@QEAA@XZ
??1?$List@VAlter_column@@@@QEAA@XZ
??1?$List@VKey@@@@QEAA@XZ
??1?$List@VCreate_field@@@@QEAA@XZ
??1?$List@D@@QEAA@XZ
??1Alter_info@@QEAA@XZ
??3st_select_lex_node@@SAXPEAX_K@Z
??1st_select_lex_node@@UEAA@XZ
?set_lock_for_tables@st_select_lex_node@@UEAAXW4thr_lock_type@@@Z
?mysql_make_view@@YA_NPEAVTHD@@PEAUTABLE_SHARE@@PEAUTABLE_LIST@@_N@Z
?next_unit@st_select_lex_unit@@QEAAPEAV1@XZ
?is_union@st_select_lex_unit@@QEAA_NXZ
??1st_select_lex_unit@@UEAA@XZ
?push_back@?$SQL_I_List@Ust_order@@@@QEAAXPEAV1@@Z
??1?$SQL_I_List@Ust_order@@@@QEAA@XZ
??1?$List@VItem_func_match@@@@QEAA@XZ
??1?$List@VItem_outer_ref@@@@QEAA@XZ
??1?$List@Ust_udf_func@@@@QEAA@XZ
?first_inner_unit@st_select_lex@@QEAAPEAVst_select_lex_unit@@XZ
?next_select_in_list@st_select_lex@@QEAAPEAV1@XZ
??1st_select_lex@@UEAA@XZ
??1?$SQL_I_List@VSroutine_hash_entry@@@@QEAA@XZ
??1Query_tables_list@@QEAA@XZ
?set_stmt_unsafe_flags@Query_tables_list@@QEAAXI@Z
?get_stmt_unsafe_flags@Query_tables_list@@QEBAIXZ
??1?$List@Ust_lex_user@@@@QEAA@XZ
??1?$List@VLEX_COLUMN@@@@QEAA@XZ
??1?$List@V?$List@VItem@@@@@@QEAA@XZ
??1?$List@Vset_var_base@@@@QEAA@XZ
??1?$List@VItem_func_set_user_var@@@@QEAA@XZ
??1?$List@VItem_param@@@@QEAA@XZ
??1?$List@UName_resolution_context@@@@QEAA@XZ
??1LEX@@UEAA@XZ
??2st_lex_local@@SAPEAX_KPEAUst_mem_root@@@Z
??3st_lex_local@@SAXPEAX_K@Z
??3st_lex_local@@SAXPEAXPEAUst_mem_root@@@Z
??0st_lex_local@@QEAA@XZ
??1st_lex_local@@UEAA@XZ
?calloc@Query_arena@@QEAAPEAX_K@Z
?memdup@Query_arena@@QEAAPEAXPEBX_K@Z
?my_ok@@YAXPEAVTHD@@_K1PEBD@Z
?create_view_precheck@@YA_NPEAVTHD@@PEAUTABLE_LIST@@1W4enum_view_create_mode@@@Z
?mysql_create_view@@YA_NPEAVTHD@@PEAUTABLE_LIST@@W4enum_view_create_mode@@@Z
?mysql_drop_view@@YA_NPEAVTHD@@PEAUTABLE_LIST@@W4enum_drop_mode@@@Z
?check_key_in_view@@YA_NPEAVTHD@@PEAUTABLE_LIST@@@Z
?insert_view_fields@@YA_NPEAVTHD@@PEAV?$List@VItem@@@@PEAUTABLE_LIST@@@Z
?view_checksum@@YAHPEAVTHD@@PEAUTABLE_LIST@@@Z
?check_duplicate_names@@YA_NAEAV?$List@VItem@@@@_N@Z
?mysql_rename_view@@YA_NPEAVTHD@@PEBD1PEAUTABLE_LIST@@@Z
?find_table_in_global_list@@YAPEAUTABLE_LIST@@PEAU1@PEBD1@Z
??0Opt_trace_struct@@IEAA@PEAVOpt_trace_context@@_NPEBDW4feature_value@1@@Z
??1Opt_trace_struct@@IEAA@XZ
?add_utf8@Opt_trace_struct@@QEAAAEAV1@PEBD0_K@Z
?add_utf8@Opt_trace_struct@@QEAAAEAV1@PEBD0@Z
?add@Opt_trace_struct@@QEAAAEAV1@PEBD_N@Z
?add@Opt_trace_struct@@QEAAAEAV1@PEBDI@Z
??0Opt_trace_object@@QEAA@PEAVOpt_trace_context@@PEBDW4feature_value@1@@Z
??0Opt_trace_object@@QEAA@PEAVOpt_trace_context@@W4feature_value@1@@Z
??1Opt_trace_object@@QEAA@XZ
?rewind@?$List_iterator_fast@VItem@@@@QEAAXXZ
??0?$List_iterator_fast@Ust_mysql_lex_string@@@@QEAA@AEAV?$List@Ust_mysql_lex_string@@@@@Z
??E?$List_iterator_fast@Ust_mysql_lex_string@@@@QEAAPEAUst_mysql_lex_string@@H@Z
?rewind@?$List_iterator_fast@UTABLE_LIST@@@@QEAAXXZ
?head@?$List@VIndex_hint@@@@QEAAPEAVIndex_hint@@XZ
??_USql_alloc@@SAPEAX_K@Z
??_VSql_alloc@@SAXPEAX_K@Z
?concat@base_list@@QEAAXPEAV1@@Z
?head_ref@base_list@@QEAAPEAPEAXXZ
?is_empty@base_list@@QEBA_NXZ
?ref@base_list_iterator@@QEAAPEAPEAXXZ
??0?$SQL_I_List@UTABLE_LIST@@@@QEAA@XZ
?empty@?$SQL_I_List@UTABLE_LIST@@@@QEAAXXZ
?link_in_list@?$SQL_I_List@UTABLE_LIST@@@@QEAAXPEAUTABLE_LIST@@PEAPEAU2@@Z
?has_transactions@handler@@QEAA_NXZ
?placeholder@TABLE_LIST@@QEAA_NXZ
?head@?$List@VItem@@@@QEAAPEAVItem@@XZ
?head_ref@?$List@VItem@@@@QEAAPEAPEAVItem@@XZ
?concat@?$List@VItem@@@@QEAAXPEAV1@@Z
?inc_current_row_for_warning@Warning_info@@AEAAXXZ
?current_statement_warn_count@Warning_info@@AEBAKXZ
?current_statement_warn_count@Diagnostics_area@@QEBAKXZ
?inc_current_row_for_warning@Diagnostics_area@@QEAAXXZ
?get_warning_info@Diagnostics_area@@AEAAPEAVWarning_info@@XZ
?front@?$I_P_List@VWarning_info@@U?$I_P_List_adapter@VWarning_info@@$0IA@$0II@@@VI_P_List_counter@@V?$I_P_List_fast_push_back@VWarning_info@@@@@@QEAAPEAVWarning_info@@XZ
?has_insert_default_function@Field@@QEBA_NXZ
??2Field@@SAPEAX_K@Z
??2Field@@SAPEAX_KPEAUst_mem_root@@@Z
??3Field@@SAXPEAX_K@Z
??1Field@@UEAA@XZ
?store_packed@Field@@UEAA?AW4type_conversion_status@@_J@Z
?val_time_temporal@Field@@UEAA_JXZ
?val_date_temporal@Field@@UEAA_JXZ
?str_needs_quotes@Field@@UEAA_NXZ
?numeric_context_result_type@Field@@UEBA?AW4Item_result@@XZ
?cmp_type@Field@@UEBA?AW4Item_result@@XZ
?cast_to_int_type@Field@@UEBA?AW4Item_result@@XZ
?eq@Field@@UEAA_NPEAV1@@Z
?pack_length@Field@@UEBAIXZ
?pack_length_in_rec@Field@@UEBAIXZ
?pack_length_from_metadata@Field@@UEAAII@Z
?row_pack_length@Field@@UEBAIXZ
?save_field_metadata@Field@@UEAAHPEAE@Z
?data_length@Field@@UEAAIXZ
?sort_length@Field@@UEBAIXZ
?max_data_length@Field@@UEBAIXZ
?reset@Field@@UEAA?AW4type_conversion_status@@XZ
?reset_fields@Field@@UEAAXXZ
?store_timestamp@Field@@UEAAXPEBUtimeval@@@Z
?set_default@Field@@UEAAXXZ
?binary@Field@@UEBA_NXZ
?zero_pack@Field@@UEBA_NXZ
?key_type@Field@@UEBA?AW4ha_base_keytype@@XZ
?key_length@Field@@UEBAIXZ
?real_type@Field@@UEBA?AW4enum_field_types@@XZ
?binlog_type@Field@@UEBA?AW4enum_field_types@@XZ
?cmp_max@Field@@UEAAHPEBE0I@Z
?cmp_binary@Field@@UEAAHPEBE0I@Z
?cmp_offset@Field@@UEAAHI@Z
?cmp_binary_offset@Field@@UEAAHI@Z
?key_cmp@Field@@UEAAHPEBE0@Z
?key_cmp@Field@@UEAAHPEBEI@Z
?decimals@Field@@UEBAIXZ
?can_be_compared_as_longlong@Field@@UEBA_NXZ
?free@Field@@UEAAXXZ
?move_field_offset@Field@@UEAAX_J@Z
?get_image@Field@@UEAAXPEAEIPEBUcharset_info_st@@@Z
?set_image@Field@@UEAAXPEBEIPEBUcharset_info_st@@@Z
?get_key_image@Field@@UEAAIPEAEIW4imagetype@1@@Z
?set_key_image@Field@@UEAAXPEBEI@Z
?packed_col_length@Field@@UEAAIPEBEI@Z
?max_packed_col_length@Field@@UEAAII@Z
?charset@Field@@UEBAPEBUcharset_info_st@@XZ
?charset_for_protocol@Field@@UEBAPEBUcharset_info_st@@XZ
?sort_charset@Field@@UEBAPEBUcharset_info_st@@XZ
?has_charset@Field@@UEBA_NXZ
?match_collation_to_optimize_range@Field@@UEBA_NXZ
?derivation@Field@@UEBA?AW4Derivation@@XZ
?repertoire@Field@@UEBAIXZ
?set_derivation@Field@@UEAAXW4Derivation@@@Z
?char_length@Field@@UEAAIXZ
?get_geometry_type@Field@@UEAA?AW4geometry_type@1@XZ
?validate_stored_val@Field@@UEAA?AW4type_conversion_status@@PEAVTHD@@@Z
?do_save_field_metadata@Field@@EEAAHPEAE@Z
??0Field@@QEAA@AEBV0@@Z
?result_type@Field_str@@UEBA?AW4Item_result@@XZ
?numeric_context_result_type@Field_str@@UEBA?AW4Item_result@@XZ
?decimals@Field_str@@UEBAIXZ
?repertoire@Field_str@@UEBAIXZ
?charset@Field_str@@UEBAPEBUcharset_info_st@@XZ
?derivation@Field_str@@UEBA?AW4Derivation@@XZ
?set_derivation@Field_str@@UEAAXW4Derivation@@@Z
?binary@Field_str@@UEBA_NXZ
?max_display_length@Field_str@@UEAAIXZ
?str_needs_quotes@Field_str@@UEAA_NXZ
??1Field_str@@UEAA@XZ
??0Field_str@@QEAA@AEBV0@@Z
??0Field_longstr@@QEAA@PEAEI0EW4utype@Field@@PEBDPEBUcharset_info_st@@@Z
??1Field_longstr@@UEAA@XZ
??0Field_longstr@@QEAA@AEBV0@@Z
??0Field_string@@QEAA@I_NPEBDPEBUcharset_info_st@@@Z
?type@Field_string@@UEBA?AW4enum_field_types@@XZ
?match_collation_to_optimize_range@Field_string@@UEBA_NXZ
?key_type@Field_string@@UEBA?AW4ha_base_keytype@@XZ
?zero_pack@Field_string@@UEBA_NXZ
?reset@Field_string@@UEAA?AW4type_conversion_status@@XZ
?store@Field_string@@UEAA?AW4type_conversion_status@@N@Z
?pack_length_from_metadata@Field_string@@UEAAII@Z
?row_pack_length@Field_string@@UEBAIXZ
?real_type@Field_string@@UEBA?AW4enum_field_types@@XZ
?has_charset@Field_string@@UEBA_NXZ
?clone@Field_string@@UEBAPEAV1@PEAUst_mem_root@@@Z
?clone@Field_string@@UEBAPEAV1@XZ
??1Field_string@@UEAA@XZ
??0Field_string@@QEAA@AEBV0@@Z
??0Copy_field@@QEAA@XZ
??1Copy_field@@QEAA@XZ
??0Statistics@COPY_INFO@@QEAA@XZ
??0COPY_INFO@@QEAA@W4operation_type@0@PEAV?$List@VItem@@@@1@Z
?add_function_default_columns@COPY_INFO@@QEAA_NPEAUTABLE@@PEAUst_bitmap@@@Z
?function_defaults_apply@COPY_INFO@@QEBA_NPEBUTABLE@@@Z
??1COPY_INFO@@UEAA@XZ
?has_triggers@Table_triggers_list@@QEAA_NW4trg_event_type@@W4trg_action_time_type@@@Z
?has_update_triggers@Table_triggers_list@@QEAA_NXZ
??0?$Bounds_checked_array@PEAVItem@@@@QEAA@XZ
?is_stmt_prepare@Query_arena@@QEBA_NXZ
?mark_modified_non_trans_table@THD_TRANS@@QEAAXXZ
?is_strict_mode@THD@@QEBA_NXZ
?change_item_tree@THD@@QEAAXPEAPEAVItem@@PEAV2@@Z
??1select_result@@UEAA@XZ
?prepare@select_result@@UEAAHAEAV?$List@VItem@@@@PEAVst_select_lex_unit@@@Z
?prepare2@select_result@@UEAAHXZ
?field_count@select_result@@UEBAIAEAV?$List@VItem@@@@@Z
?initialize_tables@select_result@@UEAA_NPEAVJOIN@@@Z
?abort_result_set@select_result@@UEAAXXZ
??0select_result_interceptor@@QEAA@XZ
?field_count@select_result_interceptor@@UEBAIAEAV?$List@VItem@@@@@Z
?send_result_set_metadata@select_result_interceptor@@UEAA_NAEAV?$List@VItem@@@@I@Z
??1select_result_interceptor@@UEAA@XZ
?cleanup@TMP_TABLE_PARAM@@QEAAXXZ
??0?$List@UTABLE@@@@QEAA@XZ
?push_back@?$List@UTABLE@@@@QEAA_NPEAUTABLE@@@Z
??1?$List@UTABLE@@@@QEAA@XZ
??0multi_update@@QEAA@PEAUTABLE_LIST@@0PEAV?$List@VItem@@@@1W4enum_duplicates@@_N@Z
??1multi_update@@UEAA@XZ
?prepare@multi_update@@UEAAHAEAV?$List@VItem@@@@PEAVst_select_lex_unit@@@Z
?send_data@multi_update@@UEAA_NAEAV?$List@VItem@@@@@Z
?initialize_tables@multi_update@@UEAA_NPEAVJOIN@@@Z
?send_error@multi_update@@UEAAXIPEBD@Z
?do_updates@multi_update@@QEAAHXZ
?send_eof@multi_update@@UEAA_NXZ
?abort_result_set@multi_update@@UEAAXXZ
?mysql_prepare_update@@YA_NPEAVTHD@@PEAUTABLE_LIST@@PEAPEAVItem@@IPEAUst_order@@@Z
?mysql_update@@YAHPEAVTHD@@PEAUTABLE_LIST@@AEAV?$List@VItem@@@@2PEAVItem@@IPEAUst_order@@_KW4enum_duplicates@@_NPEA_K8@Z
?mysql_multi_update@@YA_NPEAVTHD@@PEAUTABLE_LIST@@PEAV?$List@VItem@@@@2PEAVItem@@_KW4enum_duplicates@@_NPEAVst_select_lex_unit@@PEAVst_select_lex@@PEAPEAVmulti_update@@@Z
?records_are_comparable@@YA_NPEBUTABLE@@@Z
?compare_records@@YA_NPEBUTABLE@@@Z
?setup_fields_with_no_wrap@@YA_NPEAVTHD@@V?$Bounds_checked_array@PEAVItem@@@@AEAV?$List@VItem@@@@W4enum_mark_columns@@PEAV3@_N@Z
?mysql_multi_update_prepare@@YAHPEAVTHD@@@Z
?set_quick@SQL_SELECT@@QEAAXPEAVQUICK_SELECT_I@@@Z
?check_quick@SQL_SELECT@@QEAA_NPEAVTHD@@_N_K@Z
?skip_record@SQL_SELECT@@QEAA_NPEAVTHD@@PEA_N@Z
??0Filesort@@QEAA@PEAUst_order@@_KPEAVSQL_SELECT@@@Z
??1Filesort@@QEAA@XZ
?add_utf8_table@Opt_trace_struct@@QEAAAEAV1@PEBUTABLE@@@Z
??0?$List_iterator@VItem@@@@QEAA@AEAV?$List@VItem@@@@@Z
??E?$List_iterator@VItem@@@@QEAAPEAVItem@@H@Z
?ref@?$List_iterator@VItem@@@@QEAAPEAPEAVItem@@XZ
??0?$List_iterator_fast@UTABLE@@@@QEAA@AEAV?$List@UTABLE@@@@@Z
??E?$List_iterator_fast@UTABLE@@@@QEAAPEAUTABLE@@H@Z
?rewind@?$List_iterator_fast@UTABLE@@@@QEAAXXZ
?mysql_union@@YA_NPEAVTHD@@PEAULEX@@PEAVselect_result@@PEAVst_select_lex_unit@@K@Z
?val_uint@Item@@QEAA_KXZ
?reset@?$Bounds_checked_array@PEAVItem@@@@QEAAXXZ
?is_null@?$Bounds_checked_array@PEAVItem@@@@QEBA_NXZ
?assigned@Item_subselect@@QEBA_NXZ
?assigned@Item_subselect@@QEAAX_N@Z
?prepare@st_select_lex_unit@@QEAA_NPEAVTHD@@PEAVselect_result@@K@Z
?optimize@st_select_lex_unit@@QEAA_NXZ
?exec@st_select_lex_unit@@QEAA_NXZ
?explain@st_select_lex_unit@@QEAA_NXZ
?cleanup@st_select_lex_unit@@QEAA_NXZ
?cleanup_level@st_select_lex_unit@@QEAA_NXZ
?reinit_exec_mechanism@st_select_lex_unit@@QEAAXXZ
?init_prepare_fake_select_lex@st_select_lex_unit@@QEAA_NPEAVTHD@@_N@Z
?change_result@st_select_lex_unit@@QEAA_NPEAVselect_result_interceptor@@0@Z
?get_unit_column_types@st_select_lex_unit@@QEAAPEAV?$List@VItem@@@@XZ
?get_field_list@st_select_lex_unit@@QEAAPEAV?$List@VItem@@@@XZ
??0?$List@VItem_func_match@@@@QEAA@XZ
?cleanup@st_select_lex@@QEAA_NXZ
?cleanup_level@st_select_lex@@QEAA_NXZ
?cleanup_all_joins@st_select_lex@@QEAAX_N@Z
?is_query_tables_locked@Query_tables_list@@QEAA_NXZ
?get_examined_row_count@THD@@QEBA_KXZ
??0TMP_TABLE_PARAM@@QEAA@XZ
??1TMP_TABLE_PARAM@@QEAA@XZ
??0select_union@@QEAA@XZ
?prepare@select_union@@UEAAHAEAV?$List@VItem@@@@PEAVst_select_lex_unit@@@Z
?send_data@select_union@@UEAA_NAEAV?$List@VItem@@@@@Z
?send_eof@select_union@@UEAA_NXZ
?flush@select_union@@QEAA_NXZ
?cleanup@select_union@@UEAAXXZ
?create_result_table@select_union@@QEAA_NPEAVTHD@@PEAV?$List@VItem@@@@_N_KPEBD22@Z
??1select_union@@UEAA@XZ
??0Explain_format_flags@@QEAA@XZ
??0?$Bounds_checked_array@PEAVItem_null_result@@@@QEAA@XZ
??0st_rollup@@QEAA@XZ
??0?$List@VCached_item@@@@QEAA@XZ
??1?$List@VCached_item@@@@QEAA@XZ
??0?$Mem_root_array@VKey_use@@$00@@QEAA@PEAUst_mem_root@@@Z
??1?$Mem_root_array@VKey_use@@$00@@QEAA@XZ
?clear@?$Mem_root_array@VKey_use@@$00@@QEAAXXZ
?chop@?$Mem_root_array@VKey_use@@$00@@QEAAX_K@Z
?empty@?$Mem_root_array@VKey_use@@$00@@QEBA_NXZ
?size@?$Mem_root_array@VKey_use@@$00@@QEBA_KXZ
??0ORDER_with_src@JOIN@@QEAA@XZ
?clean@ORDER_with_src@JOIN@@QEAAXXZ
??0?$Mem_root_array@PEAVItem_exists_subselect@@$00@@QEAA@PEAUst_mem_root@@@Z
??1?$Mem_root_array@PEAVItem_exists_subselect@@$00@@QEAA@XZ
?clear@?$Mem_root_array@PEAVItem_exists_subselect@@$00@@QEAAXXZ
?chop@?$Mem_root_array@PEAVItem_exists_subselect@@$00@@QEAAX_K@Z
?empty@?$Mem_root_array@PEAVItem_exists_subselect@@$00@@QEBA_NXZ
?size@?$Mem_root_array@PEAVItem_exists_subselect@@$00@@QEBA_KXZ
??0?$List@VSemijoin_mat_exec@@@@QEAA@XZ
??1?$List@VSemijoin_mat_exec@@@@QEAA@XZ
??0JOIN@@QEAA@PEAVTHD@@AEAV?$List@VItem@@@@_KPEAVselect_result@@@Z
?init@JOIN@@QEAAXPEAVTHD@@AEAV?$List@VItem@@@@_KPEAVselect_result@@@Z
??1JOIN@@QEAA@XZ
??_9Item@@$BCLA@AA
??_9Item@@$BDFA@AA
?udf_init@@YAXXZ
?udf_free@@YAXXZ
?find_udf@@YAPEAUst_udf_func@@PEBDI_N@Z
?free_udf@@YAXPEAUst_udf_func@@@Z
?mysql_create_function@@YAHPEAVTHD@@PEAUst_udf_func@@@Z
?mysql_drop_function@@YAHPEAVTHD@@PEBUst_mysql_lex_string@@@Z
get_hash_key
?chop@String@@QEAAXXZ
??0base_list_iterator@@QEAA@XZ
??0st_ha_create_information@@QEAA@XZ
?is_temporary_table@@YA_NPEAUTABLE_LIST@@@Z
?execute@Sql_cmd_truncate_table@@UEAA_NPEAVTHD@@@Z
?lock_table@Sql_cmd_truncate_table@@IEAA_NPEAVTHD@@PEAUTABLE_LIST@@PEA_N@Z
?handler_truncate@Sql_cmd_truncate_table@@IEAA?AW4truncate_result@1@PEAVTHD@@PEAUTABLE_LIST@@_N@Z
?truncate_table@Sql_cmd_truncate_table@@IEAA_NPEAVTHD@@PEAUTABLE_LIST@@@Z
??0?$List@Ust_foreign_key_info@@@@QEAA@XZ
??1?$List@Ust_foreign_key_info@@@@QEAA@XZ
??0?$List_iterator_fast@Ust_foreign_key_info@@@@QEAA@XZ
?init@?$List_iterator_fast@Ust_foreign_key_info@@@@QEAAXAEAV?$List@Ust_foreign_key_info@@@@@Z
??E?$List_iterator_fast@Ust_foreign_key_info@@@@QEAAPEAUst_foreign_key_info@@H@Z
?sql_modes_parameters@@3UFile_option@@A DATA
?trg_action_time_type_names@@3QBUst_mysql_lex_string@@B DATA
?trg_event_type_names@@3QBUst_mysql_lex_string@@B DATA
?TRG_EXT@@3QEBDEB DATA
?TRN_EXT@@3QEBDEB DATA
??1list_node@@QEAA@XZ
?remove@base_list@@QEAAXPEAPEAUlist_node@@@Z
?remove@base_list_iterator@@QEAAXXZ
??0Discrete_interval@@QEAA@XZ
??0Discrete_intervals_list@@QEAA@XZ
??1Discrete_intervals_list@@QEAA@XZ
?set_charset@String@@QEAAXPEBUcharset_info_st@@@Z
?mdl_key_init@MDL_key@@QEAAXW4enum_mdl_namespace@1@PEBD1@Z
??0MDL_key@@QEAA@W4enum_mdl_namespace@0@PEBD1@Z
??0?$List@Ust_mysql_lex_string@@@@QEAA@XZ
?push_back@?$List@Ust_mysql_lex_string@@@@QEAA_NPEAUst_mysql_lex_string@@PEAUst_mem_root@@@Z
??0?$List@_K@@QEAA@XZ
?push_back@?$List@_K@@QEAA_NPEA_KPEAUst_mem_root@@@Z
??1?$List@_K@@QEAA@XZ
??0Table_triggers_list@@QEAA@PEAUTABLE@@@Z
??1Table_triggers_list@@QEAA@XZ
?create_trigger@Table_triggers_list@@QEAA_NPEAVTHD@@PEAUTABLE_LIST@@PEAVString@@@Z
?drop_trigger@Table_triggers_list@@QEAA_NPEAVTHD@@PEAUTABLE_LIST@@PEAVString@@@Z
?process_triggers@Table_triggers_list@@QEAA_NPEAVTHD@@W4trg_event_type@@W4trg_action_time_type@@_N@Z
?get_trigger_info@Table_triggers_list@@QEAA_NPEAVTHD@@W4trg_event_type@@W4trg_action_time_type@@PEAUst_mysql_lex_string@@3PEA_K3333@Z
?get_trigger_info@Table_triggers_list@@QEAAXPEAVTHD@@HPEAUst_mysql_lex_string@@PEA_K1111@Z
?find_trigger_by_name@Table_triggers_list@@QEAAHPEBUst_mysql_lex_string@@@Z
?check_n_load@Table_triggers_list@@SA_NPEAVTHD@@PEBD1PEAUTABLE@@_N@Z
?drop_all_triggers@Table_triggers_list@@SA_NPEAVTHD@@PEAD1@Z
?change_table_name@Table_triggers_list@@SA_NPEAVTHD@@PEBD1111@Z
?set_table@Table_triggers_list@@QEAAXPEAUTABLE@@@Z
?mark_fields_used@Table_triggers_list@@QEAAXW4trg_event_type@@@Z
?set_parse_error_message@Table_triggers_list@@QEAAXPEAD@Z
?add_tables_and_routines_for_triggers@Table_triggers_list@@QEAA_NPEAVTHD@@PEAVQuery_tables_list@@PEAUTABLE_LIST@@@Z
?is_fields_updated_in_trigger@Table_triggers_list@@QEAA_NPEAUst_bitmap@@W4trg_event_type@@W4trg_action_time_type@@@Z
?prepare_record1_accessors@Table_triggers_list@@AEAA_NXZ
?change_table_name_in_trignames@Table_triggers_list@@AEAAPEAUst_mysql_lex_string@@PEBD0PEAU2@1@Z
?change_table_name_in_triggers@Table_triggers_list@@AEAA_NPEAVTHD@@PEBD1PEAUst_mysql_lex_string@@2@Z
?check_for_broken_triggers@Table_triggers_list@@AEAA_NXZ
?add_table_for_trigger@@YA_NPEAVTHD@@PEBVsp_name@@_NPEAPEAUTABLE_LIST@@@Z
?build_trn_path@@YAXPEAVTHD@@PEBVsp_name@@PEAUst_mysql_lex_string@@@Z
?check_trn_exists@@YA_NPEBUst_mysql_lex_string@@@Z
?load_table_name_for_trigger@@YA_NPEAVTHD@@PEBVsp_name@@PEBUst_mysql_lex_string@@PEAU3@@Z
?mysql_create_or_drop_trigger@@YA_NPEAVTHD@@PEAUTABLE_LIST@@_N@Z
??0?$SQL_I_List@VSroutine_hash_entry@@@@QEAA@XZ
?empty@?$SQL_I_List@VSroutine_hash_entry@@@@QEAAXXZ
??0Query_tables_list@@QEAA@XZ
??0Sub_statement_state@@QEAA@XZ
??1Sub_statement_state@@QEAA@XZ
?reset_db@THD@@QEAAXPEAD_K@Z
??0Stored_program_creation_ctx@@IEAA@PEAVTHD@@@Z
?get_creation_ctx@sp_head@@QEAAPEAVStored_program_creation_ctx@@XZ
?name@sp_head@@QEBAPEADPEAI@Z
?propagate_attributes@sp_head@@QEAAXPEAVQuery_tables_list@@@Z
?open_n_lock_single_table@@YAPEAUTABLE@@PEAVTHD@@PEAUTABLE_LIST@@W4thr_lock_type@@I@Z
??$alloc_type@Ust_mysql_lex_string@@@@YAPEAUst_mysql_lex_string@@PEAUst_mem_root@@@Z
??$alloc_type@_K@@YAPEA_KPEAUst_mem_root@@@Z
?alloc_lex_string@@YAPEAUst_mysql_lex_string@@PEAUst_mem_root@@@Z
?create@Trigger_creation_ctx@@SAPEAV1@PEAVTHD@@PEBD1PEBUst_mysql_lex_string@@22@Z
?clone@Trigger_creation_ctx@@UEAAPEAVStored_program_creation_ctx@@PEAUst_mem_root@@@Z
?create_backup_ctx@Trigger_creation_ctx@@MEBAPEAVObject_creation_ctx@@PEAVTHD@@@Z
??0Trigger_creation_ctx@@AEAA@PEAVTHD@@@Z
??0Trigger_creation_ctx@@AEAA@PEBUcharset_info_st@@00@Z
??1Trigger_creation_ctx@@UEAA@XZ
??0Handle_old_incorrect_sql_modes_hook@@QEAA@PEAD@Z
?process_unknown_string@Handle_old_incorrect_sql_modes_hook@@UEAA_NAEAPEBDPEAEPEAUst_mem_root@@PEBD@Z
??1Handle_old_incorrect_sql_modes_hook@@UEAA@XZ
??0Handle_old_incorrect_trigger_table_hook@@QEAA@PEADPEAUst_mysql_lex_string@@@Z
?process_unknown_string@Handle_old_incorrect_trigger_table_hook@@UEAA_NAEAPEBDPEAEPEAUst_mem_root@@PEBD@Z
??1Handle_old_incorrect_trigger_table_hook@@UEAA@XZ
??0Deprecated_trigger_syntax_handler@@QEAA@XZ
?handle_condition@Deprecated_trigger_syntax_handler@@UEAA_NPEAVTHD@@IPEBDW4enum_warning_level@Sql_condition@@1PEAPEAV4@@Z
?get_trigger_name@Deprecated_trigger_syntax_handler@@QEAAPEAUst_mysql_lex_string@@XZ
?get_error_message@Deprecated_trigger_syntax_handler@@QEAAPEADXZ
??1Deprecated_trigger_syntax_handler@@UEAA@XZ
?rewind@?$List_iterator_fast@Ust_mysql_lex_string@@@@QEAAXXZ
??0?$List_iterator@_K@@QEAA@AEAV?$List@_K@@@Z
??E?$List_iterator@_K@@QEAAPEA_KH@Z
?remove@?$List_iterator@_K@@QEAAXXZ
??0?$List_iterator@Ust_mysql_lex_string@@@@QEAA@AEAV?$List@Ust_mysql_lex_string@@@@@Z
??E?$List_iterator@Ust_mysql_lex_string@@@@QEAAPEAUst_mysql_lex_string@@H@Z
?remove@?$List_iterator@Ust_mysql_lex_string@@@@QEAAXXZ
??0?$List_iterator_fast@_K@@QEAA@AEAV?$List@_K@@@Z
??E?$List_iterator_fast@_K@@QEAAPEA_KH@Z
??_USql_alloc@@SAPEAX_KPEAUst_mem_root@@@Z
??_VSql_alloc@@SAXPEAXPEAUst_mem_root@@@Z
??0String@@QEAA@AEBV0@@Z
?ha_index_or_rnd_end@handler@@QEAAHXZ
?max_key_parts@handler@@QEBAIXZ
?max_key_length@handler@@QEBAIXZ
??4Filesort_buffer@@QEAAAEAV0@AEBV0@@Z
??4Table_id@@QEAAXAEBV0@@Z
??4Filesort_info@@QEAAAEAV0@AEBV0@@Z
??4TABLE_SHARE@@QEAAAEAU0@AEBU0@@Z
?set_created@TABLE@@QEAAXXZ
?set_deleted@TABLE@@QEAAXXZ
??4TABLE@@QEAAAEAU0@AEBU0@@Z
??3Field@@SAXPEAXPEAUst_mem_root@@@Z
?is_real_null@Field@@QEBA_N_J@Z
?maybe_null@Field@@QEBA_NXZ
?new_key_field@Field@@QEAAPEAV1@PEAUst_mem_root@@PEAUTABLE@@PEAE@Z
?move_field@Field@@QEAAXPEAE0E@Z
?move_field@Field@@QEAAXPEAE@Z
?handle_int32@Field@@KAXPEAEPEBE_N2@Z
?handle_int64@Field@@KAXPEAEPEBE_N2@Z
?pack_int32@Field@@IEAAPEAEPEAEPEBE_N@Z
?unpack_int32@Field@@IEAAPEBEPEAEPEBE_N@Z
?pack_int64@Field@@IEAAPEAEPEAEPEBE_N@Z
?unpack_int64@Field@@IEAAPEBEPEAEPEBE_N@Z
?result_type@Field_num@@UEBA?AW4Item_result@@XZ
?derivation@Field_num@@UEBA?AW4Derivation@@XZ
?repertoire@Field_num@@UEBAIXZ
?charset@Field_num@@UEBAPEBUcharset_info_st@@XZ
?decimals@Field_num@@UEBAIXZ
?row_pack_length@Field_num@@UEBAIXZ
?pack_length_from_metadata@Field_num@@UEAAII@Z
??1Field_num@@UEAA@XZ
??0Field_num@@QEAA@AEBV0@@Z
??0Field_real@@QEAA@PEAEI0EW4utype@Field@@PEBDE_N3@Z
?max_display_length@Field_real@@UEAAIXZ
??1Field_real@@UEAA@XZ
??0Field_real@@QEAA@AEBV0@@Z
??0Field_long@@QEAA@I_NPEBD0@Z
?result_type@Field_long@@UEBA?AW4Item_result@@XZ
?type@Field_long@@UEBA?AW4enum_field_types@@XZ
?key_type@Field_long@@UEBA?AW4ha_base_keytype@@XZ
?reset@Field_long@@UEAA?AW4type_conversion_status@@XZ
?pack_length@Field_long@@UEBAIXZ
?max_display_length@Field_long@@UEAAIXZ
?clone@Field_long@@UEBAPEAV1@PEAUst_mem_root@@@Z
?clone@Field_long@@UEBAPEAV1@XZ
?pack@Field_long@@UEAAPEAEPEAEPEBEI_N@Z
?unpack@Field_long@@UEAAPEBEPEAEPEBEI_N@Z
??1Field_long@@UEAA@XZ
??0Field_long@@QEAA@AEBV0@@Z
??0Field_longlong@@QEAA@I_NPEBD0@Z
?result_type@Field_longlong@@UEBA?AW4Item_result@@XZ
?type@Field_longlong@@UEBA?AW4enum_field_types@@XZ
?key_type@Field_longlong@@UEBA?AW4ha_base_keytype@@XZ
?reset@Field_longlong@@UEAA?AW4type_conversion_status@@XZ
?pack_length@Field_longlong@@UEBAIXZ
?can_be_compared_as_longlong@Field_longlong@@UEBA_NXZ
?max_display_length@Field_longlong@@UEAAIXZ
?clone@Field_longlong@@UEBAPEAV1@PEAUst_mem_root@@@Z
?clone@Field_longlong@@UEBAPEAV1@XZ
?pack@Field_longlong@@UEAAPEAEPEAEPEBEI_N@Z
?unpack@Field_longlong@@UEAAPEBEPEAEPEBEI_N@Z
??1Field_longlong@@UEAA@XZ
??0Field_longlong@@QEAA@AEBV0@@Z
??0Field_double@@QEAA@I_NPEBDED@Z
?type@Field_double@@UEBA?AW4enum_field_types@@XZ
?key_type@Field_double@@UEBA?AW4ha_base_keytype@@XZ
?reset@Field_double@@UEAA?AW4type_conversion_status@@XZ
?pack_length@Field_double@@UEBAIXZ
?row_pack_length@Field_double@@UEBAIXZ
?clone@Field_double@@UEBAPEAV1@PEAUst_mem_root@@@Z
?clone@Field_double@@UEBAPEAV1@XZ
??1Field_double@@UEAA@XZ
??0Field_double@@QEAA@AEBV0@@Z
??0Field_string@@QEAA@PEAEI0EW4utype@Field@@PEBDPEBUcharset_info_st@@@Z
??0Field_varstring@@QEAA@I_NPEBDPEAUTABLE_SHARE@@PEBUcharset_info_st@@@Z
?type@Field_varstring@@UEBA?AW4enum_field_types@@XZ
?match_collation_to_optimize_range@Field_varstring@@UEBA_NXZ
?row_pack_length@Field_varstring@@UEBAIXZ
?zero_pack@Field_varstring@@UEBA_NXZ
?reset@Field_varstring@@UEAA?AW4type_conversion_status@@XZ
?pack_length@Field_varstring@@UEBAIXZ
?key_length@Field_varstring@@UEBAIXZ
?sort_length@Field_varstring@@UEBAIXZ
?store@Field_varstring@@UEAA?AW4type_conversion_status@@N@Z
?cmp@Field_varstring@@UEAAHPEBE0@Z
?real_type@Field_varstring@@UEBA?AW4enum_field_types@@XZ
?has_charset@Field_varstring@@UEBA_NXZ
?clone@Field_varstring@@UEBAPEAV1@PEAUst_mem_root@@@Z
?clone@Field_varstring@@UEBAPEAV1@XZ
??1Field_varstring@@UEAA@XZ
??0Field_varstring@@QEAA@AEBV0@@Z
??0Field_blob@@QEAA@I_NPEBDPEBUcharset_info_st@@@Z
?type@Field_blob@@UEBA?AW4enum_field_types@@XZ
?match_collation_to_optimize_range@Field_blob@@UEBA_NXZ
?key_type@Field_blob@@UEBA?AW4ha_base_keytype@@XZ
?cmp@Field_blob@@UEAAHPEBE0@Z
?key_length@Field_blob@@UEBAIXZ
?pack_length@Field_blob@@UEBAIXZ
?pack_length_no_ptr@Field_blob@@QEBAIXZ
?row_pack_length@Field_blob@@UEBAIXZ
?max_data_length@Field_blob@@UEBAIXZ
?reset@Field_blob@@UEAA?AW4type_conversion_status@@XZ
?reset_fields@Field_blob@@UEAAXXZ
?clone@Field_blob@@UEBAPEAV1@PEAUst_mem_root@@@Z
?clone@Field_blob@@UEBAPEAV1@XZ
?free@Field_blob@@UEAAXXZ
?has_charset@Field_blob@@UEBA_NXZ
??1Field_blob@@UEAA@XZ
??0Field_blob@@QEAA@AEBV0@@Z
?set_bit_ptr@Field_bit@@QEAAXPEAEE@Z
?get_arg@Item_sum@@QEAAPEAVItem@@I@Z
?get_arg_count@Item_sum@@QEBAIXZ
?get_sp_result_field@Item_func_sp@@QEAAPEAVField@@XZ
?get_item@Item_copy@@QEAAPEAVItem@@XZ
?free_tmp_table@@YAXPEAVTHD@@PEAUTABLE@@@Z
?create_tmp_table@@YAPEAUTABLE@@PEAVTHD@@PEAVTMP_TABLE_PARAM@@AEAV?$List@VItem@@@@PEAUst_order@@_N4_K5PEBD@Z
?create_virtual_tmp_table@@YAPEAUTABLE@@PEAVTHD@@AEAV?$List@VCreate_field@@@@@Z
?create_myisam_from_heap@@YA_NPEAVTHD@@PEAUTABLE@@PEAUst_columndef@@PEAPEAU3@H_NPEA_N@Z
?create_duplicate_weedout_tmp_table@@YAPEAUTABLE@@PEAVTHD@@IPEAVSJ_TMP_TABLE@@@Z
?instantiate_tmp_table@@YA_NPEAUTABLE@@PEAUst_key@@PEAUst_columndef@@PEAPEAU3@_KDPEAVOpt_trace_context@@@Z
?create_tmp_field@@YAPEAVField@@PEAVTHD@@PEAUTABLE@@PEAVItem@@W4Type@4@PEAPEAPEAV4@PEAPEAV1@5_N666@Z
?create_tmp_field_from_field@@YAPEAVField@@PEAVTHD@@PEAV1@PEBDPEAUTABLE@@PEAVItem_field@@@Z
?add_alnum@Opt_trace_struct@@QEAAAEAV1@PEBD0@Z
?add@Opt_trace_struct@@QEAAAEAV1@PEBDK@Z
?add@Opt_trace_struct@@QEAAAEAV1@PEBD_K@Z
??0?$List_iterator_fast@VCreate_field@@@@QEAA@AEAV?$List@VCreate_field@@@@@Z
??E?$List_iterator_fast@VCreate_field@@@@QEAAPEAVCreate_field@@H@Z
?open_tmp_table@@YA_NPEAUTABLE@@@Z
?create_myisam_tmp_table@@YA_NPEAUTABLE@@PEAUst_key@@PEAUst_columndef@@PEAPEAU3@_KD@Z
?trace_tmp_table@@YAXPEAVOpt_trace_context@@PEBUTABLE@@@Z
?known_date_time_formats@@3PAUst_known_date_time_format@@A DATA
?interval_type_to_name@@3PAUst_mysql_lex_string@@A DATA
?check_result@@YAHIH@Z
?my_decimal2lldiv_t@@YAHIPEBVmy_decimal@@PEAU_lldiv_t@@@Z
??0ErrConvString@@QEAA@_J@Z
?convert_period_to_month@@YAKK@Z
?convert_month_to_period@@YAKK@Z
?mix_date_and_time@@YAXPEAUst_mysql_time@@PEBU1@@Z
?get_date_from_daynr@@YAXJPEAI00@Z
?TIME_to_timestamp@@YAJPEAVTHD@@PEBUst_mysql_time@@PEAD@Z
?datetime_with_no_zero_in_date_to_timeval@@YA_NPEAVTHD@@PEBUst_mysql_time@@PEAUtimeval@@PEAH@Z
?datetime_to_timeval@@YA_NPEAVTHD@@PEBUst_mysql_time@@PEAUtimeval@@PEAH@Z
?str_to_datetime_with_warn@@YA_NPEAVString@@PEAUst_mysql_time@@I@Z
?my_decimal_to_datetime_with_warn@@YA_NPEBVmy_decimal@@PEAUst_mysql_time@@I@Z
?my_double_to_datetime_with_warn@@YA_NNPEAUst_mysql_time@@I@Z
?my_longlong_to_datetime_with_warn@@YA_N_JPEAUst_mysql_time@@I@Z
?my_decimal_to_time_with_warn@@YA_NPEBVmy_decimal@@PEAUst_mysql_time@@@Z
?my_double_to_time_with_warn@@YA_NNPEAUst_mysql_time@@@Z
?my_longlong_to_time_with_warn@@YA_N_JPEAUst_mysql_time@@@Z
?str_to_time_with_warn@@YA_NPEAVString@@PEAUst_mysql_time@@@Z
?time_to_datetime@@YAXPEAVTHD@@PEBUst_mysql_time@@PEAU2@@Z
?make_truncated_value_warning@@YAXPEAVTHD@@W4enum_warning_level@Sql_condition@@VErrConvString@@W4enum_mysql_timestamp_type@@PEBD@Z
?make_truncated_value_warning@@YAXVErrConvString@@W4enum_mysql_timestamp_type@@@Z
?date_time_format_make@@YAPEAUst_date_time_format@@W4enum_mysql_timestamp_type@@PEBDI@Z
?date_time_format_copy@@YAPEAUst_date_time_format@@PEAVTHD@@PEAU1@@Z
?get_date_time_format_str@@YAPEBDPEAUst_known_date_time_format@@W4enum_mysql_timestamp_type@@@Z
?make_date@@YAXPEBUst_date_time_format@@PEBUst_mysql_time@@PEAVString@@@Z
?make_time@@YAXPEBUst_date_time_format@@PEBUst_mysql_time@@PEAVString@@I@Z
?make_datetime@@YAXPEBUst_date_time_format@@PEBUst_mysql_time@@PEAVString@@I@Z
?my_TIME_to_str@@YA_NPEBUst_mysql_time@@PEAVString@@I@Z
?date_add_interval@@YA_NPEAUst_mysql_time@@W4interval_type@@UINTERVAL@@@Z
?calc_time_diff@@YA_NPEBUst_mysql_time@@0HPEA_JPEAJ@Z
?my_time_compare@@YAHPEAUst_mysql_time@@0@Z
?localtime_to_TIME@@YAXPEAUst_mysql_time@@PEAUtm@@@Z
?calc_time_from_sec@@YAXPEAUst_mysql_time@@_JJ@Z
?calc_week@@YAIPEAUst_mysql_time@@IPEAI@Z
?calc_weekday@@YAHJ_N@Z
?parse_date_time_format@@YA_NW4enum_mysql_timestamp_type@@PEBDIPEAUst_date_time_format@@@Z
?str_to_time@@YA_NPEBUcharset_info_st@@PEBDIPEAUst_mysql_time@@IPEAUst_mysql_time_status@@@Z
?time_add_nanoseconds_with_round@@YA_NPEAUst_mysql_time@@IPEAH@Z
?str_to_datetime@@YA_NPEBUcharset_info_st@@PEBDIPEAUst_mysql_time@@IPEAUst_mysql_time_status@@@Z
?datetime_add_nanoseconds_with_round@@YA_NPEAUst_mysql_time@@IPEAH@Z
?my_time_fraction_remainder@@YAJJI@Z
?my_time_trunc@@YAXPEAUst_mysql_time@@I@Z
?my_timeval_trunc@@YAXPEAUtimeval@@I@Z
?my_time_round@@YA_NPEAUst_mysql_time@@I@Z
?my_datetime_round@@YA_NPEAUst_mysql_time@@IPEAH@Z
?my_timeval_round@@YA_NPEAUtimeval@@I@Z
?TIME_to_longlong_packed@@YA_JPEBUst_mysql_time@@W4enum_field_types@@@Z
?TIME_from_longlong_packed@@YAXPEAUst_mysql_time@@W4enum_field_types@@_J@Z
?my_decimal_from_datetime_packed@@YAPEAVmy_decimal@@PEAV1@W4enum_field_types@@_J@Z
?longlong_from_datetime_packed@@YA_JW4enum_field_types@@_J@Z
?double_from_datetime_packed@@YANW4enum_field_types@@_J@Z
?time_zone@THD@@QEAAPEAVTime_zone@@XZ
?lock_descriptions@@3PAPEBDA DATA
?print@?$Bitmap@$0EA@@@QEBAPEADPEAD@Z
??0Cost_estimate@@QEAA@XZ
??0st_position@@QEAA@XZ
??1st_position@@QEAA@XZ
?print_where@@YAXPEAVItem@@PEBDW4enum_query_type@@@Z
?TEST_join@@YAXPEAVJOIN@@@Z
?print_plan@@YAXPEAVJOIN@@INNNPEBD@Z
?mysql_print_status@@YAXXZ
?print_keyuse_array@@YAXPEAVOpt_trace_context@@PEBV?$Mem_root_array@VKey_use@@$00@@@Z
?add@Opt_trace_struct@@QEAAAEAV1@PEBDPEAVItem@@@Z
??0Opt_trace_array@@QEAA@PEAVOpt_trace_context@@PEBDW4feature_value@1@@Z
??1Opt_trace_array@@QEAA@XZ
?at@?$Mem_root_array@VKey_use@@$00@@QEBAAEBVKey_use@@_K@Z
?mysql_alter_tablespace@@YAHPEAVTHD@@PEAVst_alter_tablespace@@@Z
?primary_key_name@@3PEBDEB DATA
?LOCK_gdl@@3Ust_mysql_mutex@@A DATA
?symdir_warning_emitted@@3_NA DATA
?swap@base_list@@QEAAXAEAV1@@Z
?after@base_list@@IEAAXPEAXPEAUlist_node@@@Z
?replace@base_list_iterator@@QEAAPEAXPEAX@Z
?after@base_list_iterator@@QEAAXPEAX@Z
??0I_P_List_counter@@IEAA@XZ
?inc@I_P_List_counter@@IEAAXXZ
??0Alter_inplace_info@@QEAA@PEAUst_ha_create_information@@PEAVAlter_info@@PEAUst_key@@IPEAVpartition_info@@_N@Z
??1Alter_inplace_info@@QEAA@XZ
?restore_auto_increment@handler@@QEAAX_K@Z
?max_keys@handler@@QEBAIXZ
?max_key_part_length@handler@@QEBAIXZ
?ha_inplace_alter_table@handler@@QEAA_NPEAUTABLE@@PEAVAlter_inplace_info@@@Z
?ha_notify_table_changed@handler@@QEAAXXZ
?table_case_name@@YAPEBDPEAUst_ha_create_information@@PEBD@Z
?column_bitmaps_set_no_signal@TABLE@@QEAAXPEAUst_bitmap@@0@Z
?reset_current_row_for_warning@Warning_info@@AEAAXXZ
??0ErrConvString@@QEAA@PEBDI@Z
?is_set@Diagnostics_area@@QEBA_NXZ
?has_sql_condition@Diagnostics_area@@QEBA_NPEBDK@Z
?reset_current_row_for_warning@Diagnostics_area@@QEAAXXZ
?is_timestamp_type@@YA_NW4enum_field_types@@@Z
??0?$List@VString@@@@QEAA@XZ
??0Create_field@@QEAA@XZ
?filename_to_tablename@@YAIPEBDPEADI_N@Z
?tablename_to_filename@@YAIPEBDPEADI@Z
?check_n_cut_mysql50_prefix@@YAIPEBDPEADI@Z
?check_mysql50_prefix@@YA_NPEBD@Z
?build_table_filename@@YAIPEAD_KPEBD22IPEA_N@Z
?build_table_shadow_filename@@YAIPEAD_KPEAUst_lock_param_type@@@Z
?build_tmptable_filename@@YAIPEAVTHD@@PEAD_K@Z
?mysql_create_table@@YA_NPEAVTHD@@PEAUTABLE_LIST@@PEAUst_ha_create_information@@PEAVAlter_info@@@Z
?mysql_create_table_no_lock@@YA_NPEAVTHD@@PEBD1PEAUst_ha_create_information@@PEAVAlter_info@@IPEA_N@Z
?mysql_discard_or_import_tablespace@@YAHPEAVTHD@@PEAUTABLE_LIST@@_N@Z
?mysql_prepare_alter_table@@YA_NPEAVTHD@@PEAUTABLE@@PEAUst_ha_create_information@@PEAVAlter_info@@PEAVAlter_table_ctx@@@Z
?mysql_trans_prepare_alter_copy_data@@YA_NPEAVTHD@@@Z
?mysql_trans_commit_alter_copy_data@@YA_NPEAVTHD@@@Z
?mysql_alter_table@@YA_NPEAVTHD@@PEAD1PEAUst_ha_create_information@@PEAUTABLE_LIST@@PEAVAlter_info@@IPEAUst_order@@_N@Z
?mysql_compare_tables@@YA_NPEAUTABLE@@PEAVAlter_info@@PEAUst_ha_create_information@@PEA_N@Z
?mysql_recreate_table@@YA_NPEAVTHD@@PEAUTABLE_LIST@@_N@Z
?mysql_create_like_table@@YA_NPEAVTHD@@PEAUTABLE_LIST@@1PEAUst_ha_create_information@@@Z
?mysql_rename_table@@YA_NPEAUhandlerton@@PEBD111I@Z
?mysql_checksum_table@@YA_NPEAVTHD@@PEAUTABLE_LIST@@PEAUst_ha_check_opt@@@Z
?mysql_rm_table@@YA_NPEAVTHD@@PEAUTABLE_LIST@@DD@Z
?mysql_rm_table_no_locks@@YAHPEAVTHD@@PEAUTABLE_LIST@@_N222@Z
?quick_rm_table@@YA_NPEAVTHD@@PEAUhandlerton@@PEBD2I@Z
?fill_field_definition@@YA_NPEAVTHD@@PEAVsp_head@@W4enum_field_types@@PEAVCreate_field@@@Z
?prepare_create_field@@YAHPEAVCreate_field@@PEAI_J@Z
?get_sql_field_charset@@YAPEBUcharset_info_st@@PEAVCreate_field@@PEAUst_ha_create_information@@@Z
?mysql_write_frm@@YA_NPEAUst_lock_param_type@@I@Z
?write_bin_log@@YAHPEAVTHD@@_NPEBDK1@Z
?write_ddl_log_entry@@YA_NPEAUst_ddl_log_entry@@PEAPEAUst_ddl_log_memory_entry@@@Z
?write_execute_ddl_log_entry@@YA_NI_NPEAPEAUst_ddl_log_memory_entry@@@Z
?deactivate_ddl_log_entry@@YA_NI@Z
?release_ddl_log_memory_entry@@YAXPEAUst_ddl_log_memory_entry@@@Z
?sync_ddl_log@@YA_NXZ
?release_ddl_log@@YAXXZ
?execute_ddl_log_recovery@@YAXXZ
?execute_ddl_log_entry@@YA_NPEAVTHD@@I@Z
?validate_comment_length@@YA_NPEAVTHD@@PEBDPEA_KII1@Z
?promote_first_timestamp_column@@YAXPEAV?$List@VCreate_field@@@@@Z
?explain_filename@@YAIPEAVTHD@@PEBDPEADIW4enum_explain_filename_mode@@@Z
?store@Protocol@@QEAA_N_K@Z
?remove_last_row@Protocol@@QEAAXXZ
??0Key_part_spec@@QEAA@PEBD_KI@Z
??0?$List@VKey_part_spec@@@@QEAA@XZ
??0?$List@VKey_part_spec@@@@QEAA@AEBV0@@Z
?push_back@?$List@VKey_part_spec@@@@QEAA_NPEAVKey_part_spec@@@Z
??0Key@@QEAA@W4Keytype@0@PEBD_KPEAUst_key_create_information@@_NAEAV?$List@VKey_part_spec@@@@@Z
??1Key@@UEAA@XZ
?clone@Key@@UEBAPEAV1@PEAUst_mem_root@@@Z
??0Item_num@@QEAA@XZ
?check_partition_func_processor@Item_num@@UEAA_NPEAE@Z
??1Item_num@@UEAA@XZ
??0Item_int@@QEAA@PEAV0@@Z
??0Item_int@@QEAA@AEBVName_string@@_JI@Z
?type@Item_int@@UEBA?AW4Type@Item@@XZ
?result_type@Item_int@@UEBA?AW4Item_result@@XZ
?field_type@Item_int@@UEBA?AW4enum_field_types@@XZ
?val_int@Item_int@@UEAA_JXZ
?val_real@Item_int@@UEAANXZ
?get_date@Item_int@@UEAA_NPEAUst_mysql_time@@I@Z
?get_time@Item_int@@UEAA_NPEAUst_mysql_time@@@Z
?basic_const_item@Item_int@@UEBA_NXZ
?clone_item@Item_int@@UEAAPEAVItem@@XZ
?neg@Item_int@@UEAAPEAVItem_num@@XZ
?decimal_precision@Item_int@@UEBAIXZ
?check_partition_func_processor@Item_int@@UEAA_NPEAE@Z
??1Item_int@@UEAA@XZ
??0Item_temporal_func@@QEAA@XZ
?result_type@Item_temporal_func@@UEBA?AW4Item_result@@XZ
?charset_for_protocol@Item_temporal_func@@UEBAPEAUcharset_info_st@@XZ
?tmp_table_field@Item_temporal_func@@UEAAPEAVField@@PEAUTABLE@@@Z
?time_precision@Item_temporal_func@@UEAAIXZ
?datetime_precision@Item_temporal_func@@UEAAIXZ
??1Item_temporal_func@@UEAA@XZ
??0Item_datetime_func@@QEAA@XZ
?field_type@Item_datetime_func@@UEBA?AW4enum_field_types@@XZ
?val_real@Item_datetime_func@@UEAANXZ
?val_str@Item_datetime_func@@UEAAPEAVString@@PEAV2@@Z
?val_int@Item_datetime_func@@UEAA_JXZ
?val_decimal@Item_datetime_func@@UEAAPEAVmy_decimal@@PEAV2@@Z
?save_in_field@Item_datetime_func@@UEAA?AW4type_conversion_status@@PEAVField@@_N@Z
?get_time@Item_datetime_func@@UEAA_NPEAUst_mysql_time@@@Z
??1Item_datetime_func@@UEAA@XZ
?reset_string@MYSQL_TIME_cache@@AEAAXXZ
?reset@MYSQL_TIME_cache@@AEAAXXZ
?get_TIME@MYSQL_TIME_cache@@AEBAXPEAUst_mysql_time@@@Z
??0MYSQL_TIME_cache@@QEAA@XZ
?val_packed@MYSQL_TIME_cache@@QEBA_JXZ
?get_time@MYSQL_TIME_cache@@QEBA_NPEAUst_mysql_time@@@Z
??0Item_func_now@@QEAA@E@Z
?val_date_temporal@Item_func_now@@UEAA_JXZ
?get_date@Item_func_now@@UEAA_NPEAUst_mysql_time@@I@Z
?val_str@Item_func_now@@UEAAPEAVString@@PEAV2@@Z
??1Item_func_now@@UEAA@XZ
??0Item_func_now_local@@QEAA@E@Z
?func_name@Item_func_now_local@@UEBAPEBDXZ
?functype@Item_func_now_local@@UEBA?AW4Functype@Item_func@@XZ
??1Item_func_now_local@@UEAA@XZ
??0?$List@VAlter_drop@@@@QEAA@XZ
?head@?$List@VAlter_drop@@@@QEAAPEAVAlter_drop@@XZ
??0?$List@VAlter_column@@@@QEAA@XZ
?head@?$List@VAlter_column@@@@QEAAPEAVAlter_column@@XZ
??0?$List@VKey@@@@QEAA@XZ
?push_back@?$List@VKey@@@@QEAA_NPEAVKey@@@Z
??0?$List@VCreate_field@@@@QEAA@XZ
?push_back@?$List@VCreate_field@@@@QEAA_NPEAVCreate_field@@@Z
?push_front@?$List@VCreate_field@@@@QEAA_NPEAVCreate_field@@@Z
??0?$List@D@@QEAA@XZ
??0Alter_info@@QEAA@XZ
?is_database_changed@Alter_table_ctx@@QEBA_NXZ
?is_table_renamed@Alter_table_ctx@@QEBA_NXZ
?get_new_filename@Alter_table_ctx@@QEBAPEBDXZ
?get_new_path@Alter_table_ctx@@QEBAPEBDXZ
?get_tmp_path@Alter_table_ctx@@QEBAPEBDXZ
?set_fk_error_if_delete_row@Alter_table_ctx@@QEAAXPEAUst_foreign_key_info@@@Z
?set_stmt_unsafe@Query_tables_list@@QEAAXW4enum_binlog_stmt_unsafe@1@@Z
?mark_created_temp_table@THD_TRANS@@QEAAXXZ
?mark_dropped_temp_table@THD_TRANS@@QEAAXXZ
??0Drop_table_error_handler@@QEAA@XZ
??1Drop_table_error_handler@@UEAA@XZ
?killed_errno@THD@@QEBAHXZ
?send_kill_message@THD@@QEBAXXZ
??0Alter_table_prelocking_strategy@@QEAA@XZ
??1Alter_table_prelocking_strategy@@UEAA@XZ
?open_tables@@YA_NPEAVTHD@@PEAPEAUTABLE_LIST@@PEAII@Z
??0?$List@Vpartition_element@@@@QEAA@XZ
??1?$List@Vpartition_element@@@@QEAA@XZ
??0partition_info@@QEAA@XZ
?is_sub_partitioned@partition_info@@QEAA_NXZ
?get_current_mem_root@sp_head@@QEBAPEAUst_mem_root@@XZ
??0st_global_ddl_log@@QEAA@XZ
?check_duplicates_in_interval@@YA_NPEBD0PEAUst_typelib@@PEBUcharset_info_st@@PEAI@Z
?replace@?$List_iterator@VCreate_field@@@@QEAAPEAVCreate_field@@PEAV2@@Z
?remove@?$List_iterator@VCreate_field@@@@QEAAXXZ
?after@?$List_iterator@VCreate_field@@@@QEAAXPEAVCreate_field@@@Z
??0?$List_iterator@VKey@@@@QEAA@AEAV?$List@VKey@@@@@Z
??E?$List_iterator@VKey@@@@QEAAPEAVKey@@H@Z
?rewind@?$List_iterator@VKey@@@@QEAAXXZ
??0?$List_iterator@VKey_part_spec@@@@QEAA@AEAV?$List@VKey_part_spec@@@@@Z
??E?$List_iterator@VKey_part_spec@@@@QEAAPEAVKey_part_spec@@H@Z
?rewind@?$List_iterator@VKey_part_spec@@@@QEAAXXZ
??0?$List_iterator@Vpartition_element@@@@QEAA@AEAV?$List@Vpartition_element@@@@@Z
??E?$List_iterator@Vpartition_element@@@@QEAAPEAVpartition_element@@H@Z
??0?$List_iterator_fast@VKey@@@@QEAA@AEAV?$List@VKey@@@@@Z
??E?$List_iterator_fast@VKey@@@@QEAAPEAVKey@@H@Z
??0?$List_iterator_fast@VCreate_field@@@@QEAA@XZ
?init@?$List_iterator_fast@VCreate_field@@@@QEAAXAEAV?$List@VCreate_field@@@@@Z
??0?$List_iterator@VAlter_drop@@@@QEAA@AEAV?$List@VAlter_drop@@@@@Z
??E?$List_iterator@VAlter_drop@@@@QEAAPEAVAlter_drop@@H@Z
?rewind@?$List_iterator@VAlter_drop@@@@QEAAXXZ
?remove@?$List_iterator@VAlter_drop@@@@QEAAXXZ
??0?$List_iterator@VAlter_column@@@@QEAA@AEAV?$List@VAlter_column@@@@@Z
??E?$List_iterator@VAlter_column@@@@QEAAPEAVAlter_column@@H@Z
?rewind@?$List_iterator@VAlter_column@@@@QEAAXXZ
?remove@?$List_iterator@VAlter_column@@@@QEAAXXZ
?head@?$List@Ust_foreign_key_info@@@@QEAAPEAUst_foreign_key_info@@XZ
??0?$List_iterator@Ust_foreign_key_info@@@@QEAA@AEAV?$List@Ust_foreign_key_info@@@@@Z
??E?$List_iterator@Ust_foreign_key_info@@@@QEAAPEAUst_foreign_key_info@@H@Z
?rewind@?$List_iterator@Ust_foreign_key_info@@@@QEAAXXZ
?remove@?$List_iterator@Ust_foreign_key_info@@@@QEAAXXZ
??0?$List_iterator_fast@VAlter_drop@@@@QEAA@AEAV?$List@VAlter_drop@@@@@Z
??E?$List_iterator_fast@VAlter_drop@@@@QEAAPEAVAlter_drop@@H@Z
??0?$I_P_List_no_push_back@VMDL_request@@@@IEAA@PEAPEAVMDL_request@@@Z
?set_last@?$I_P_List_no_push_back@VMDL_request@@@@IEAAXPEAPEAVMDL_request@@@Z
??0?$I_P_List@VMDL_request@@U?$I_P_List_adapter@VMDL_request@@$07$0BA@@@VI_P_List_counter@@V?$I_P_List_no_push_back@VMDL_request@@@@@@QEAA@XZ
?push_front@?$I_P_List@VMDL_request@@U?$I_P_List_adapter@VMDL_request@@$07$0BA@@@VI_P_List_counter@@V?$I_P_List_no_push_back@VMDL_request@@@@@@QEAAXPEAVMDL_request@@@Z
?next_ptr@?$I_P_List_adapter@VMDL_request@@$07$0BA@@@SAPEAPEAVMDL_request@@PEAV2@@Z
?prev_ptr@?$I_P_List_adapter@VMDL_request@@$07$0BA@@@SAPEAPEAPEAVMDL_request@@PEAV2@@Z
?global_ddl_log@@3Ust_global_ddl_log@@A DATA
?sortcmp@@YAHPEBVString@@0PEBUcharset_info_st@@@Z
?copy_if_not_alloced@@YAPEAVString@@PEAV1@0I@Z
?well_formed_copy_nchars@@YAIPEBUcharset_info_st@@PEADI0PEBDIIPEAPEBD33@Z
?my_copy_with_hex_escaping@@YA_KPEBUcharset_info_st@@PEAD_KPEBD2@Z
?convert_to_printable@@YAIPEAD_KPEBD1PEBUcharset_info_st@@1@Z
?set_ascii@String@@QEAA_NPEBDI@Z
?set_int@String@@QEAA_N_J_NPEBUcharset_info_st@@@Z
?set_real@String@@QEAA_NNIPEBUcharset_info_st@@@Z
?real_alloc@String@@QEAA_NI@Z
?realloc@String@@QEAA_NI@Z
?shrink@String@@QEAAXI@Z
?is_alloced@String@@QEBA_NXZ
?copy@String@@QEAA_NXZ
?copy@String@@QEAA_NAEBV1@@Z
?copy@String@@QEAA_NPEBDIPEBUcharset_info_st@@@Z
?needs_conversion@String@@SA_NIPEBUcharset_info_st@@0PEAI@Z
?needs_conversion_on_storage@String@@SA_NIPEBUcharset_info_st@@0@Z
?copy_aligned@String@@QEAA_NPEBDIIPEBUcharset_info_st@@@Z
?set_or_copy_aligned@String@@QEAA_NPEBDIPEBUcharset_info_st@@@Z
?copy@String@@QEAA_NPEBDIPEBUcharset_info_st@@1PEAI@Z
?append@String@@QEAA_NAEBV1@@Z
?append@String@@QEAA_NPEBD@Z
?append@String@@QEAA_NPEBDI@Z
?append@String@@QEAA_NPEBDIPEBUcharset_info_st@@@Z
?append_ulonglong@String@@QEAA_N_K@Z
?append@String@@QEAA_NPEAUst_io_cache@@I@Z
?append_with_prefill@String@@QEAA_NPEBDIID@Z
?append_parenthesized@String@@QEAA_NJH@Z
?strstr@String@@QEAAHAEBV1@I@Z
?strrstr@String@@QEAAHAEBV1@I@Z
?replace@String@@QEAA_NIIPEBDI@Z
?replace@String@@QEAA_NIIAEBV1@@Z
?fill@String@@QEAA_NID@Z
?strip_sp@String@@QEAAXXZ
?stringcmp@@YAHPEBVString@@0@Z
?numchars@String@@QEBAIXZ
?charpos@String@@QEAAHHI@Z
?reserve@String@@QEAAHII@Z
?qs_append@String@@QEAAXPEBDI@Z
?qs_append@String@@QEAAXN@Z
?qs_append@String@@QEAAXPEAN@Z
?qs_append@String@@QEAAXH@Z
?qs_append@String@@QEAAXI@Z
?print@String@@QEAAXPEAV1@@Z
?swap@String@@QEAAXAEAV1@@Z
sqlstate_map DATA
mysql_errno_to_sqlstate
?Diag_condition_item_names@@3QBUst_mysql_lex_string@@B DATA
?get_sqlstate@Sql_condition@@QEBAPEBDXZ
?get_sql_errno@Sql_condition@@QEBAIXZ
??1Sql_condition@@AEAA@XZ
?unmark_sql_conditions_from_removal@Warning_info@@AEAAXXZ
?id@Warning_info@@AEAAX_K@Z
?set_warning_info_id@Diagnostics_area@@QEAAX_K@Z
?clear_warning_info@Diagnostics_area@@QEAAX_K@Z
?reserve_space@Diagnostics_area@@QEAAXPEAVTHD@@I@Z
?push_warning@Diagnostics_area@@QEAAPEAVSql_condition@@PEAVTHD@@PEBV2@@Z
?unmark_sql_conditions_from_removal@Diagnostics_area@@QEAAXXZ
??0Set_signal_information@@QEAA@AEBV0@@Z
?clear@Set_signal_information@@QEAAXXZ
?raised_condition@sp_rcontext@@QEBAPEBVSql_condition_info@1@XZ
?back@?$Dynamic_array@PEAVHandler_call_frame@sp_rcontext@@@@QEBAPEBQEAVHandler_call_frame@sp_rcontext@@XZ
?elements@?$Dynamic_array@PEAVHandler_call_frame@sp_rcontext@@@@QEBAHXZ
?assign_defaults@Sql_cmd_common_signal@@KAXPEAVSql_condition@@_NW4enum_warning_level@2@H@Z
?eval_defaults@Sql_cmd_common_signal@@IEAAXPEAVTHD@@PEAVSql_condition@@@Z
?eval_signal_informations@Sql_cmd_common_signal@@IEAAHPEAVTHD@@PEAVSql_condition@@@Z
?raise_condition@Sql_cmd_common_signal@@IEAA_NPEAVTHD@@PEAVSql_condition@@@Z
?execute@Sql_cmd_signal@@UEAA_NPEAVTHD@@@Z
?execute@Sql_cmd_resignal@@UEAA_NPEAVTHD@@@Z
?fill_schema_processlist@@YAHPEAVTHD@@PEAUTABLE_LIST@@PEAVItem@@@Z
?make_old_format@@YAHPEAVTHD@@PEAUst_schema_table@@@Z
?make_schemata_old_format@@YAHPEAVTHD@@PEAUst_schema_table@@@Z
?make_table_names_old_format@@YAHPEAVTHD@@PEAUst_schema_table@@@Z
?make_columns_old_format@@YAHPEAVTHD@@PEAUst_schema_table@@@Z
?make_character_sets_old_format@@YAHPEAVTHD@@PEAUst_schema_table@@@Z
?fill_schema_schemata@@YAHPEAVTHD@@PEAUTABLE_LIST@@PEAVItem@@@Z
?make_proc_old_format@@YAHPEAVTHD@@PEAUst_schema_table@@@Z
?hton_fill_schema_table@@YAHPEAVTHD@@PEAUTABLE_LIST@@PEAVItem@@@Z
?schema_fields_info@@3PAUst_field_info@@A DATA
?tables_fields_info@@3PAUst_field_info@@A DATA
?schema_tables@@3PAUst_schema_table@@A DATA
?columns_fields_info@@3PAUst_field_info@@A DATA
?charsets_fields_info@@3PAUst_field_info@@A DATA
?collation_fields_info@@3PAUst_field_info@@A DATA
?engines_fields_info@@3PAUst_field_info@@A DATA
?events_fields_info@@3PAUst_field_info@@A DATA
?fill_schema_charsets@@YAHPEAVTHD@@PEAUTABLE_LIST@@PEAVItem@@@Z
?fill_plugins@@YAHPEAVTHD@@PEAUTABLE_LIST@@PEAVItem@@@Z
?coll_charset_app_fields_info@@3PAUst_field_info@@A DATA
?proc_fields_info@@3PAUst_field_info@@A DATA
?stat_fields_info@@3PAUst_field_info@@A DATA
?fill_schema_engines@@YAHPEAVTHD@@PEAUTABLE_LIST@@PEAVItem@@@Z
?fill_schema_collation@@YAHPEAVTHD@@PEAUTABLE_LIST@@PEAVItem@@@Z
?view_fields_info@@3PAUst_field_info@@A DATA
?user_privileges_fields_info@@3PAUst_field_info@@A DATA
?schema_privileges_fields_info@@3PAUst_field_info@@A DATA
?fill_schema_coll_charset_app@@YAHPEAVTHD@@PEAUTABLE_LIST@@PEAVItem@@@Z
?table_privileges_fields_info@@3PAUst_field_info@@A DATA
?column_privileges_fields_info@@3PAUst_field_info@@A DATA
?table_constraints_fields_info@@3PAUst_field_info@@A DATA
?key_column_usage_fields_info@@3PAUst_field_info@@A DATA
?table_names_fields_info@@3PAUst_field_info@@A DATA
?open_tables_fields_info@@3PAUst_field_info@@A DATA
?triggers_fields_info@@3PAUst_field_info@@A DATA
?partitions_fields_info@@3PAUst_field_info@@A DATA
?variables_fields_info@@3PAUst_field_info@@A DATA
?processlist_fields_info@@3PAUst_field_info@@A DATA
?fill_open_tables@@YAHPEAVTHD@@PEAUTABLE_LIST@@PEAVItem@@@Z
?plugin_fields_info@@3PAUst_field_info@@A DATA
?files_fields_info@@3PAUst_field_info@@A DATA
?fill_variables@@YAHPEAVTHD@@PEAUTABLE_LIST@@PEAVItem@@@Z
?fill_status@@YAHPEAVTHD@@PEAUTABLE_LIST@@PEAVItem@@@Z
?fill_schema_proc@@YAHPEAVTHD@@PEAUTABLE_LIST@@PEAVItem@@@Z
?referential_constraints_fields_info@@3PAUst_field_info@@A DATA
?parameters_fields_info@@3PAUst_field_info@@A DATA
?tablespaces_fields_info@@3PAUst_field_info@@A DATA
?create_schema_table@@YAPEAUTABLE@@PEAVTHD@@PEAUTABLE_LIST@@@Z
?opt_ignore_db_dirs@@3PEADEA DATA
?get_all_tables@@YAHPEAVTHD@@PEAUTABLE_LIST@@PEAVItem@@@Z
??0Simple_cstring@@QEAA@XZ
?set@String@@QEAA_N_JPEBUcharset_info_st@@@Z
?set@String@@QEAA_N_KPEBUcharset_info_st@@@Z
?reserve@String@@QEAAHI@Z
?dec@I_P_List_counter@@IEAAXXZ
?elements@I_P_List_counter@@QEBAIXZ
?is_empty@?$I_P_List@VMDL_ticket@@U?$I_P_List_adapter@VMDL_ticket@@$07$0BA@@@VI_P_List_null_counter@@V?$I_P_List_no_push_back@VMDL_ticket@@@@@@QEBA_NXZ
?has_locks@MDL_context@@QEBA_NXZ
?push_back@?$List@Ust_mysql_lex_string@@@@QEAA_NPEAUst_mysql_lex_string@@@Z
?get_db_name@TABLE_LIST@@QEBAPEADXZ
?get_table_name@TABLE_LIST@@QEBAPEADXZ
?get_sqlstate@Diagnostics_area@@QEBAPEBDXZ
?push_warning_info@Diagnostics_area@@QEAAXPEAVWarning_info@@@Z
?pop_warning_info@Diagnostics_area@@QEAAXXZ
?push_warning@Diagnostics_area@@QEAAPEAVSql_condition@@PEAVTHD@@IPEBDW4enum_warning_level@2@1@Z
?set_last@?$I_P_List_fast_push_back@VWarning_info@@@@IEAAXPEAPEAVWarning_info@@@Z
?push_front@?$I_P_List@VWarning_info@@U?$I_P_List_adapter@VWarning_info@@$0IA@$0II@@@VI_P_List_counter@@V?$I_P_List_fast_push_back@VWarning_info@@@@@@QEAAXPEAVWarning_info@@@Z
?remove@?$I_P_List@VWarning_info@@U?$I_P_List_adapter@VWarning_info@@$0IA@$0II@@@VI_P_List_counter@@V?$I_P_List_fast_push_back@VWarning_info@@@@@@QEAAXPEAVWarning_info@@@Z
?has_update_default_function@Field@@QEBA_NXZ
??0Name_string@@QEAA@XZ
?copy@Name_string@@QEAAXPEBD@Z
?quick_fix_field@Item@@QEAAXXZ
??0Item_ident_for_show@@QEAA@PEAVField@@PEBD1@Z
?type@Item_ident_for_show@@UEBA?AW4Type@Item@@XZ
?val_real@Item_ident_for_show@@UEAANXZ
?val_int@Item_ident_for_show@@UEAA_JXZ
?val_str@Item_ident_for_show@@UEAAPEAVString@@PEAV2@@Z
?val_decimal@Item_ident_for_show@@UEAAPEAVmy_decimal@@PEAV2@@Z
?get_date@Item_ident_for_show@@UEAA_NPEAUst_mysql_time@@I@Z
?get_time@Item_ident_for_show@@UEAA_NPEAUst_mysql_time@@@Z
?charset_for_protocol@Item_ident_for_show@@UEBAPEAUcharset_info_st@@XZ
??1Item_ident_for_show@@UEAA@XZ
??0Item_int@@QEAA@_JI@Z
??0Item_temporal@@QEAA@W4enum_field_types@@_J@Z
??0Item_temporal@@QEAA@W4enum_field_types@@AEBVName_string@@_JI@Z
?clone_item@Item_temporal@@UEAAPEAVItem@@XZ
?val_time_temporal@Item_temporal@@UEAA_JXZ
?val_date_temporal@Item_temporal@@UEAA_JXZ
?get_date@Item_temporal@@UEAA_NPEAUst_mysql_time@@I@Z
?get_time@Item_temporal@@UEAA_NPEAUst_mysql_time@@@Z
?field_type@Item_temporal@@UEBA?AW4enum_field_types@@XZ
??1Item_temporal@@UEAA@XZ
??0Item_float@@QEAA@VName_string@@NII@Z
?type@Item_float@@UEBA?AW4Type@Item@@XZ
?field_type@Item_float@@UEBA?AW4enum_field_types@@XZ
?val_real@Item_float@@UEAANXZ
?val_int@Item_float@@UEAA_JXZ
?get_date@Item_float@@UEAA_NPEAUst_mysql_time@@I@Z
?get_time@Item_float@@UEAA_NPEAUst_mysql_time@@@Z
?basic_const_item@Item_float@@UEBA_NXZ
?clone_item@Item_float@@UEAAPEAVItem@@XZ
?neg@Item_float@@UEAAPEAVItem_num@@XZ
??1Item_float@@UEAA@XZ
??0Item_blob@@QEAA@PEBDI@Z
?type@Item_blob@@UEBA?AW4Type@Item@@XZ
?field_type@Item_blob@@UEBA?AW4enum_field_types@@XZ
??1Item_blob@@UEAA@XZ
??0Item_return_int@@QEAA@PEBDIW4enum_field_types@@_J@Z
?field_type@Item_return_int@@UEBA?AW4enum_field_types@@XZ
??1Item_return_int@@UEAA@XZ
?arguments@Item_func@@QEBAPEAPEAVItem@@XZ
?argument_count@Item_func@@QEBAIXZ
??0Item_cond@@QEAA@XZ
?argument_list@Item_cond@@QEAAPEAV?$List@VItem@@@@XZ
??0Item_cond_and@@QEAA@XZ
??0Item_cond_or@@QEAA@XZ
??0Item_cond_or@@QEAA@PEAVTHD@@PEAV0@@Z
?functype@Item_cond_or@@UEBA?AW4Functype@Item_func@@XZ
?func_name@Item_cond_or@@UEBAPEBDXZ
?copy_andor_structure@Item_cond_or@@UEAAPEAVItem@@PEAVTHD@@_N@Z
??1Item_cond_or@@UEAA@XZ
?query_charset@Statement@@QEBAPEBUcharset_info_st@@XZ
?fill_information_schema_tables@THD@@QEAA_NXZ
??0Table_ident@@QEAA@PEAVTHD@@Ust_mysql_lex_string@@1_N@Z
?add_item_to_list@@YA_NPEAVTHD@@PEAVItem@@@Z
??0ACL_internal_schema_access@@QEAA@XZ
??1ACL_internal_schema_access@@UEAA@XZ
?show_type@sys_var@@QEAA?AW4enum_mysql_show_type@@XZ
?find_files@@YA?AW4find_files_result@@PEAVTHD@@PEAV?$List@Ust_mysql_lex_string@@@@PEBD22_N@Z
?store_create_info@@YAHPEAVTHD@@PEAUTABLE_LIST@@PEAVString@@PEAUst_ha_create_information@@_N@Z
?view_store_create_info@@YAHPEAVTHD@@PEAUTABLE_LIST@@PEAVString@@@Z
?copy_event_to_schema_table@@YAHPEAVTHD@@PEAUTABLE@@1@Z
?get_quote_char_for_identifier@@YAHPEAVTHD@@PEBDI@Z
?append_identifier@@YAXPEAVTHD@@PEAVString@@PEBDI@Z
?mysqld_list_fields@@YAXPEAVTHD@@PEAUTABLE_LIST@@PEBD@Z
?mysqld_show_create@@YA_NPEAVTHD@@PEAUTABLE_LIST@@@Z
?mysqld_show_create_db@@YA_NPEAVTHD@@PEADPEAUst_ha_create_information@@@Z
?mysqld_list_processes@@YAXPEAVTHD@@PEBD_N@Z
?mysqld_show_privileges@@YA_NPEAVTHD@@@Z
?calc_sum_of_all_status@@YAXPEAUsystem_status_var@@@Z
?append_definer@@YAXPEAVTHD@@PEAVString@@PEBUst_mysql_lex_string@@2@Z
?add_status_vars@@YAHPEAUst_mysql_show_var@@@Z
?remove_status_vars@@YAXPEAUst_mysql_show_var@@@Z
?init_status_vars@@YAXXZ
?free_status_vars@@YAXXZ
?get_status_var@@YA_NPEAVTHD@@PEAUst_mysql_show_var@@PEBDQEAD@Z
?reset_status_vars@@YAXXZ
?show_create_trigger@@YA_NPEAVTHD@@PEBVsp_name@@@Z
?view_store_options@@YAXPEAVTHD@@PEAUTABLE_LIST@@PEAVString@@@Z
?init_fill_schema_files_row@@YAXPEAUTABLE@@@Z
?schema_table_store_record@@YA_NPEAVTHD@@PEAUTABLE@@@Z
?initialize_information_schema_acl@@YAXXZ
?find_schema_table@@YAPEAUst_schema_table@@PEAVTHD@@PEBD@Z
?get_schema_table@@YAPEAUst_schema_table@@W4enum_schema_tables@@@Z
?make_schema_select@@YAHPEAVTHD@@PEAVst_select_lex@@W4enum_schema_tables@@@Z
?mysql_schema_table@@YAHPEAVTHD@@PEAULEX@@PEAUTABLE_LIST@@@Z
?get_schema_tables_result@@YA_NPEAVJOIN@@W4enum_schema_table_state@@@Z
?get_schema_table_idx@@YA?AW4enum_schema_tables@@PEAUst_schema_table@@@Z
?ignore_db_dirs_init@@YA_NXZ
?ignore_db_dirs_free@@YAXXZ
?ignore_db_dirs_reset@@YAXXZ
?ignore_db_dirs_process_additions@@YA_NXZ
?push_ignored_db_dir@@YA_NPEAD@Z
?get_cs_converted_part_value_from_string@@YAHPEAVTHD@@PEAVItem@@PEAVString@@2PEBUcharset_info_st@@_N@Z
?context_var_count@sp_pcontext@@QEBAIXZ
?elements@?$Dynamic_array@PEAVsp_variable@@@@QEBAHXZ
?get_root_parsing_context@sp_head@@QEBAPEAVsp_pcontext@@XZ
??0Show_create_error_handler@@QEAA@PEAVTHD@@PEAUTABLE_LIST@@@Z
?get_view_access_denied_message@Show_create_error_handler@@QEAAPEADXZ
?handle_condition@Show_create_error_handler@@UEAA_NPEAVTHD@@IPEBDW4enum_warning_level@Sql_condition@@1PEAPEAV4@@Z
??1Show_create_error_handler@@UEAA@XZ
??2thread_info@@SAPEAX_K@Z
??3thread_info@@SAXPEAX_K@Z
??0thread_info@@QEAA@XZ
??Rthread_info_compare@@QEAA_NPEBVthread_info@@0@Z
??0?$Mem_root_array@PEAVthread_info@@$00@@QEAA@PEAUst_mem_root@@@Z
??1?$Mem_root_array@PEAVthread_info@@$00@@QEAA@XZ
?at@?$Mem_root_array@PEAVthread_info@@$00@@QEAAAEAPEAVthread_info@@_K@Z
?begin@?$Mem_root_array@PEAVthread_info@@$00@@QEAAPEAPEAVthread_info@@XZ
?end@?$Mem_root_array@PEAVthread_info@@$00@@QEAAPEAPEAVthread_info@@XZ
?clear@?$Mem_root_array@PEAVthread_info@@$00@@QEAAXXZ
?chop@?$Mem_root_array@PEAVthread_info@@$00@@QEAAX_K@Z
?reserve@?$Mem_root_array@PEAVthread_info@@$00@@QEAA_N_K@Z
?push_back@?$Mem_root_array@PEAVthread_info@@$00@@QEAA_NAEBQEAVthread_info@@@Z
?element_size@?$Mem_root_array@PEAVthread_info@@$00@@QEBA_KXZ
?empty@?$Mem_root_array@PEAVthread_info@@$00@@QEBA_NXZ
?size@?$Mem_root_array@PEAVthread_info@@$00@@QEBA_KXZ
??$sort@PEAPEAVthread_info@@Vthread_info_compare@@@std@@YAXPEAPEAVthread_info@@0Vthread_info_compare@@@Z
?make_upper@@YAXPEAD@Z
?get_lookup_value@@YA_NPEAVTHD@@PEAVItem_func@@PEAUTABLE_LIST@@PEAUst_lookup_field_values@@@Z
?calc_lookup_values_from_cond@@YA_NPEAVTHD@@PEAVItem@@PEAUTABLE_LIST@@PEAUst_lookup_field_values@@@Z
?uses_only_table_name_fields@@YA_NPEAVItem@@PEAUTABLE_LIST@@@Z
?get_lookup_field_values@@YA_NPEAVTHD@@PEAVItem@@PEAUTABLE_LIST@@PEAUst_lookup_field_values@@@Z
?make_db_list@@YAHPEAVTHD@@PEAV?$List@Ust_mysql_lex_string@@@@PEAUst_lookup_field_values@@PEA_N@Z
?schema_tables_add@@YAHPEAVTHD@@PEAV?$List@Ust_mysql_lex_string@@@@PEBD@Z
?get_table_open_method@@YAIPEAUTABLE_LIST@@PEAUst_schema_table@@W4enum_schema_tables@@@Z
?handle_condition@Trigger_error_handler@@UEAA_NPEAVTHD@@IPEBDW4enum_warning_level@Sql_condition@@1PEAPEAV4@@Z
??0Trigger_error_handler@@QEAA@XZ
??1Trigger_error_handler@@UEAA@XZ
?store_schema_shemata@@YA_NPEAVTHD@@PEAUTABLE@@PEAUst_mysql_lex_string@@PEBUcharset_info_st@@@Z
?store_column_type@@YAXPEAVTHD@@PEAUTABLE@@PEAVField@@PEAUcharset_info_st@@I@Z
?store_schema_params@@YA_NPEAVTHD@@PEAUTABLE@@1PEBD_N2@Z
?store_schema_proc@@YA_NPEAVTHD@@PEAUTABLE@@1PEBD_N2@Z
?store_constraints@@YA_NPEAVTHD@@PEAUTABLE@@PEAUst_mysql_lex_string@@2PEBDI3I@Z
??0?$List_iterator_fast@Ust_foreign_key_info@@@@QEAA@AEAV?$List@Ust_foreign_key_info@@@@@Z
?store_key_column_usage@@YAXPEAUTABLE@@PEAUst_mysql_lex_string@@1PEBDI2I_J@Z
??0?$List_iterator@D@@QEAA@AEAV?$List@D@@@Z
??E?$List_iterator@D@@QEAAPEADH@Z
??0?$List_iterator@Up_elem_val@@@@QEAA@AEAV?$List@Up_elem_val@@@@@Z
??E?$List_iterator@Up_elem_val@@@@QEAAPEAUp_elem_val@@H@Z
?initialize_schema_table@@YAHPEAUst_plugin_int@@@Z
?finalize_schema_table@@YAHPEAUst_plugin_int@@@Z
??0IS_internal_schema_access@@QEAA@XZ
??1IS_internal_schema_access@@UEAA@XZ
?check@IS_internal_schema_access@@UEBA?AW4ACL_internal_access_result@@KPEAK@Z
?lookup@IS_internal_schema_access@@UEBAPEBVACL_internal_table_access@@PEBD@Z
?next_ptr@?$I_P_List_adapter@VWarning_info@@$0IA@$0II@@@SAPEAPEAVWarning_info@@PEAV2@@Z
?prev_ptr@?$I_P_List_adapter@VWarning_info@@$0IA@$0II@@@SAPEAPEAPEAVWarning_info@@PEAV2@@Z
??$_Debug_range@PEAPEAVthread_info@@@std@@YAXPEAPEAVthread_info@@0PEB_WI@Z
??$_Debug_pointer@Vthread_info_compare@@@std@@YAXAEAVthread_info_compare@@PEB_WI@Z
??$_Unchecked@PEAPEAVthread_info@@@std@@YAPEAPEAVthread_info@@PEAPEAV1@@Z
??$_Sort@PEAPEAVthread_info@@_JVthread_info_compare@@@std@@YAXPEAPEAVthread_info@@0_JVthread_info_compare@@@Z
??$_Iter_cat@PEAPEAVthread_info@@@std@@YA?AUrandom_access_iterator_tag@0@AEBQEAPEAVthread_info@@@Z
??$_Debug_range2@PEAPEAVthread_info@@@std@@YAXPEAPEAVthread_info@@0PEB_WIUrandom_access_iterator_tag@0@@Z
??$_Unguarded_partition@PEAPEAVthread_info@@Vthread_info_compare@@@std@@YA?AU?$pair@PEAPEAVthread_info@@PEAPEAV1@@0@PEAPEAVthread_info@@0Vthread_info_compare@@@Z
??$make_heap@PEAPEAVthread_info@@Vthread_info_compare@@@std@@YAXPEAPEAVthread_info@@0Vthread_info_compare@@@Z
??$sort_heap@PEAPEAVthread_info@@Vthread_info_compare@@@std@@YAXPEAPEAVthread_info@@0Vthread_info_compare@@@Z
??$_Insertion_sort@PEAPEAVthread_info@@Vthread_info_compare@@@std@@YAXPEAPEAVthread_info@@0Vthread_info_compare@@@Z
??$_Debug_pointer@PEAVthread_info@@@std@@YAXPEAPEAVthread_info@@PEB_WI@Z
??$_Median@PEAPEAVthread_info@@Vthread_info_compare@@@std@@YAXPEAPEAVthread_info@@00Vthread_info_compare@@@Z
??$_Debug_lt_pred@Vthread_info_compare@@AEAPEAVthread_info@@AEAPEAV2@@std@@YA_NVthread_info_compare@@AEAPEAVthread_info@@1PEB_WI@Z
??$iter_swap@PEAPEAVthread_info@@PEAPEAV1@@std@@YAXPEAPEAVthread_info@@0@Z
??$?0AEAPEAPEAVthread_info@@AEAPEAPEAV0@X@?$pair@PEAPEAVthread_info@@PEAPEAV1@@std@@QEAA@AEAPEAPEAVthread_info@@0@Z
??$_Dist_type@PEAPEAVthread_info@@@std@@YAPEA_JPEAPEAVthread_info@@@Z
??$_Val_type@PEAPEAVthread_info@@@std@@YAPEAPEAVthread_info@@PEAPEAV1@@Z
??$_Make_heap@PEAPEAVthread_info@@_JPEAV1@Vthread_info_compare@@@std@@YAXPEAPEAVthread_info@@0Vthread_info_compare@@PEA_J0@Z
??$_Debug_heap@PEAPEAVthread_info@@Vthread_info_compare@@@std@@YAXPEAPEAVthread_info@@0Vthread_info_compare@@@Z
??$_Sort_heap@PEAPEAVthread_info@@Vthread_info_compare@@@std@@YAXPEAPEAVthread_info@@0Vthread_info_compare@@@Z
??$_Insertion_sort1@PEAPEAVthread_info@@Vthread_info_compare@@PEAV1@@std@@YAXPEAPEAVthread_info@@0Vthread_info_compare@@0@Z
??$_Med3@PEAPEAVthread_info@@Vthread_info_compare@@@std@@YAXPEAPEAVthread_info@@00Vthread_info_compare@@@Z
??$forward@AEAPEAVthread_info@@@std@@YAAEAPEAVthread_info@@AEAPEAV1@@Z
??$swap@PEAVthread_info@@@std@@YAXAEAPEAVthread_info@@0@Z
??$forward@AEAPEAPEAVthread_info@@@std@@YAAEAPEAPEAVthread_info@@AEAPEAPEAV1@@Z
??$_Move@AEAPEAVthread_info@@@std@@YA$$QEAPEAVthread_info@@AEAPEAV1@@Z
??$_Adjust_heap@PEAPEAVthread_info@@_JPEAV1@Vthread_info_compare@@@std@@YAXPEAPEAVthread_info@@_J1$$QEAPEAV1@Vthread_info_compare@@@Z
??$_Pop_heap@PEAPEAVthread_info@@Vthread_info_compare@@@std@@YAXPEAPEAVthread_info@@0Vthread_info_compare@@@Z
??$_Move_backward@PEAPEAVthread_info@@PEAPEAV1@@std@@YAPEAPEAVthread_info@@PEAPEAV1@00@Z
??$_Push_heap@PEAPEAVthread_info@@_JPEAV1@Vthread_info_compare@@@std@@YAXPEAPEAVthread_info@@_J1$$QEAPEAV1@Vthread_info_compare@@@Z
??$_Pop_heap_0@PEAPEAVthread_info@@PEAV1@Vthread_info_compare@@@std@@YAXPEAPEAVthread_info@@0Vthread_info_compare@@0@Z
??$_Ptr_cat@PEAVthread_info@@PEAV1@@std@@YA?AU_Scalar_ptr_iterator_tag@0@PEAPEAVthread_info@@0@Z
??$_Move_backward@PEAPEAVthread_info@@PEAPEAV1@@std@@YAPEAPEAVthread_info@@PEAPEAV1@00U_Scalar_ptr_iterator_tag@0@@Z
??$_Pop_heap@PEAPEAVthread_info@@_JPEAV1@Vthread_info_compare@@@std@@YAXPEAPEAVthread_info@@00$$QEAPEAV1@Vthread_info_compare@@PEA_J@Z
?servers_init@@YA_N_N@Z
?servers_reload@@YA_NPEAVTHD@@@Z
?servers_free@@YAX_N@Z
?create_server@@YA_NPEAVTHD@@PEAUst_lex_server_options@@@Z
?drop_server@@YA_NPEAVTHD@@PEAUst_lex_server_options@@_N@Z
?alter_server@@YA_NPEAVTHD@@PEAUst_lex_server_options@@@Z
?get_server_by_name@@YAPEAUst_federated_server@@PEAUst_mem_root@@PEBDPEAU1@@Z
??0Table_map_iterator@@QEAA@_K@Z
?next_bit@Table_map_iterator@@QEAAHXZ
?my_decimal_get_binary_size@@YAHII@Z
?total_cost@Cost_estimate@@QEBANXZ
?reset@Cost_estimate@@QEAAXXZ
?add_io@Cost_estimate@@QEAAXN@Z
?join_cond_ref@TABLE_LIST@@QEAAPEAPEAVItem@@XZ
??0?$List@VItem@@@@QEAA@AEBV0@@Z
?mark_as_null_row@@YAXPEAUTABLE@@@Z
?is_temporal_type_with_date@@YA_NW4enum_field_types@@@Z
??0Field_varstring@@QEAA@PEAEII0EW4utype@Field@@PEBDPEAUTABLE_SHARE@@PEBUcharset_info_st@@@Z
?set_repertoire_from_charset@DTCollation@@QEAAXPEBUcharset_info_st@@@Z
?set@DTCollation@@QEAAXPEBUcharset_info_st@@W4Derivation@@@Z
?is_temporal_with_date@Item@@QEBA_NXZ
??0?$Bounds_checked_array@PEAVItem@@@@QEAA@PEAPEAVItem@@_K@Z
??A?$Bounds_checked_array@PEAVItem@@@@QEAAAEAPEAVItem@@_K@Z
?element_size@?$Bounds_checked_array@PEAVItem@@@@QEBA_KXZ
?size@?$Bounds_checked_array@PEAVItem@@@@QEBA_KXZ
?array@?$Bounds_checked_array@PEAVItem@@@@QEBAPEAPEAVItem@@XZ
??9?$Bounds_checked_array@PEAVItem@@@@QEBA_NAEBV0@@Z
?init@Item_null@@AEAAXXZ
??0Item_null@@QEAA@XZ
??0Item_null@@QEAA@AEBVName_string@@@Z
?type@Item_null@@UEBA?AW4Type@Item@@XZ
?val_time_temporal@Item_null@@UEAA_JXZ
?val_date_temporal@Item_null@@UEAA_JXZ
?get_date@Item_null@@UEAA_NPEAUst_mysql_time@@I@Z
?get_time@Item_null@@UEAA_NPEAUst_mysql_time@@@Z
?result_type@Item_null@@UEBA?AW4Item_result@@XZ
?field_type@Item_null@@UEBA?AW4enum_field_types@@XZ
?basic_const_item@Item_null@@UEBA_NXZ
?clone_item@Item_null@@UEAAPEAVItem@@XZ
?is_null@Item_null@@UEAA_NXZ
?print@Item_null@@UEAAXPEAVString@@W4enum_query_type@@@Z
?check_partition_func_processor@Item_null@@UEAA_NPEAE@Z
??1Item_null@@UEAA@XZ
??0Item_null_result@@QEAA@W4enum_field_types@@W4Item_result@@@Z
?is_result_field@Item_null_result@@UEAA_NXZ
?save_in_result_field@Item_null_result@@UEAAX_N@Z
?check_partition_func_processor@Item_null_result@@UEAA_NPEAE@Z
?field_type@Item_null_result@@UEBA?AW4enum_field_types@@XZ
?result_type@Item_null_result@@UEBA?AW4Item_result@@XZ
??1Item_null_result@@UEAA@XZ
??$min@N@std@@YAAEBNAEBN0@Z
?depended_from@Item_sum@@QEAAPEAVst_select_lex@@XZ
??0Item_func@@QEAA@PEAVItem@@@Z
?set_used_tables@Item_func@@QEAAX_K@Z
??0Item_func_rollup_const@@QEAA@PEAVItem@@@Z
?val_real@Item_func_rollup_const@@UEAANXZ
?val_int@Item_func_rollup_const@@UEAA_JXZ
?val_str@Item_func_rollup_const@@UEAAPEAVString@@PEAV2@@Z
?val_decimal@Item_func_rollup_const@@UEAAPEAVmy_decimal@@PEAV2@@Z
?get_date@Item_func_rollup_const@@UEAA_NPEAUst_mysql_time@@I@Z
?get_time@Item_func_rollup_const@@UEAA_NPEAUst_mysql_time@@@Z
?func_name@Item_func_rollup_const@@UEBAPEBDXZ
?const_item@Item_func_rollup_const@@UEBA_NXZ
?result_type@Item_func_rollup_const@@UEBA?AW4Item_result@@XZ
?fix_length_and_dec@Item_func_rollup_const@@UEAAXXZ
?field_type@Item_func_rollup_const@@UEBA?AW4enum_field_types@@XZ
??1Item_func_rollup_const@@UEAA@XZ
?is_evaluated@Item_subselect@@QEBA_NXZ
?is_uncacheable@Item_subselect@@QEBA_NXZ
?optimizer_switch_flag@THD@@QEBA_N_K@Z
?is_agg_distinct@QUICK_GROUP_MIN_MAX_SELECT@@QEAA_NXZ
??0SJ_TMP_TABLE@@QEAA@XZ
??0Semijoin_mat_exec@@QEAA@PEAUTABLE_LIST@@_NIII@Z
??1Semijoin_mat_exec@@QEAA@XZ
??0QEP_operation@@QEAA@PEAUst_join_table@@@Z
??1QEP_operation@@UEAA@XZ
?init@QEP_operation@@UEAAHXZ
?free@QEP_operation@@UEAAXXZ
?set@Explain_format_flags@@QEAAXW4Explain_sort_clause@@W4Explain_sort_property@@@Z
??0st_table_ref@@QEAA@XZ
?has_guarded_conds@st_table_ref@@QEBA_NXZ
??1st_table_ref@@QEAA@XZ
?sj_is_materialize_strategy@@YA_NI@Z
?set_prefix_costs@st_position@@QEAAXNN@Z
??0st_join_table@@QEAA@XZ
?prefix_tables@st_join_table@@QEBA_KXZ
?do_loosescan@st_join_table@@QEBA_NXZ
?cleanup@st_join_table@@QEAAXXZ
?is_using_loose_index_scan@st_join_table@@QEAA_NXZ
?is_using_agg_loose_index_scan@st_join_table@@QEAA_NXZ
?is_inner_table_of_outer_join@st_join_table@@QEAA_NXZ
?is_single_inner_of_semi_join@st_join_table@@QEAA_NXZ
?condition@st_join_table@@QEBAPEAVItem@@XZ
?set_condition@st_join_table@@QEAAXPEAVItem@@I@Z
?set_jt_and_sel_condition@st_join_table@@QEAAPEAVItem@@PEAV2@I@Z
?get_sj_strategy@st_join_table@@QEBAIXZ
?sjm_query_block_id@st_join_table@@QEBAIXZ
?and_with_condition@st_join_table@@QEAA_NPEAVItem@@I@Z
?and_with_jt_and_sel_condition@st_join_table@@QEAA_NPEAVItem@@I@Z
?has_guarded_conds@st_join_table@@QEBA_NXZ
?unified_condition@st_join_table@@QEBAPEAVItem@@XZ
??1st_join_table@@QEAA@XZ
?count_field_types@@YAXPEAVst_select_lex@@PEAVTMP_TABLE_PARAM@@AEAV?$List@VItem@@@@_N@Z
?find_shortest_key@@YAIPEAUTABLE@@PEBV?$Bitmap@$0EA@@@@Z
??0store_key@@QEAA@PEAVTHD@@PEAVField@@PEAE2I@Z
??1store_key@@UEAA@XZ
?copy@store_key@@QEAA?AW4store_key_result@1@XZ
??0store_key_field@@QEAA@PEAVTHD@@PEAVField@@PEAE2I1PEBD@Z
?name@store_key_field@@UEBAPEBDXZ
?copy_inner@store_key_field@@MEAA?AW4store_key_result@store_key@@XZ
??1store_key_field@@UEAA@XZ
??0store_key_item@@QEAA@PEAVTHD@@PEAVField@@PEAE2IPEAVItem@@@Z
?name@store_key_item@@UEBAPEBDXZ
?copy_inner@store_key_item@@MEAA?AW4store_key_result@store_key@@XZ
??1store_key_item@@UEAA@XZ
??0store_key_const_item@@QEAA@PEAVTHD@@PEAVField@@PEAE2IPEAVItem@@@Z
?name@store_key_const_item@@UEBAPEBDXZ
?copy_inner@store_key_const_item@@MEAA?AW4store_key_result@store_key@@XZ
??1store_key_const_item@@UEAA@XZ
?error_if_full_join@@YA_NPEAVJOIN@@@Z
?handle_select@@YA_NPEAVTHD@@PEAVselect_result@@K@Z
?mysql_select@@YA_NPEAVTHD@@PEAUTABLE_LIST@@IAEAV?$List@VItem@@@@PEAVItem@@PEAV?$SQL_I_List@Ust_order@@@@43_KPEAVselect_result@@PEAVst_select_lex_unit@@PEAVst_select_lex@@@Z
?free_underlaid_joins@@YAXPEAVTHD@@PEAVst_select_lex@@@Z
?calc_used_field_length@@YAXPEAVTHD@@PEAUst_join_table@@@Z
?get_index_for_order@@YAIPEAUst_order@@PEAUTABLE@@PEAVSQL_SELECT@@_KPEA_N4@Z
?simple_remove_const@@YAPEAUst_order@@PEAU1@PEAVItem@@@Z
?const_expression_in_where@@YA_NPEAVItem@@0PEAVField@@PEAPEAV1@@Z
?test_if_subpart@@YA_NPEAUst_order@@0@Z
?calc_group_buffer@@YAXPEAVJOIN@@PEAUst_order@@@Z
?test_if_skip_sort_order@@YA_NPEAUst_join_table@@PEAUst_order@@_K_NPEBV?$Bitmap@$0EA@@@PEBD@Z
?make_join_readinfo@@YA_NPEAVJOIN@@_KI@Z
?create_ref_for_key@@YA_NPEAVJOIN@@PEAUst_join_table@@PEAVKey_use@@_K@Z
?types_allow_materialization@@YA_NPEAVItem@@0@Z
?and_conditions@@YA_NPEAPEAVItem@@PEAV1@@Z
?actual_key_parts@@YAIPEAUst_key@@@Z
?actual_key_flags@@YAIPEAUst_key@@@Z
?test_if_order_by_key@@YAHPEAUst_order@@PEAUTABLE@@IPEAI@Z
?add_select_number@Opt_trace_struct@@QEAAAEAV1@I@Z
?aux_buffer_incr@JOIN_CACHE@@MEAAIXZ
?aux_buffer_min_size@JOIN_CACHE@@MEBAIXZ
?rem_space@JOIN_CACHE@@MEAAKXZ
?is_key_access@JOIN_CACHE@@UEAA_NXZ
?put_record@JOIN_CACHE@@UEAA?AW4enum_nested_loop_state@@XZ
?get_curr_rec@JOIN_CACHE@@UEAAPEAEXZ
?set_curr_rec_link@JOIN_CACHE@@UEAAXPEAE@Z
?get_curr_rec_link@JOIN_CACHE@@UEAAPEAEXZ
?end_send@JOIN_CACHE@@UEAA?AW4enum_nested_loop_state@@XZ
?type@JOIN_CACHE@@UEAA?AW4enum_op_type@QEP_operation@@XZ
??0JOIN_CACHE@@QEAA@PEAVJOIN@@PEAUst_join_table@@PEAV0@@Z
??1JOIN_CACHE@@UEAA@XZ
?free@JOIN_CACHE@@UEAAXXZ
??0JOIN_CACHE_BNL@@QEAA@PEAVJOIN@@PEAUst_join_table@@PEAVJOIN_CACHE@@@Z
??1JOIN_CACHE_BNL@@UEAA@XZ
?init_mrr_buff@JOIN_CACHE_BKA@@MEAAXXZ
??0JOIN_CACHE_BKA@@QEAA@PEAVJOIN@@PEAUst_join_table@@IPEAVJOIN_CACHE@@@Z
?is_key_access@JOIN_CACHE_BKA@@UEAA_NXZ
??1JOIN_CACHE_BKA@@UEAA@XZ
?rem_space@JOIN_CACHE_BKA_UNIQUE@@MEAAKXZ
?init_mrr_buff@JOIN_CACHE_BKA_UNIQUE@@MEAAXXZ
??0JOIN_CACHE_BKA_UNIQUE@@QEAA@PEAVJOIN@@PEAUst_join_table@@IPEAVJOIN_CACHE@@@Z
??1JOIN_CACHE_BKA_UNIQUE@@UEAA@XZ
?delete_elements@?$List@VCached_item@@@@QEAAXXZ
?begin@?$Mem_root_array@VKey_use@@$00@@QEAAPEAVKey_use@@XZ
??4ORDER_with_src@JOIN@@QEAAAEAV01@PEAUnull@01@@Z
??0ORDER_with_src@JOIN@@QEAA@PEAUnull@01@@Z
??BORDER_with_src@JOIN@@QEAAPEAUst_order@@XZ
?push_back@?$List@VSemijoin_mat_exec@@@@QEAA_NPEAVSemijoin_mat_exec@@@Z
?plan_is_const@JOIN@@QEBA_NXZ
?reset@JOIN@@QEAAXXZ
?prepare_result@JOIN@@QEAA_NPEAPEAV?$List@VItem@@@@@Z
?explain@JOIN@@QEAA_NXZ
?destroy@JOIN@@QEAA_NXZ
?alloc_func_list@JOIN@@QEAA_NXZ
?make_sum_func_list@JOIN@@QEAA_NAEAV?$List@VItem@@@@0_N1@Z
?ref_ptr_array_slice@JOIN@@QEAA?AV?$Bounds_checked_array@PEAVItem@@@@_K@Z
?copy_ref_ptr_array@JOIN@@QEAAXV?$Bounds_checked_array@PEAVItem@@@@0@Z
?set_items_ref_array@JOIN@@QEAAXV?$Bounds_checked_array@PEAVItem@@@@@Z
?init_items_ref_array@JOIN@@QEAAXXZ
?rollup_process_const_fields@JOIN@@QEAA_NXZ
?rollup_make_fields@JOIN@@QEAA_NAEAV?$List@VItem@@@@0PEAPEAPEAVItem_sum@@@Z
?join_free@JOIN@@QEAAXXZ
?cleanup@JOIN@@QEAAX_N@Z
?clear@JOIN@@QEAAXXZ
?change_result@JOIN@@QEAA_NPEAVselect_result@@@Z
?get_best_combination@JOIN@@QEAA_NXZ
?add_sorting_to_table@JOIN@@QEAA_NPEAUst_join_table@@PEAVORDER_with_src@1@@Z
?cleanup_item_list@JOIN@@AEBAXAEAV?$List@VItem@@@@@Z
?set_semijoin_info@JOIN@@AEAAXXZ
?set_access_methods@JOIN@@AEAA_NXZ
?setup_materialized_table@JOIN@@AEAA_NPEAUst_join_table@@IPEBUst_position@@PEAU3@@Z
?make_tmp_tables_info@JOIN@@AEAA_NXZ
??0?$List_iterator@UTABLE@@@@QEAA@AEAV?$List@UTABLE@@@@@Z
??E?$List_iterator@UTABLE@@@@QEAAPEAUTABLE@@H@Z
??0?$List_iterator@VSemijoin_mat_exec@@@@QEAA@AEAV?$List@VSemijoin_mat_exec@@@@@Z
??E?$List_iterator@VSemijoin_mat_exec@@@@QEAAPEAVSemijoin_mat_exec@@H@Z
?replace@?$List_iterator@VItem@@@@QEAAPEAVItem@@PEAV2@@Z
?rewind@?$List_iterator@VItem@@@@QEAAXXZ
?is_subkey@@YA_NPEAVKEY_PART_INFO@@00@Z
?is_ref_or_null_optimized@@YA_NPEBUst_join_table@@I@Z
??0Plan_change_watchdog@@QEAA@PEBUst_join_table@@_N@Z
??1Plan_change_watchdog@@QEAA@XZ
??$_Debug_lt@AEBNAEBN@std@@YA_NAEBN0PEB_WI@Z
??$forward@AEBN@std@@YAAEBNAEBN@Z
??$_Debug_lt_pred@U?$less@X@std@@AEBNAEBN@std@@YA_NU?$less@X@0@AEBN1PEB_WI@Z
??$?RAEBNAEBN@?$less@X@std@@QEBA_NAEBN0@Z
?last_bit@?1??next_bit@Table_map_iterator@@QEAAHXZ@4QBDB DATA
??0String@@QEAA@I@Z
?append_int@@YA_NPEAVString@@_NPEBD_KJH@Z
?append_str@@YA_NPEAVString@@_NPEBDPEAD@Z
??0?$List_iterator@VLEX_COLUMN@@@@QEAA@AEAV?$List@VLEX_COLUMN@@@@@Z
??E?$List_iterator@VLEX_COLUMN@@@@QEAAPEAVLEX_COLUMN@@H@Z
??0?$List_iterator@Ust_lex_user@@@@QEAA@AEAV?$List@Ust_lex_user@@@@@Z
??E?$List_iterator@Ust_lex_user@@@@QEAAPEAUst_lex_user@@H@Z
??0?$List_iterator_fast@Vset_var_base@@@@QEAA@AEAV?$List@Vset_var_base@@@@@Z
??E?$List_iterator_fast@Vset_var_base@@@@QEAAPEAVset_var_base@@H@Z
?mysql_rewrite_query@@YAXPEAVTHD@@@Z
?pop@base_list@@QEAAPEAXXZ
?push_front@?$List@VItem@@@@QEAA_NPEAVItem@@@Z
?pop@?$List@VItem@@@@QEAAPEAVItem@@XZ
?originally_dependent@Item_in_subselect@@QEBA_NXZ
?is_top_level_item@Item_in_subselect@@QEAA_NXZ
?empty@?$SQL_I_List@Ust_order@@@@QEAAXXZ
?is_part_of_union@st_select_lex@@QEAA_NXZ
?non_agg_field_used@st_select_lex@@QEBA_NXZ
?agg_func_used@st_select_lex@@QEBA_NXZ
?mark_broken@LEX@@QEAAX_N@Z
?is_metadata_used@LEX@@QEBA_NXZ
?setup_order@@YAHPEAVTHD@@V?$Bounds_checked_array@PEAVItem@@@@PEAUTABLE_LIST@@AEAV?$List@VItem@@@@3PEAUst_order@@@Z
?fix_inner_refs@@YA_NPEAVTHD@@AEAV?$List@VItem@@@@PEAVst_select_lex@@V?$Bounds_checked_array@PEAVItem@@@@PEAUst_order@@@Z
?subquery_allows_materialization@@YA_NPEAVItem_in_subselect@@PEAVTHD@@PEAVst_select_lex@@PEBV3@@Z
??0?$Bounds_checked_array@PEAVItem_null_result@@@@QEAA@PEAPEAVItem_null_result@@_K@Z
??A?$Bounds_checked_array@PEAVItem_null_result@@@@QEAAAEAPEAVItem_null_result@@_K@Z
??0ORDER_with_src@JOIN@@QEAA@PEAUst_order@@W4Explain_sort_clause@@@Z
?reserve@?$Mem_root_array@PEAVItem_exists_subselect@@$00@@QEAA_N_K@Z
?push_back@?$Mem_root_array@PEAVItem_exists_subselect@@$00@@QEAA_NAEBQEAVItem_exists_subselect@@@Z
?element_size@?$Mem_root_array@PEAVItem_exists_subselect@@$00@@QEBA_KXZ
?prepare@JOIN@@QEAAHPEAUTABLE_LIST@@IPEAVItem@@IPEAUst_order@@21PEAVst_select_lex@@PEAVst_select_lex_unit@@@Z
?rollup_init@JOIN@@QEAA_NXZ
??0Prepare_error_tracker@JOIN@@QEAA@PEAVTHD@@@Z
??1Prepare_error_tracker@JOIN@@QEAA@XZ
?add_alnum@Opt_trace_struct@@QEAAAEAV1@PEBD@Z
??0?$List_iterator@VItem_outer_ref@@@@QEAA@AEAV?$List@VItem_outer_ref@@@@@Z
??E?$List_iterator@VItem_outer_ref@@@@QEAAPEAVItem_outer_ref@@H@Z
??_9Item@@$BCMA@AA
??_9Item@@$BCNI@AA
??0?$List_iterator@VItem_field@@@@QEAA@AEAV?$List@VItem_field@@@@@Z
??E?$List_iterator@VItem_field@@@@QEAAPEAVItem_field@@H@Z
?mysql_rename_tables@@YA_NPEAVTHD@@PEAUTABLE_LIST@@_N@Z
?do_rename@@YA_NPEAVTHD@@PEAUTABLE_LIST@@PEAD22_N@Z
?reload_acl_and_cache@@YA_NPEAVTHD@@KPEAUTABLE_LIST@@PEAH@Z
?flush_tables_with_read_lock@@YA_NPEAVTHD@@PEAUTABLE_LIST@@@Z
?flush_tables_for_export@@YA_NPEAVTHD@@PEAUTABLE_LIST@@@Z
?is_upgradable_or_exclusive@MDL_ticket@@QEBA_NXZ
??0Lock_tables_prelocking_strategy@@QEAA@XZ
??1Lock_tables_prelocking_strategy@@UEAA@XZ
?query_profile_statistics_info@@3PAUst_field_info@@A DATA
?fix_buffer_pointer@my_decimal@@QEAAXXZ
?sign@my_decimal@@QEBA_NXZ
?sign@my_decimal@@QEAAX_N@Z
?max_my_decimal@@YAXPEAVmy_decimal@@HH@Z
?max_internal_decimal@@YAXPEAVmy_decimal@@@Z
?check_result_and_overflow@@YAHIHPEAVmy_decimal@@@Z
?double2my_decimal@@YAHINPEAVmy_decimal@@@Z
?fill_query_profile_statistics_info@@YAHPEAVTHD@@PEAUTABLE_LIST@@PEAVItem@@@Z
?make_profile_table_for_show@@YAHPEAVTHD@@PEAUst_schema_table@@@Z
?set_label@PROF_MEASUREMENT@@AEAAXPEBD00I@Z
??0PROF_MEASUREMENT@@AEAA@PEAVQUERY_PROFILE@@PEBD@Z
??0PROF_MEASUREMENT@@AEAA@PEAVQUERY_PROFILE@@PEBD11I@Z
??1PROF_MEASUREMENT@@AEAA@XZ
?collect@PROF_MEASUREMENT@@AEAAXXZ
??0?$Queue@VPROF_MEASUREMENT@@@@QEAA@XZ
?push_back@?$Queue@VPROF_MEASUREMENT@@@@QEAAXPEAVPROF_MEASUREMENT@@@Z
?pop@?$Queue@VPROF_MEASUREMENT@@@@QEAAPEAVPROF_MEASUREMENT@@XZ
?is_empty@?$Queue@VPROF_MEASUREMENT@@@@QEAA_NXZ
?new_iterator@?$Queue@VPROF_MEASUREMENT@@@@QEAAPEAXXZ
?iterator_next@?$Queue@VPROF_MEASUREMENT@@@@QEAAPEAXPEAX@Z
?iterator_value@?$Queue@VPROF_MEASUREMENT@@@@QEAAPEAVPROF_MEASUREMENT@@PEAX@Z
??0QUERY_PROFILE@@AEAA@PEAVPROFILING@@PEBD@Z
??1QUERY_PROFILE@@AEAA@XZ
?set_query_source@QUERY_PROFILE@@AEAAXPEADI@Z
?new_status@QUERY_PROFILE@@AEAAXPEBD00I@Z
??0?$Queue@VQUERY_PROFILE@@@@QEAA@XZ
?push_back@?$Queue@VQUERY_PROFILE@@@@QEAAXPEAVQUERY_PROFILE@@@Z
?pop@?$Queue@VQUERY_PROFILE@@@@QEAAPEAVQUERY_PROFILE@@XZ
?is_empty@?$Queue@VQUERY_PROFILE@@@@QEAA_NXZ
?new_iterator@?$Queue@VQUERY_PROFILE@@@@QEAAPEAXXZ
?iterator_next@?$Queue@VQUERY_PROFILE@@@@QEAAPEAXPEAX@Z
?iterator_value@?$Queue@VQUERY_PROFILE@@@@QEAAPEAVQUERY_PROFILE@@PEAX@Z
?next_profile_id@PROFILING@@AEAA_JXZ
??0PROFILING@@QEAA@XZ
??1PROFILING@@QEAA@XZ
?set_query_source@PROFILING@@QEAAXPEADI@Z
?start_new_query@PROFILING@@QEAAXPEBD@Z
?discard_current_query@PROFILING@@QEAAXXZ
?finish_current_query@PROFILING@@QEAAXXZ
?status_change@PROFILING@@QEAAXPEBD00I@Z
?show_profiles@PROFILING@@QEAA_NXZ
?fill_statistics_info@PROFILING@@QEAAHPEAVTHD@@PEAUTABLE_LIST@@PEAVItem@@@Z
?store@Protocol@@QEAA_NI@Z
?opt_clear@Warning_info@@AEAAX_K@Z
?opt_clear_warning_info@Diagnostics_area@@QEAAX_K@Z
??1Diagnostics_area@@QEAA@XZ
??0Protocol@@QEAA@PEAVTHD@@@Z
??1Protocol@@UEAA@XZ
?prepare_for_send@Protocol@@UEAA_NI@Z
??0Protocol_binary@@QEAA@PEAVTHD@@@Z
?type@Protocol_binary@@UEAA?AW4enum_protocol_type@Protocol@@XZ
??1Protocol_binary@@UEAA@XZ
??0sql_digest_storage@@QEAA@XZ
??0sql_digest_state@@QEAA@XZ
?unclean@st_select_lex_unit@@QEAAXXZ
?set_thd@st_select_lex_unit@@QEAAXPEAVTHD@@@Z
?set_query_inner@Statement@@QEAAXAEBVCSET_STRING@@@Z
??0Statement@@QEAA@XZ
?find_by_name@Statement_map@@QEAAPEAVStatement@@PEAUst_mysql_lex_string@@@Z
?find@Statement_map@@QEAAPEAVStatement@@K@Z
??0?$ilink@UItem_change_record@@@@QEAA@XZ
?unlink@?$ilink@UItem_change_record@@@@QEAAXXZ
??1?$ilink@UItem_change_record@@@@UEAA@XZ
??4?$ilink@UItem_change_record@@@@QEAAAEAV0@AEBV0@@Z
?append@?$Dynamic_array@PEAVReprepare_observer@@@@QEAA_NAEBQEAVReprepare_observer@@@Z
?pop@?$Dynamic_array@PEAVReprepare_observer@@@@QEAAAEAPEAVReprepare_observer@@XZ
?push_reprepare_observer@Open_tables_state@@QEAAXPEAVReprepare_observer@@@Z
?pop_reprepare_observer@Open_tables_state@@QEAAPEAVReprepare_observer@@XZ
?empty@?$base_ilist@UItem_change_record@@@@QEAAXXZ
??0?$base_ilist@UItem_change_record@@@@QEAA@XZ
?is_empty@?$base_ilist@UItem_change_record@@@@QEBA_NXZ
?move_elements_to@?$base_ilist@UItem_change_record@@@@QEAAXPEAV1@@Z
??1?$base_ilist@UItem_change_record@@@@QEAA@XZ
?move_elements_to@?$I_List@UItem_change_record@@@@QEAAXPEAV1@@Z
??0?$I_List@UItem_change_record@@@@QEAA@XZ
??1?$I_List@UItem_change_record@@@@QEAA@XZ
?set_stmt_da@THD@@QEAAXPEAVDiagnostics_area@@@Z
?set_thd@select_result@@QEAAXPEAVTHD@@@Z
??0select_send@@QEAA@XZ
?check_simple_select@select_send@@UEBA_NXZ
??1select_send@@UEAA@XZ
?ptr@user_var_entry@@QEBAPEBDXZ
?report_error@Reprepare_observer@@QEAA_NPEAVTHD@@@Z
?is_invalidated@Reprepare_observer@@QEBA_NXZ
?reset_reprepare_observer@Reprepare_observer@@QEAAXXZ
?mysqld_stmt_prepare@@YAXPEAVTHD@@PEBDI@Z
?mysqld_stmt_execute@@YAXPEAVTHD@@PEADI@Z
?mysqld_stmt_close@@YAXPEAVTHD@@PEADI@Z
?mysql_sql_stmt_prepare@@YAXPEAVTHD@@@Z
?mysql_sql_stmt_execute@@YAXPEAVTHD@@@Z
?mysql_sql_stmt_close@@YAXPEAVTHD@@@Z
?mysqld_stmt_fetch@@YAXPEAVTHD@@PEADI@Z
?mysqld_stmt_reset@@YAXPEAVTHD@@PEADI@Z
?mysql_stmt_get_longdata@@YAXPEAVTHD@@PEADK@Z
?reinit_stmt_before_use@@YAXPEAVTHD@@PEAULEX@@@Z
??1Server_runnable@@UEAA@XZ
??0Server_runnable@@QEAA@XZ
??0Ed_result_set@@QEAA@PEAV?$List@VEd_row@@@@_KPEAUst_mem_root@@@Z
??1Ed_result_set@@QEAA@XZ
??3Ed_result_set@@SAXPEAX_K@Z
??0?$List@VEd_row@@@@QEAA@XZ
?push_back@?$List@VEd_row@@@@QEAA_NPEAVEd_row@@PEAUst_mem_root@@@Z
??0Ed_connection@@QEAA@PEAVTHD@@@Z
?execute_direct@Ed_connection@@QEAA_NUst_mysql_lex_string@@@Z
?execute_direct@Ed_connection@@QEAA_NPEAVServer_runnable@@@Z
?store_result_set@Ed_connection@@QEAAPEAVEd_result_set@@XZ
?free_old_result@Ed_connection@@AEAAXXZ
?add_result_set@Ed_connection@@AEAAXPEAVEd_result_set@@@Z
??0Ed_row@@QEAA@PEAUEd_column@@_K@Z
??0select_analyse@@QEAA@PEAVselect_result@@PEBUProc_analyse_params@@@Z
??1select_analyse@@UEAA@XZ
?field_count@select_analyse@@UEBAIAEAV?$List@VItem@@@@@Z
?prepare@select_analyse@@UEAAHAEAV?$List@VItem@@@@PEAVst_select_lex_unit@@@Z
??0Select_fetch_protocol_binary@@QEAA@PEAVTHD@@@Z
?send_result_set_metadata@Select_fetch_protocol_binary@@UEAA_NAEAV?$List@VItem@@@@I@Z
?send_data@Select_fetch_protocol_binary@@UEAA_NAEAV?$List@VItem@@@@@Z
?send_eof@Select_fetch_protocol_binary@@UEAA_NXZ
??1Select_fetch_protocol_binary@@UEAA@XZ
??0Prepared_statement@@QEAA@PEAVTHD@@@Z
??1Prepared_statement@@UEAA@XZ
?setup_set_params@Prepared_statement@@QEAAXXZ
?type@Prepared_statement@@UEBA?AW4Type@Query_arena@@XZ
?cleanup_stmt@Prepared_statement@@UEAAXXZ
?set_name@Prepared_statement@@QEAA_NPEAUst_mysql_lex_string@@@Z
?close_cursor@Prepared_statement@@QEAAXXZ
?is_in_use@Prepared_statement@@QEAA_NXZ
?is_sql_prepare@Prepared_statement@@QEBA_NXZ
?set_sql_prepare@Prepared_statement@@QEAAXXZ
?prepare@Prepared_statement@@QEAA_NPEBDI@Z
?execute_loop@Prepared_statement@@QEAA_NPEAVString@@_NPEAE2@Z
?execute_server_runnable@Prepared_statement@@QEAA_NPEAVServer_runnable@@@Z
?deallocate@Prepared_statement@@QEAAXXZ
?set_db@Prepared_statement@@AEAA_NPEBDI@Z
?set_parameters@Prepared_statement@@AEAA_NPEAVString@@PEAE1@Z
?execute@Prepared_statement@@AEAA_NPEAVString@@_N@Z
?reprepare@Prepared_statement@@AEAA_NXZ
?validate_metadata@Prepared_statement@@AEAA_NPEAV1@@Z
?swap_prepared_statement@Prepared_statement@@AEAAXPEAV1@@Z
??0Execute_sql_statement@@QEAA@Ust_mysql_lex_string@@@Z
?execute_server_code@Execute_sql_statement@@UEAA_NPEAVTHD@@@Z
??1Execute_sql_statement@@UEAA@XZ
??0Protocol_local@@QEAA@PEAVTHD@@PEAVEd_connection@@@Z
??1Protocol_local@@UEAA@XZ
?prepare_for_resend@Protocol_local@@MEAAXXZ
?write@Protocol_local@@MEAA_NXZ
?store_null@Protocol_local@@MEAA_NXZ
?store_tiny@Protocol_local@@MEAA_N_J@Z
?store_short@Protocol_local@@MEAA_N_J@Z
?store_long@Protocol_local@@MEAA_N_J@Z
?store_longlong@Protocol_local@@MEAA_N_J_N@Z
?store_decimal@Protocol_local@@MEAA_NPEBVmy_decimal@@@Z
?store@Protocol_local@@MEAA_NPEBD_KPEBUcharset_info_st@@@Z
?store@Protocol_local@@MEAA_NPEBD_KPEBUcharset_info_st@@2@Z
?store@Protocol_local@@MEAA_NPEAUst_mysql_time@@I@Z
?store_date@Protocol_local@@MEAA_NPEAUst_mysql_time@@@Z
?store_time@Protocol_local@@MEAA_NPEAUst_mysql_time@@I@Z
?store@Protocol_local@@MEAA_NMIPEAVString@@@Z
?store@Protocol_local@@MEAA_NNIPEAVString@@@Z
?store@Protocol_local@@MEAA_NPEAVField@@@Z
?send_result_set_metadata@Protocol_local@@MEAA_NPEAV?$List@VItem@@@@I@Z
?send_out_parameters@Protocol_local@@MEAA_NPEAV?$List@VItem_param@@@@@Z
?type@Protocol_local@@MEAA?AW4enum_protocol_type@Protocol@@XZ
?send_ok@Protocol_local@@MEAA_NII_K0PEBD@Z
?send_eof@Protocol_local@@MEAA_NII@Z
?send_error@Protocol_local@@MEAA_NIPEBD0@Z
?store_string@Protocol_local@@AEAA_NPEBD_KPEBUcharset_info_st@@2@Z
?store_column@Protocol_local@@AEAA_NPEBX_K@Z
?opt_add_row_to_rset@Protocol_local@@AEAAXXZ
?is_param_null@@YA_NPEBEK@Z
?is_param_long_data_type@@YA_NPEAVItem_param@@@Z
??0?$List_iterator_fast@V?$List@VItem@@@@@@QEAA@AEAV?$List@V?$List@VItem@@@@@@@Z
??E?$List_iterator_fast@V?$List@VItem@@@@@@QEAAPEAV?$List@VItem@@@@H@Z
?rewind@?$List_iterator_fast@V?$List@VItem@@@@@@QEAAXXZ
??0?$List_iterator@VItem_param@@@@QEAA@AEAV?$List@VItem_param@@@@@Z
??E?$List_iterator@VItem_param@@@@QEAAPEAVItem_param@@H@Z
?at@?$Mem_root_array@PEAUst_order@@$00@@QEAAAEAPEAUst_order@@_K@Z
?size@?$Mem_root_array@PEAUst_order@@$00@@QEBA_KXZ
?global_plugin_typelib_names@@3PAPEBDA DATA
?LOCK_plugin_delete@@3Ust_mysql_mutex@@A DATA
?plugin_type_initialize@@3PAP6AHPEAUst_plugin_int@@@ZA DATA
?plugin_type_deinitialize@@3PAP6AHPEAUst_plugin_int@@@ZA DATA
?LOCK_plugin@@3Ust_mysql_mutex@@A DATA
?opt_plugin_load_list_ptr@@3PEAV?$I_List@Vi_string@@@@EA DATA
?opt_plugin_dir_ptr@@3PEADEA DATA
?opt_plugin_dir@@3PADA DATA
?plugin_type_names@@3QBUst_mysql_lex_string@@B DATA
?plugin_init@@YAHPEAHPEAPEADH@Z
?plugin_shutdown@@YAXXZ
?memcached_shutdown@@YAXXZ
?add_plugin_options@@YAXPEAV?$vector@Umy_option@@V?$allocator@Umy_option@@@std@@@std@@PEAUst_mem_root@@@Z
?plugin_is_ready@@YA_NPEBUst_mysql_lex_string@@H@Z
?plugin_lock@@YAPEAPEAUst_plugin_int@@PEAVTHD@@PEAPEAPEAU1@@Z
?plugin_lock_by_name@@YAPEAPEAUst_plugin_int@@PEAVTHD@@PEBUst_mysql_lex_string@@H@Z
?plugin_unlock@@YAXPEAVTHD@@PEAPEAUst_plugin_int@@@Z
?plugin_unlock_list@@YAXPEAVTHD@@PEAPEAPEAUst_plugin_int@@I@Z
?mysql_install_plugin@@YA_NPEAVTHD@@PEBUst_mysql_lex_string@@1@Z
?mysql_uninstall_plugin@@YA_NPEAVTHD@@PEBUst_mysql_lex_string@@@Z
?plugin_thdvar_init@@YAXPEAVTHD@@_N@Z
?plugin_thdvar_cleanup@@YAXPEAVTHD@@@Z
?plugin_status@@YA?AW4SHOW_COMP_OPTION@@PEBD_KH@Z
?check_valid_path@@YA_NPEBD_K@Z
?plugin_foreach_with_mask@@YA_NPEAVTHD@@P6AD0PEAPEAUst_plugin_int@@PEAX@ZHI2@Z
?plugin_find_by_type@@YAPEAUst_plugin_int@@PEAUst_mysql_lex_string@@H@Z
?lock_plugin_data@@YAHXZ
?unlock_plugin_data@@YAHXZ
?c_ptr_quick@String@@QEAAPEADXZ
?empty@?$base_ilist@Vi_string@@@@QEAAXXZ
??0?$base_ilist@Vi_string@@@@QEAA@XZ
??1?$base_ilist@Vi_string@@@@QEAA@XZ
??0?$I_List@Vi_string@@@@QEAA@XZ
??1?$I_List@Vi_string@@@@QEAA@XZ
?find_sys_var@@YAPEAVsys_var@@PEAVTHD@@PEBDI@Z
??2sys_var_pluginvar@@SAPEAX_KPEAUst_mem_root@@@Z
??3sys_var_pluginvar@@SAXPEAX_K@Z
??0sys_var_pluginvar@@QEAA@PEAUsys_var_chain@@PEBDPEAUst_mysql_sys_var@@@Z
?cast_pluginvar@sys_var_pluginvar@@UEAAPEAV1@XZ
?check_update_type@sys_var_pluginvar@@UEAA_NW4Item_result@@@Z
?real_value_ptr@sys_var_pluginvar@@QEAAPEAEPEAVTHD@@W4enum_var_type@@@Z
?plugin_var_typelib@sys_var_pluginvar@@QEAAPEAUst_typelib@@XZ
?do_value_ptr@sys_var_pluginvar@@QEAAPEAEPEAVTHD@@W4enum_var_type@@PEAUst_mysql_lex_string@@@Z
?session_value_ptr@sys_var_pluginvar@@UEAAPEAEPEAVTHD@@PEAUst_mysql_lex_string@@@Z
?global_value_ptr@sys_var_pluginvar@@UEAAPEAEPEAVTHD@@PEAUst_mysql_lex_string@@@Z
?do_check@sys_var_pluginvar@@UEAA_NPEAVTHD@@PEAVset_var@@@Z
?session_save_default@sys_var_pluginvar@@UEAAXPEAVTHD@@PEAVset_var@@@Z
?global_save_default@sys_var_pluginvar@@UEAAXPEAVTHD@@PEAVset_var@@@Z
?session_update@sys_var_pluginvar@@UEAA_NPEAVTHD@@PEAVset_var@@@Z
?global_update@sys_var_pluginvar@@UEAA_NPEAVTHD@@PEAVset_var@@@Z
??1sys_var_pluginvar@@UEAA@XZ
get_plugin_hash_key
get_bookmark_hash_key
??0?$base_ilist_iterator@Vi_string@@@@QEAA@AEAV?$base_ilist@Vi_string@@@@@Z
?next@?$base_ilist_iterator@Vi_string@@@@QEAAPEAVi_string@@XZ
??0?$I_List_iterator@Vi_string@@@@QEAA@AEAV?$I_List@Vi_string@@@@@Z
??E?$I_List_iterator@Vi_string@@@@QEAAPEAVi_string@@H@Z
get_one_plugin_option
?no_semijoin@st_position@@QEAAXXZ
??RJoin_tab_compare_default@@QEAA_NPEBUst_join_table@@0@Z
??RJoin_tab_compare_straight@@QEAA_NPEBUst_join_table@@0@Z
??0Join_tab_compare_embedded_first@@QEAA@PEBUTABLE_LIST@@@Z
??RJoin_tab_compare_embedded_first@@QEAA_NPEBUst_join_table@@0@Z
?choose_table_order@Optimize_table_order@@QEAA_NXZ
?best_access_path@Optimize_table_order@@AEAAXPEAUst_join_table@@_KI_NNPEAUst_position@@3@Z
?check_interleaving_with_nj@Optimize_table_order@@AEAA_NPEAUst_join_table@@@Z
?advance_sj_state@Optimize_table_order@@AEAAX_KPEBUst_join_table@@IPEAN2PEAUst_position@@@Z
?backout_nj_state@Optimize_table_order@@AEAAX_KPEBUst_join_table@@@Z
?optimize_straight_join@Optimize_table_order@@AEAAX_K@Z
?greedy_search@Optimize_table_order@@AEAA_N_K@Z
?best_extension_by_limited_search@Optimize_table_order@@AEAA_N_KINNI@Z
?eq_ref_extension_by_limited_search@Optimize_table_order@@AEAA_K_KINNI@Z
?consider_plan@Optimize_table_order@@AEAAXINNPEAVOpt_trace_object@@@Z
?fix_semijoin_strategies@Optimize_table_order@@AEAA_NXZ
?semijoin_firstmatch_loosescan_access_paths@Optimize_table_order@@AEAA_NII_K_N1PEAN2@Z
?semijoin_mat_scan_access_paths@Optimize_table_order@@AEAAXII_KPEAUTABLE_LIST@@_NPEAN3@Z
?semijoin_mat_lookup_access_paths@Optimize_table_order@@AEAAXIPEAUTABLE_LIST@@PEAN1@Z
?semijoin_dupsweedout_access_paths@Optimize_table_order@@AEAAXII_KPEAN1@Z
?determine_search_depth@Optimize_table_order@@CAIII@Z
?get_partial_join_cost@@YAXPEAVJOIN@@IPEAN1@Z
?add_utf8@Opt_trace_struct@@QEAAAEAV1@PEBD_K@Z
?add@Opt_trace_struct@@QEAAAEAV1@PEBDN@Z
??0Loose_scan_opt@@QEAA@XZ
?init@Loose_scan_opt@@QEAAXPEAUst_join_table@@_K_N2@Z
?next_ref_key@Loose_scan_opt@@QEAAXXZ
?add_keyuse@Loose_scan_opt@@QEAAX_KPEAVKey_use@@@Z
?have_a_case@Loose_scan_opt@@QEAA_NXZ
?check_ref_access_part1@Loose_scan_opt@@QEAAXPEAUst_join_table@@IPEAVKey_use@@K@Z
?check_range_access@Loose_scan_opt@@QEAAXPEAVJOIN@@IPEAVQUICK_SELECT_I@@@Z
?save_to_position@Loose_scan_opt@@QEAAXPEAUst_join_table@@PEAUst_position@@@Z
??$merge_sort@Ust_join_table@@VJoin_tab_compare_embedded_first@@@@YAXPEAPEAUst_join_table@@0VJoin_tab_compare_embedded_first@@@Z
??$merge_sort@Ust_join_table@@VJoin_tab_compare_straight@@@@YAXPEAPEAUst_join_table@@0VJoin_tab_compare_straight@@@Z
??$merge_sort@Ust_join_table@@VJoin_tab_compare_default@@@@YAXPEAPEAUst_join_table@@0VJoin_tab_compare_default@@@Z
??0?$StringBuffer@$0CA@@@QEAA@XZ
??1?$StringBuffer@$0CA@@@QEAA@XZ
??$insert_sort@Ust_join_table@@VJoin_tab_compare_embedded_first@@@@YAXPEAPEAUst_join_table@@0VJoin_tab_compare_embedded_first@@@Z
??0?$allocator@PEAUst_join_table@@@std@@QEAA@XZ
?deallocate@?$allocator@PEAUst_join_table@@@std@@QEAAXPEAPEAUst_join_table@@_K@Z
?allocate@?$allocator@PEAUst_join_table@@@std@@QEAAPEAPEAUst_join_table@@_K@Z
?construct@?$allocator@PEAUst_join_table@@@std@@QEAAXPEAPEAUst_join_table@@AEBQEAU3@@Z
?max_size@?$allocator@PEAUst_join_table@@@std@@QEBA_KXZ
?max_size@?$allocator_traits@V?$allocator@PEAUst_join_table@@@std@@@std@@SA_KAEBV?$allocator@PEAUst_join_table@@@2@@Z
??0?$_Wrap_alloc@V?$allocator@PEAUst_join_table@@@std@@@std@@QEAA@XZ
?allocate@?$_Wrap_alloc@V?$allocator@PEAUst_join_table@@@std@@@std@@QEAAPEAPEAUst_join_table@@_K@Z
?deallocate@?$_Wrap_alloc@V?$allocator@PEAUst_join_table@@@std@@@std@@QEAAXPEAPEAUst_join_table@@_K@Z
?max_size@?$_Wrap_alloc@V?$allocator@PEAUst_join_table@@@std@@@std@@QEBA_KXZ
?deallocate@?$allocator@PEAPEAUst_join_table@@@std@@QEAAXPEAPEAPEAUst_join_table@@_K@Z
?allocate@?$allocator@PEAPEAUst_join_table@@@std@@QEAAPEAPEAPEAUst_join_table@@_K@Z
?allocate@?$_Wrap_alloc@V?$allocator@PEAPEAUst_join_table@@@std@@@std@@QEAAPEAPEAPEAUst_join_table@@_K@Z
?deallocate@?$_Wrap_alloc@V?$allocator@PEAPEAUst_join_table@@@std@@@std@@QEAAXPEAPEAPEAUst_join_table@@_K@Z
??0?$_Deque_val@U?$_Deque_simple_types@PEAUst_join_table@@@std@@@std@@QEAA@XZ
??1?$_Deque_val@U?$_Deque_simple_types@PEAUst_join_table@@@std@@@std@@QEAA@XZ
??0?$_Deque_alloc@$0A@U?$_Deque_base_types@PEAUst_join_table@@V?$allocator@PEAUst_join_table@@@std@@@std@@@std@@QEAA@AEBV?$allocator@PEAUst_join_table@@@1@@Z
??1?$_Deque_alloc@$0A@U?$_Deque_base_types@PEAUst_join_table@@V?$allocator@PEAUst_join_table@@@std@@@std@@@std@@QEAA@XZ
?_Alloc_proxy@?$_Deque_alloc@$0A@U?$_Deque_base_types@PEAUst_join_table@@V?$allocator@PEAUst_join_table@@@std@@@std@@@std@@QEAAXXZ
?_Free_proxy@?$_Deque_alloc@$0A@U?$_Deque_base_types@PEAUst_join_table@@V?$allocator@PEAUst_join_table@@@std@@@std@@@std@@QEAAXXZ
??0?$deque@PEAUst_join_table@@V?$allocator@PEAUst_join_table@@@std@@@std@@QEAA@XZ
??1?$deque@PEAUst_join_table@@V?$allocator@PEAUst_join_table@@@std@@@std@@QEAA@XZ
?begin@?$deque@PEAUst_join_table@@V?$allocator@PEAUst_join_table@@@std@@@std@@QEAA?AV?$_Deque_iterator@V?$_Deque_val@U?$_Deque_simple_types@PEAUst_join_table@@@std@@@std@@@2@XZ
?max_size@?$deque@PEAUst_join_table@@V?$allocator@PEAUst_join_table@@@std@@@std@@QEBA_KXZ
?empty@?$deque@PEAUst_join_table@@V?$allocator@PEAUst_join_table@@@std@@@std@@QEBA_NXZ
?front@?$deque@PEAUst_join_table@@V?$allocator@PEAUst_join_table@@@std@@@std@@QEAAAEAPEAUst_join_table@@XZ
?pop_front@?$deque@PEAUst_join_table@@V?$allocator@PEAUst_join_table@@@std@@@std@@QEAAXXZ
?push_back@?$deque@PEAUst_join_table@@V?$allocator@PEAUst_join_table@@@std@@@std@@QEAAXAEBQEAUst_join_table@@@Z
?pop_back@?$deque@PEAUst_join_table@@V?$allocator@PEAUst_join_table@@@std@@@std@@QEAAXXZ
?_Xlen@?$deque@PEAUst_join_table@@V?$allocator@PEAUst_join_table@@@std@@@std@@IEBAXXZ
?_Tidy@?$deque@PEAUst_join_table@@V?$allocator@PEAUst_join_table@@@std@@@std@@IEAAXXZ
?_Orphan_off@?$deque@PEAUst_join_table@@V?$allocator@PEAUst_join_table@@@std@@@std@@IEBAX_K@Z
??0?$queue@PEAUst_join_table@@V?$deque@PEAUst_join_table@@V?$allocator@PEAUst_join_table@@@std@@@std@@@std@@QEAA@XZ
?empty@?$queue@PEAUst_join_table@@V?$deque@PEAUst_join_table@@V?$allocator@PEAUst_join_table@@@std@@@std@@@std@@QEBA_NXZ
?front@?$queue@PEAUst_join_table@@V?$deque@PEAUst_join_table@@V?$allocator@PEAUst_join_table@@@std@@@std@@@std@@QEAAAEAPEAUst_join_table@@XZ
?push@?$queue@PEAUst_join_table@@V?$deque@PEAUst_join_table@@V?$allocator@PEAUst_join_table@@@std@@@std@@@std@@QEAAXAEBQEAUst_join_table@@@Z
?pop@?$queue@PEAUst_join_table@@V?$deque@PEAUst_join_table@@V?$allocator@PEAUst_join_table@@@std@@@std@@@std@@QEAAXXZ
??1?$queue@PEAUst_join_table@@V?$deque@PEAUst_join_table@@V?$allocator@PEAUst_join_table@@@std@@@std@@@std@@QEAA@XZ
??$insert_sort@Ust_join_table@@VJoin_tab_compare_straight@@@@YAXPEAPEAUst_join_table@@0VJoin_tab_compare_straight@@@Z
??$insert_sort@Ust_join_table@@VJoin_tab_compare_default@@@@YAXPEAPEAUst_join_table@@0VJoin_tab_compare_default@@@Z
??0?$_Deque_const_iterator@V?$_Deque_val@U?$_Deque_simple_types@PEAUst_join_table@@@std@@@std@@@std@@QEAA@_KPEBU_Container_base12@1@@Z
??D?$_Deque_const_iterator@V?$_Deque_val@U?$_Deque_simple_types@PEAUst_join_table@@@std@@@std@@@std@@QEBAAEBQEAUst_join_table@@XZ
?_Setcont@?$_Deque_const_iterator@V?$_Deque_val@U?$_Deque_simple_types@PEAUst_join_table@@@std@@@std@@@std@@QEAAXPEBV?$_Deque_val@U?$_Deque_simple_types@PEAUst_join_table@@@std@@@2@@Z
??1?$_Deque_const_iterator@V?$_Deque_val@U?$_Deque_simple_types@PEAUst_join_table@@@std@@@std@@@std@@QEAA@XZ
??0?$_Deque_iterator@V?$_Deque_val@U?$_Deque_simple_types@PEAUst_join_table@@@std@@@std@@@std@@QEAA@_KPEBU_Container_base12@1@@Z
??D?$_Deque_iterator@V?$_Deque_val@U?$_Deque_simple_types@PEAUst_join_table@@@std@@@std@@@std@@QEBAAEAPEAUst_join_table@@XZ
??1?$_Deque_iterator@V?$_Deque_val@U?$_Deque_simple_types@PEAUst_join_table@@@std@@@std@@@std@@QEAA@XZ
??$destroy@PEAUst_join_table@@@?$_Wrap_alloc@V?$allocator@PEAUst_join_table@@@std@@@std@@QEAAXPEAPEAUst_join_table@@@Z
??$construct@PEAUst_join_table@@AEBQEAU1@@?$_Wrap_alloc@V?$allocator@PEAUst_join_table@@@std@@@std@@QEAAXPEAPEAUst_join_table@@AEBQEAU2@@Z
??$?0U?$_Wrap_alloc@V?$allocator@PEAUst_join_table@@@std@@@std@@@?$_Wrap_alloc@V?$allocator@PEAPEAUst_join_table@@@std@@@std@@QEAA@AEBU?$_Wrap_alloc@V?$allocator@PEAUst_join_table@@@std@@@1@@Z
??$?0PEAUst_join_table@@@?$allocator@PEAPEAUst_join_table@@@std@@QEAA@AEBV?$allocator@PEAUst_join_table@@@1@@Z
??$destroy@PEAPEAUst_join_table@@@?$_Wrap_alloc@V?$allocator@PEAUst_join_table@@@std@@@std@@QEAAXPEAPEAPEAUst_join_table@@@Z
??$_Uninitialized_copy@PEAPEAPEAUst_join_table@@PEAPEAPEAU1@U?$_Wrap_alloc@V?$allocator@PEAPEAUst_join_table@@@std@@@std@@@std@@YAPEAPEAPEAUst_join_table@@PEAPEAPEAU1@00AEAU?$_Wrap_alloc@V?$allocator@PEAPEAUst_join_table@@@std@@@0@@Z
??$_Uninitialized_default_fill_n@PEAPEAPEAUst_join_table@@_KU?$_Wrap_alloc@V?$allocator@PEAPEAUst_join_table@@@std@@@std@@@std@@YAXPEAPEAPEAUst_join_table@@_KAEAU?$_Wrap_alloc@V?$allocator@PEAPEAUst_join_table@@@std@@@0@@Z
??$_Destroy_range@U?$_Wrap_alloc@V?$allocator@PEAPEAUst_join_table@@@std@@@std@@@std@@YAXPEAPEAPEAUst_join_table@@0AEAU?$_Wrap_alloc@V?$allocator@PEAPEAUst_join_table@@@std@@@0@@Z
??$_Allocate@PEAUst_join_table@@@std@@YAPEAPEAUst_join_table@@_KPEAPEAU1@@Z
??$_Allocate@PEAPEAUst_join_table@@@std@@YAPEAPEAPEAUst_join_table@@_KPEAPEAPEAU1@@Z
??$destroy@PEAUst_join_table@@@?$allocator_traits@V?$allocator@PEAUst_join_table@@@std@@@std@@SAXAEAV?$allocator@PEAUst_join_table@@@1@PEAPEAUst_join_table@@@Z
??$forward@AEBQEAUst_join_table@@@std@@YAAEBQEAUst_join_table@@AEBQEAU1@@Z
??$construct@PEAUst_join_table@@AEBQEAU1@@?$allocator_traits@V?$allocator@PEAUst_join_table@@@std@@@std@@SAXAEAV?$allocator@PEAUst_join_table@@@1@PEAPEAUst_join_table@@AEBQEAU3@@Z
??$destroy@PEAPEAUst_join_table@@@?$allocator_traits@V?$allocator@PEAUst_join_table@@@std@@@std@@SAXAEAV?$allocator@PEAUst_join_table@@@1@PEAPEAPEAUst_join_table@@@Z
??$_Unchecked@PEAPEAPEAUst_join_table@@@std@@YAPEAPEAPEAUst_join_table@@PEAPEAPEAU1@@Z
??$_Uninit_copy@PEAPEAPEAUst_join_table@@PEAPEAPEAU1@U?$_Wrap_alloc@V?$allocator@PEAPEAUst_join_table@@@std@@@std@@@std@@YAPEAPEAPEAUst_join_table@@PEAPEAPEAU1@00AEAU?$_Wrap_alloc@V?$allocator@PEAPEAUst_join_table@@@std@@@0@@Z
??$_Rechecked@PEAPEAPEAUst_join_table@@PEAPEAPEAU1@@std@@YAAEAPEAPEAPEAUst_join_table@@AEAPEAPEAPEAU1@PEAPEAPEAU1@@Z
??$_Val_type@PEAPEAPEAUst_join_table@@@std@@YAPEAPEAPEAUst_join_table@@PEAPEAPEAU1@@Z
??$_Ptr_cat@PEAPEAUst_join_table@@PEAPEAU1@@std@@YA?AU_Scalar_ptr_iterator_tag@0@PEAPEAPEAUst_join_table@@0@Z
??$_Uninit_def_fill_n@PEAPEAUst_join_table@@_KPEAPEAU1@@std@@YAXPEAPEAPEAUst_join_table@@_KAEAU?$_Wrap_alloc@V?$allocator@PEAPEAUst_join_table@@@std@@@0@0U_Scalar_ptr_iterator_tag@0@@Z
??$_Destroy_range@U?$_Wrap_alloc@V?$allocator@PEAPEAUst_join_table@@@std@@@std@@@std@@YAXPEAPEAPEAUst_join_table@@0AEAU?$_Wrap_alloc@V?$allocator@PEAPEAUst_join_table@@@std@@@0@U_Scalar_ptr_iterator_tag@0@@Z
??$destroy@PEAUst_join_table@@@?$allocator@PEAUst_join_table@@@std@@QEAAXPEAPEAUst_join_table@@@Z
??$destroy@PEAPEAUst_join_table@@@?$allocator@PEAUst_join_table@@@std@@QEAAXPEAPEAPEAUst_join_table@@@Z
??$_Uninit_copy@PEAPEAUst_join_table@@PEAPEAU1@@std@@YAPEAPEAPEAUst_join_table@@PEAPEAPEAU1@00AEAU?$_Wrap_alloc@V?$allocator@PEAPEAUst_join_table@@@std@@@0@U_Scalar_ptr_iterator_tag@0@@Z
??$_Fill_n@PEAPEAPEAUst_join_table@@_KPEAPEAU1@@std@@YAPEAPEAPEAUst_join_table@@PEAPEAPEAU1@_KAEBQEAPEAU1@@Z
??$_Debug_range@PEAPEAPEAUst_join_table@@@std@@YAXPEAPEAPEAUst_join_table@@0PEB_WI@Z
??$_Debug_pointer@PEAPEAUst_join_table@@@std@@YAXPEAPEAPEAUst_join_table@@PEB_WI@Z
??$_Iter_cat@PEAPEAPEAUst_join_table@@@std@@YA?AUrandom_access_iterator_tag@0@AEBQEAPEAPEAUst_join_table@@@Z
??$_Debug_range2@PEAPEAPEAUst_join_table@@@std@@YAXPEAPEAPEAUst_join_table@@0PEB_WIUrandom_access_iterator_tag@0@@Z
??2String@@SAPEAX_KPEAUst_mem_root@@@Z
??3String@@SAXPEAXPEAUst_mem_root@@@Z
??0?$SQL_I_List@UTABLE_LIST@@@@QEAA@AEBV0@@Z
??0st_ha_create_information@@QEAA@AEBU0@@Z
?push_back@?$List@VString@@@@QEAA_NPEAVString@@@Z
?head@?$List@D@@QEAAPEADXZ
?execute@Sql_cmd_alter_table_exchange_partition@@UEAA_NPEAVTHD@@@Z
?exchange_partition@Sql_cmd_alter_table_exchange_partition@@AEAA_NPEAVTHD@@PEAUTABLE_LIST@@PEAVAlter_info@@@Z
?execute@Sql_cmd_alter_table_analyze_partition@@UEAA_NPEAVTHD@@@Z
?execute@Sql_cmd_alter_table_check_partition@@UEAA_NPEAVTHD@@@Z
?execute@Sql_cmd_alter_table_optimize_partition@@UEAA_NPEAVTHD@@@Z
?execute@Sql_cmd_alter_table_repair_partition@@UEAA_NPEAVTHD@@@Z
?execute@Sql_cmd_alter_table_truncate_partition@@UEAA_NPEAVTHD@@@Z
?partition_keywords@@3QBUst_mysql_lex_string@@B DATA
?dup@String@@QEBAPEADPEAUst_mem_root@@@Z
?cmp@Field@@QEAAHPEBE@Z
?get_parts_for_update@@YAHPEBEPEAE0PEAVpartition_info@@PEAI3PEA_J@Z
?get_part_for_delete@@YAHPEBE0PEAVpartition_info@@PEAI@Z
?prune_partition_set@@YAXPEBUTABLE@@PEAUpart_id_range@@@Z
?set_linear_hash_mask@@YAXPEAVpartition_info@@I@Z
?fix_partition_func@@YA_NPEAVTHD@@PEAUTABLE@@_N@Z
?partition_key_modified@@YA_NPEAUTABLE@@PEBUst_bitmap@@@Z
?get_partition_set@@YAXPEBUTABLE@@PEAEIPEBUst_key_range@@PEAUpart_id_range@@@Z
?get_partition_field_store_length@@YAIPEAVField@@@Z
?get_full_part_id_from_key@@YAXPEBUTABLE@@PEAEPEAUst_key@@PEBUst_key_range@@PEAUpart_id_range@@@Z
?mysql_unpack_partition@@YA_NPEAVTHD@@PEADIPEAUTABLE@@_NPEAUhandlerton@@PEA_N@Z
?make_used_partitions_str@@YA_NPEAVpartition_info@@PEAV?$List@$$CBD@@@Z
?get_list_array_idx_for_endpoint@@YAIPEAVpartition_info@@_N1@Z
?get_partition_id_range_for_endpoint@@YAIPEAVpartition_info@@_N1@Z
?check_part_func_fields@@YA_NPEAPEAVField@@_N@Z
?field_is_partition_charset@@YA_NPEAVField@@@Z
?convert_charset_partition_constant@@YAPEAVItem@@PEAV1@PEBUcharset_info_st@@@Z
?mem_alloc_error@@YAX_K@Z
?truncate_partition_filename@@YAXPEAD@Z
?push_back@?$List@Vpartition_element@@@@QEAA_NPEAVpartition_element@@@Z
?init@Name_resolution_context@@QEAAXXZ
??0?$List@D@@QEAA@AEBV0@@Z
?set_agg_func_used@st_select_lex@@QEAAX_N@Z
?get_tot_partitions@partition_info@@QEAAIXZ
?get_next_partition_id_range@@YAIPEAUst_partition_iter@@@Z
?fast_alter_partition_table@@YAIPEAVTHD@@PEAUTABLE@@PEAVAlter_info@@PEAUst_ha_create_information@@PEAUTABLE_LIST@@PEADPEBDPEAVpartition_info@@@Z
?set_all_part_state@@YAXPEAVpartition_info@@W4partition_state@@@Z
?set_part_state@@YA_NPEAVAlter_info@@PEAVpartition_info@@W4partition_state@@@Z
?prep_alter_part_table@@YAIPEAVTHD@@PEAUTABLE@@PEAVAlter_info@@PEAUst_ha_create_information@@PEAVAlter_table_ctx@@PEA_NPEAPEAVpartition_info@@@Z
?generate_partition_syntax@@YAPEADPEAVpartition_info@@PEAI_N2PEAUst_ha_create_information@@PEAVAlter_info@@PEBD@Z
?verify_data_with_partition@@YA_NPEAUTABLE@@0I@Z
?compare_partition_options@@YA_NPEAUst_ha_create_information@@PEAVpartition_element@@@Z
?create_partition_name@@YAXPEADPEBD1I_N@Z
?create_subpartition_name@@YAXPEADPEBD11I@Z
?set_field_ptr@@YAXPEAPEAVField@@PEBE1@Z
?set_key_field_ptr@@YAXPEAUst_key@@PEBE1@Z
?get_partition_id_list_col@@YAHPEAVpartition_info@@PEAIPEA_J@Z
?get_partition_id_list@@YAHPEAVpartition_info@@PEAIPEA_J@Z
?get_partition_id_range_col@@YAHPEAVpartition_info@@PEAIPEA_J@Z
?get_partition_id_range@@YAHPEAVpartition_info@@PEAIPEA_J@Z
?get_partition_id_hash_nosub@@YAHPEAVpartition_info@@PEAIPEA_J@Z
?get_partition_id_key_nosub@@YAHPEAVpartition_info@@PEAIPEA_J@Z
?get_partition_id_linear_hash_nosub@@YAHPEAVpartition_info@@PEAIPEA_J@Z
?get_partition_id_linear_key_nosub@@YAHPEAVpartition_info@@PEAIPEA_J@Z
?get_partition_id_with_sub@@YAHPEAVpartition_info@@PEAIPEA_J@Z
?get_partition_id_hash_sub@@YAHPEAVpartition_info@@PEAI@Z
?get_partition_id_key_sub@@YAHPEAVpartition_info@@PEAI@Z
?get_partition_id_linear_hash_sub@@YAHPEAVpartition_info@@PEAI@Z
?get_partition_id_linear_key_sub@@YAHPEAVpartition_info@@PEAI@Z
?get_next_partition_id_list@@YAIPEAUst_partition_iter@@@Z
?get_part_iter_for_interval_via_mapping@@YAHPEAVpartition_info@@_NPEAIPEAE3IIIPEAUst_partition_iter@@@Z
?get_part_iter_for_interval_cols_via_map@@YAHPEAVpartition_info@@_NPEAIPEAE3IIIPEAUst_partition_iter@@@Z
?get_part_iter_for_interval_via_walking@@YAHPEAVpartition_info@@_NPEAIPEAE3IIIPEAUst_partition_iter@@@Z
?partition_default_handling@@YA_NPEAUTABLE@@PEAVpartition_info@@_NPEBD@Z
?check_signed_flag@@YAHPEAVpartition_info@@@Z
?replace@?$List_iterator@Vpartition_element@@@@QEAAPEAVpartition_element@@PEAV2@@Z
?remove@?$List_iterator@Vpartition_element@@@@QEAAXXZ
?after@?$List_iterator@Vpartition_element@@@@QEAAXPEAVpartition_element@@@Z
??_9Item@@$BDEI@AA
?check_range_capable_PF@@YAXPEAUTABLE@@@Z
?get_partition_id_cols_list_for_endpoint@@YAIPEAVpartition_info@@_N1I@Z
?get_list_array_idx_for_endpoint_charset@@YAIPEAVpartition_info@@_N1@Z
?get_part_id_from_key@@YA_NPEBUTABLE@@PEAEPEAUst_key@@PEBUst_key_range@@PEAI@Z
?handle_alter_part_error@@YAXPEAUst_lock_param_type@@_N111@Z
?push_back@?$List@$$CBD@@QEAA_NPEBD@Z
??0?$StringBuffer@$0BAA@@@QEAA@PEBUcharset_info_st@@@Z
??1?$StringBuffer@$0BAA@@@QEAA@XZ
?store_tuple_to_record@@YAIPEAPEAVField@@PEAIPEAE2@Z
?get_partition_id_cols_range_for_endpoint@@YAIPEAVpartition_info@@_N1I@Z
?any_db@@3PEBDEB DATA
?sql_command_flags@@3PAIA DATA
?server_command_flags@@3PAIA DATA
?command_name@@3QBUst_mysql_lex_string@@B DATA
?max_stack_used@@3JA DATA
?xa_state_names@@3PAPEBDA DATA
??4String@@QEAAAEAV0@AEBV0@@Z
?uses_buffer_owned_by@String@@QEBA_NPEBV1@@Z
?next_query_id@@YA_JXZ
??4MDL_request@@QEAAAEAV0@AEBV0@@Z
?save_and_clear@?$SQL_I_List@UTABLE_LIST@@@@QEAAXPEAV1@@Z
?is_anonymous_derived_table@TABLE_LIST@@QEBA_NXZ
??4TABLE_LIST@@QEAAAEAU0@AEBU0@@Z
?push_front@?$List@UTABLE_LIST@@@@QEAA_NPEAUTABLE_LIST@@@Z
?pop@?$List@UTABLE_LIST@@@@QEAAPEAUTABLE_LIST@@XZ
?reset_for_next_command@Warning_info@@AEAAXXZ
?set_read_only@Warning_info@@AEAAX_N@Z
?set_overwrite_status@Diagnostics_area@@QEAAX_N@Z
?reset_for_next_command@Diagnostics_area@@QEAAXXZ
?set_warning_info_read_only@Diagnostics_area@@QEAAX_N@Z
?real_type_with_now_as_default@@YA_NW4enum_field_types@@@Z
?real_type_with_now_on_update@@YA_NW4enum_field_types@@@Z
??0COPY_INFO@@QEAA@W4operation_type@0@PEAV?$List@VItem@@@@_NW4enum_duplicates@@2@Z
??0Key_part_spec@@QEAA@AEBUst_mysql_lex_string@@I@Z
??0Key@@QEAA@W4Keytype@0@AEBUst_mysql_lex_string@@PEAUst_key_create_information@@_NAEAV?$List@VKey_part_spec@@@@@Z
??0DTCollation@@QEAA@XZ
??0Name_resolution_context@@QEAA@XZ
?delete_self@Item@@QEAAXXZ
?fix_length_and_charset_datetime@Item@@QEAAXI@Z
?fix_length_and_dec_and_charset_datetime@Item@@QEAAXIE@Z
??0Item_int@@QEAA@_KI@Z
??0Item_int_0@@QEAA@XZ
??1Item_int_0@@UEAA@XZ
??0?$List@VItem_field@@@@QEAA@XZ
??0Item_func@@QEAA@PEAVItem@@0@Z
??0Item_int_func@@QEAA@PEAVItem@@@Z
??0Item_int_func@@QEAA@PEAVItem@@0@Z
??0Arg_comparator@@QEAA@PEAPEAVItem@@0@Z
?cleanup@Arg_comparator@@QEAAXXZ
??1Arg_comparator@@QEAA@XZ
??0Item_bool_func@@QEAA@PEAVItem@@@Z
??0Item_bool_func@@QEAA@PEAVItem@@0@Z
??0Item_bool_func2@@QEAA@PEAVItem@@0@Z
?select_optimize@Item_bool_func2@@UEBA?AW4optimize_type@Item_func@@XZ
?rev_functype@Item_bool_func2@@UEBA?AW4Functype@Item_func@@XZ
?have_rev_func@Item_bool_func2@@UEBA_NXZ
?print@Item_bool_func2@@UEAAXPEAVString@@W4enum_query_type@@@Z
?is_null@Item_bool_func2@@UEAA_NXZ
?compare_collation@Item_bool_func2@@UEAAPEBUcharset_info_st@@XZ
?top_level_item@Item_bool_func2@@UEAAXXZ
?cleanup@Item_bool_func2@@UEAAXXZ
??1Item_bool_func2@@UEAA@XZ
??0Item_bool_rowready_func2@@QEAA@PEAVItem@@0@Z
?subst_argument_checker@Item_bool_rowready_func2@@UEAA_NPEAPEAE@Z
??1Item_bool_rowready_func2@@UEAA@XZ
??0Item_func_not@@QEAA@PEAVItem@@@Z
?functype@Item_func_not@@UEBA?AW4Functype@Item_func@@XZ
?func_name@Item_func_not@@UEBAPEBDXZ
??1Item_func_not@@UEAA@XZ
??0Item_func_not_all@@QEAA@PEAVItem@@@Z
?top_level_item@Item_func_not_all@@UEAAXXZ
?functype@Item_func_not_all@@UEBA?AW4Functype@Item_func@@XZ
?func_name@Item_func_not_all@@UEBAPEBDXZ
?not_null_tables@Item_func_not_all@@UEBA_KXZ
??1Item_func_not_all@@UEAA@XZ
??0Item_func_nop_all@@QEAA@PEAVItem@@@Z
?func_name@Item_func_nop_all@@UEBAPEBDXZ
?not_null_tables@Item_func_nop_all@@UEBA_KXZ
??1Item_func_nop_all@@UEAA@XZ
??0Item_func_ne@@QEAA@PEAVItem@@0@Z
?functype@Item_func_ne@@UEBA?AW4Functype@Item_func@@XZ
?eq_cmp_result@Item_func_ne@@UEBA?AW4cond_result@Item@@XZ
?select_optimize@Item_func_ne@@UEBA?AW4optimize_type@Item_func@@XZ
?func_name@Item_func_ne@@UEBAPEBDXZ
??1Item_func_ne@@UEAA@XZ
??0Item_timeval_func@@QEAA@PEAVItem@@@Z
?get_date@Item_timeval_func@@UEAA_NPEAUst_mysql_time@@I@Z
?get_time@Item_timeval_func@@UEAA_NPEAUst_mysql_time@@@Z
?result_type@Item_timeval_func@@UEBA?AW4Item_result@@XZ
??1Item_timeval_func@@UEAA@XZ
??0Item_func_unix_timestamp@@QEAA@PEAVItem@@@Z
?func_name@Item_func_unix_timestamp@@UEBAPEBDXZ
?check_partition_func_processor@Item_func_unix_timestamp@@UEAA_NPEAE@Z
?check_valid_arguments_processor@Item_func_unix_timestamp@@UEAA_NPEAE@Z
?fix_length_and_dec@Item_func_unix_timestamp@@UEAAXXZ
??1Item_func_unix_timestamp@@UEAA@XZ
?all_any_subquery_creator@@YAPEAVItem@@PEAV1@P6APEAVComp_creator@@_N@Z1PEAVst_select_lex@@@Z
??2st_select_lex_node@@SAPEAX_K@Z
??2st_select_lex_node@@SAPEAX_KPEAUst_mem_root@@@Z
??3st_select_lex_node@@SAXPEAXPEAUst_mem_root@@@Z
??0st_select_lex_node@@QEAA@XZ
?mysql_new_select@@YA_NPEAULEX@@_N@Z
??0st_select_lex_unit@@QEAA@XZ
?add_fake_select_lex@st_select_lex_unit@@QEAA_NPEAVTHD@@@Z
??0?$SQL_I_List@Ust_order@@@@QEAA@XZ
?link_in_list@?$SQL_I_List@Ust_order@@@@QEAAXPEAUst_order@@PEAPEAU2@@Z
??0?$List@VItem_outer_ref@@@@QEAA@XZ
??0?$List@Ust_udf_func@@@@QEAA@XZ
?add_table_to_list@st_select_lex@@UEAAPEAUTABLE_LIST@@PEAVTHD@@PEAVTable_ident@@PEAUst_mysql_lex_string@@KW4thr_lock_type@@W4enum_mdl_type@@PEAV?$List@VIndex_hint@@@@PEAV?$List@VString@@@@2@Z
?init_nested_join@st_select_lex@@QEAA_NPEAVTHD@@@Z
?end_nested_join@st_select_lex@@QEAAPEAUTABLE_LIST@@PEAVTHD@@@Z
?nest_last_join@st_select_lex@@QEAAPEAUTABLE_LIST@@PEAVTHD@@@Z
?add_joined_table@st_select_lex@@QEAAXPEAUTABLE_LIST@@@Z
?convert_right_join@st_select_lex@@QEAAPEAUTABLE_LIST@@XZ
?set_lock_for_tables@st_select_lex@@UEAAXW4thr_lock_type@@@Z
??0st_select_lex@@QEAA@XZ
?make_empty_select@st_select_lex@@QEAAXXZ
?add_to_query_tables@Query_tables_list@@QEAAXPEAUTABLE_LIST@@@Z
?first_not_own_table@Query_tables_list@@QEAAPEAUTABLE_LIST@@XZ
?push_front@?$List@UName_resolution_context@@@@QEAA_NPEAUName_resolution_context@@@Z
?head@?$List@UName_resolution_context@@@@QEAAPEAUName_resolution_context@@XZ
?pop@?$List@UName_resolution_context@@@@QEAAPEAUName_resolution_context@@XZ
?is_broken@LEX@@QEBA_NXZ
?push_context@LEX@@QEAA_NPEAUName_resolution_context@@@Z
?pop_context@LEX@@QEAAXXZ
?current_context@LEX@@QEAAPEAUName_resolution_context@@XZ
?reset@Parser_state@@QEAAXPEADI@Z
?memdup_w_gap@Query_arena@@QEAAPEAXPEBX_KI@Z
?set_query_inner@Statement@@QEAAXPEADIPEBUcharset_info_st@@@Z
??0Security_context@@QEAA@AEBV0@@Z
??4Security_context@@QEAAAEAV0@AEBV0@@Z
??1Slow_log_throttle@@QEAA@XZ
?back@?$Dynamic_array@PEAVReprepare_observer@@@@QEBAPEBQEAVReprepare_observer@@XZ
?elements@?$Dynamic_array@PEAVReprepare_observer@@@@QEBAHXZ
?get_reprepare_observer@Open_tables_state@@QEBAPEAVReprepare_observer@@XZ
?reset_for_next_command@THD@@QEAAXXZ
?get_row_count_func@THD@@QEBA_JXZ
?set_trans_pos@THD@@QEAAXPEBD_K@Z
?is_valid_time@THD@@QEAA_NXZ
?current_utime@THD@@QEAA_KXZ
?update_server_status@THD@@QEAAXXZ
?fatal_error@THD@@QEAAXXZ
?copy_db_to@THD@@QEAA_NPEAPEADPEA_K@Z
?binlog_invoker@THD@@QEAAXXZ
?get_invoker_user@THD@@QEAA?AUst_mysql_lex_string@@XZ
?get_invoker_host@THD@@QEAA?AUst_mysql_lex_string@@XZ
?has_invoker@THD@@QEAA_NXZ
??0select_insert@@QEAA@PEAUTABLE_LIST@@PEAUTABLE@@PEAV?$List@VItem@@@@222W4enum_duplicates@@_N@Z
??0select_create@@QEAA@PEAUTABLE_LIST@@PEAUst_ha_create_information@@PEAVAlter_info@@AEAV?$List@VItem@@@@W4enum_duplicates@@_N0@Z
??1select_create@@UEAA@XZ
?is_derived_table@Table_ident@@QEBA_NXZ
test_if_data_home_dir
?stmt_causes_implicit_commit@@YA_NPEBVTHD@@I@Z
?select_precheck@@YA_NPEAVTHD@@PEAULEX@@PEAUTABLE_LIST@@2@Z
?multi_update_precheck@@YA_NPEAVTHD@@PEAUTABLE_LIST@@@Z
?multi_delete_precheck@@YA_NPEAVTHD@@PEAUTABLE_LIST@@@Z
?update_precheck@@YA_NPEAVTHD@@PEAUTABLE_LIST@@@Z
?delete_precheck@@YA_NPEAVTHD@@PEAUTABLE_LIST@@@Z
?insert_precheck@@YA_NPEAVTHD@@PEAUTABLE_LIST@@@Z
?create_table_precheck@@YA_NPEAVTHD@@PEAUTABLE_LIST@@1@Z
?check_fk_parent_table_access@@YA_NPEAVTHD@@PEAUst_ha_create_information@@PEAVAlter_info@@@Z
?parse_sql@@YA_NPEAVTHD@@PEAVParser_state@@PEAVObject_creation_ctx@@@Z
?kill_one_thread@@YAIPEAVTHD@@K_N@Z
?free_items@@YAXPEAVItem@@@Z
?cleanup_items@@YAXPEAVItem@@@Z
?comp_eq_creator@@YAPEAVComp_creator@@_N@Z
?comp_ge_creator@@YAPEAVComp_creator@@_N@Z
?comp_gt_creator@@YAPEAVComp_creator@@_N@Z
?comp_le_creator@@YAPEAVComp_creator@@_N@Z
?comp_lt_creator@@YAPEAVComp_creator@@_N@Z
?comp_ne_creator@@YAPEAVComp_creator@@_N@Z
?prepare_schema_table@@YAHPEAVTHD@@PEAULEX@@PEAVTable_ident@@W4enum_schema_tables@@@Z
?get_default_definer@@YAXPEAVTHD@@PEAUst_lex_user@@@Z
?create_default_definer@@YAPEAUst_lex_user@@PEAVTHD@@@Z
?create_definer@@YAPEAUst_lex_user@@PEAVTHD@@PEAUst_mysql_lex_string@@1@Z
?get_current_user@@YAPEAUst_lex_user@@PEAVTHD@@PEAU1@@Z
?check_string_byte_length@@YA_NPEAUst_mysql_lex_string@@PEBDI@Z
?check_string_char_length@@YA_NPEAUst_mysql_lex_string@@PEBDIPEBUcharset_info_st@@_N@Z
?merge_charset_and_collation@@YAPEBUcharset_info_st@@PEBU1@0@Z
?check_host_name@@YA_NPEAUst_mysql_lex_string@@@Z
?mysql_test_parse_for_slave@@YA_NPEAVTHD@@PEADI@Z
?is_update_query@@YA_NW4enum_sql_command@@@Z
?is_explainable_query@@YA_NW4enum_sql_command@@@Z
?is_log_table_write_query@@YA_NW4enum_sql_command@@@Z
?alloc_query@@YA_NPEAVTHD@@PEBDI@Z
?mysql_init_select@@YAXPEAULEX@@@Z
?mysql_parse@@YAXPEAVTHD@@PEADIPEAVParser_state@@@Z
?mysql_reset_thd_for_next_command@@YAXPEAVTHD@@@Z
?create_select_for_variable@@YAXPEBD@Z
?create_table_set_open_action_and_adjust_tables@@YAXPEAULEX@@@Z
?mysql_init_multi_delete@@YAXPEAULEX@@@Z
?multi_delete_set_locks_and_link_aux_tables@@YA_NPEAULEX@@@Z
handle_bootstrap
?mysql_execute_command@@YAHPEAVTHD@@@Z
?do_command@@YA_NPEAVTHD@@@Z
?do_handle_bootstrap@@YAXPEAVTHD@@@Z
?dispatch_command@@YA_NW4enum_server_command@@PEAVTHD@@PEADI@Z
?log_slow_statement@@YAXPEAVTHD@@@Z
?log_slow_applicable@@YA_NPEAVTHD@@@Z
?log_slow_do@@YAXPEAVTHD@@@Z
?append_file_to_dir@@YA_NPEAVTHD@@PEAPEBDPEBD@Z
?execute_init_command@@YAXPEAVTHD@@PEAUst_mysql_lex_string@@PEAUst_mysql_rwlock@@@Z
?add_field_to_list@@YA_NPEAVTHD@@PEAUst_mysql_lex_string@@W4enum_field_types@@PEAD3IPEAVItem@@413PEAV?$List@VString@@@@PEBUcharset_info_st@@I@Z
?add_to_list@@YA_NPEAVTHD@@AEAV?$SQL_I_List@Ust_order@@@@PEAVItem@@_N@Z
?add_join_on@@YAXPEAUTABLE_LIST@@PEAVItem@@@Z
?add_join_natural@@YAXPEAUTABLE_LIST@@0PEAV?$List@VString@@@@PEAVst_select_lex@@@Z
?push_new_name_resolution_context@@YA_NPEAVTHD@@PEAUTABLE_LIST@@1@Z
?store_position_for_column@@YAXPEBD@Z
?init_update_queries@@YAXXZ
?check_simple_select@@YA_NXZ
?negate_expression@@YAPEAVItem@@PEAVTHD@@PEAV1@@Z
?check_stack_overrun@@YA_NPEAVTHD@@JPEAE@Z
?check_one_table_access@@YA_NPEAVTHD@@KPEAUTABLE_LIST@@@Z
?check_single_table_access@@YA_NPEAVTHD@@KPEAUTABLE_LIST@@_N@Z
?check_routine_access@@YA_NPEAVTHD@@KPEAD1_N2@Z
?check_some_access@@YA_NPEAVTHD@@KPEAUTABLE_LIST@@@Z
?check_some_routine_access@@YA_NPEAVTHD@@PEBD1_N@Z
?check_access@@YA_NPEAVTHD@@KPEBDPEAKPEAUst_grant_internal_info@@_N4@Z
?check_table_access@@YA_NPEAVTHD@@KPEAUTABLE_LIST@@_NI2@Z
?check_global_access@@YA_NPEAVTHD@@K@Z
sqlcom_can_generate_row_events
?is_empty@?$base_ilist@Vi_string@@@@QEBA_NXZ
??0Incident_log_event@@QEAA@PEAVTHD@@W4Incident@@@Z
?get_type_code@Incident_log_event@@UEAA?AW4Log_event_type@@XZ
?is_valid@Incident_log_event@@UEBA_NXZ
?get_data_size@Incident_log_event@@UEAAHXZ
?is_not_allowed_in_function@sp_head@@QEAA_NPEBD@Z
?all_tables_not_ok@@YA_NPEAVTHD@@PEAUTABLE_LIST@@@Z
?db_stmt_db_ok@@YA_NPEAVTHD@@PEAD@Z
??$max@J@std@@YAAEBJAEBJ0@Z
?my_yyoverflow@@YA_NPEAPEAFPEAPEATYYSTYPE@@PEAK@Z
?log_throttle_qni@@3VSlow_log_throttle@@A DATA
?disjoin@base_list@@QEAAXPEAV1@@Z
?prepand@base_list@@QEAAXPEAV1@@Z
?replace@base_list_iterator@@QEAAPEAXAEAVbase_list@@@Z
?clear_bit@?$Bitmap@$0EA@@@QEAAXI@Z
?is_prefix@?$Bitmap@$0EA@@@QEBADI@Z
?is_subset@?$Bitmap@$0EA@@@QEBADAEBV1@@Z
??8?$Bitmap@$0EA@@@QEBADAEBV0@@Z
??9?$Bitmap@$0EA@@@QEBADAEBV0@@Z
?merge@?$Bitmap@$0BAAA@@@QEAAXAEBV1@@Z
?is_clear_all@?$Bitmap@$0BAAA@@@QEBADXZ
??8?$Bitmap@$0BAAA@@@QEBADAEBV0@@Z
??9?$Bitmap@$0BAAA@@@QEBADAEBV0@@Z
?outer_join_nest@TABLE_LIST@@QEBAPEAU1@XZ
??0Semijoin_mat_optimize@@QEAA@XZ
?disjoin@?$List@VItem@@@@QEAAXPEAV1@@Z
?prepand@?$List@VItem@@@@QEAAXPEAV1@@Z
?is_temporal@Field@@QEBA_NXZ
?is_temporal_with_date@Field@@QEBA_NXZ
?disable_I_S_for_this_and_children@Opt_trace_context@@QEAAXXZ
?restore_I_S@Opt_trace_context@@QEAAXXZ
?set@DTCollation@@QEAAXAEAV1@@Z
?pop_front@?$Bounds_checked_array@PEAVItem@@@@QEAAXXZ
??0Item_int@@QEAA@HI@Z
?push_back@?$List@VItem_field@@@@QEAA_NPEAVItem_field@@@Z
?get_count@Item_func_match@@QEAA_KXZ
?ordered_result@Item_func_match@@QEAA_NXZ
?docid_in_result@Item_func_match@@QEAA_NXZ
??0Item_func_docid@@QEAA@PEAUst_ft_info_ext@@@Z
?func_name@Item_func_docid@@UEBAPEBDXZ
?update_used_tables@Item_func_docid@@UEAAXXZ
?val_int@Item_func_docid@@UEAA_JXZ
??1Item_func_docid@@UEAA@XZ
?set_cmp_func@Arg_comparator@@QEAAHPEAVItem_result_field@@PEAPEAVItem@@1_N@Z
?set_cmp_func@Item_bool_func2@@QEAAHXZ
??0Item_func_trig_cond@@QEAA@PEAVItem@@PEA_NPEAUst_join_table@@W4enum_trig_type@0@@Z
?val_int@Item_func_trig_cond@@UEAA_JXZ
?functype@Item_func_trig_cond@@UEBA?AW4Functype@Item_func@@XZ
?func_name@Item_func_trig_cond@@UEBAPEBDXZ
?const_item@Item_func_trig_cond@@UEBA_NXZ
?get_trig_var@Item_func_trig_cond@@QEAAPEA_NXZ
?used_tables@Item_func_trig_cond@@UEBA_KXZ
??1Item_func_trig_cond@@UEAA@XZ
??0Item_func_eq@@QEAA@PEAVItem@@0@Z
?functype@Item_func_eq@@UEBA?AW4Functype@Item_func@@XZ
?rev_functype@Item_func_eq@@UEBA?AW4Functype@Item_func@@XZ
?eq_cmp_result@Item_func_eq@@UEBA?AW4cond_result@Item@@XZ
?func_name@Item_func_eq@@UEBAPEBDXZ
?equality_substitution_analyzer@Item_func_eq@@UEAA_NPEAPEAE@Z
??1Item_func_eq@@UEAA@XZ
??0Item_func_equal@@QEAA@PEAVItem@@0@Z
?not_null_tables@Item_func_equal@@UEBA_KXZ
?functype@Item_func_equal@@UEBA?AW4Functype@Item_func@@XZ
?rev_functype@Item_func_equal@@UEBA?AW4Functype@Item_func@@XZ
?eq_cmp_result@Item_func_equal@@UEBA?AW4cond_result@Item@@XZ
?func_name@Item_func_equal@@UEBAPEBDXZ
?neg_transformer@Item_func_equal@@UEAAPEAVItem@@PEAVTHD@@@Z
??1Item_func_equal@@UEAA@XZ
??0Item_func_isnotnull@@QEAA@PEAVItem@@@Z
?functype@Item_func_isnotnull@@UEBA?AW4Functype@Item_func@@XZ
?fix_length_and_dec@Item_func_isnotnull@@UEAAXXZ
?func_name@Item_func_isnotnull@@UEBAPEBDXZ
?select_optimize@Item_func_isnotnull@@UEBA?AW4optimize_type@Item_func@@XZ
?not_null_tables@Item_func_isnotnull@@UEBA_KXZ
?compare_collation@Item_func_isnotnull@@UEAAPEBUcharset_info_st@@XZ
?top_level_item@Item_func_isnotnull@@UEAAXXZ
??1Item_func_isnotnull@@UEAA@XZ
??0Item_cond@@QEAA@AEAV?$List@VItem@@@@@Z
?add@Item_cond@@QEAA_NPEAVItem@@@Z
?add_at_head@Item_cond@@QEAAXPEAV?$List@VItem@@@@@Z
?get_const@Item_equal@@QEAAPEAVItem@@XZ
?push_back@?$List@VItem_equal@@@@QEAA_NPEAVItem_equal@@@Z
?head@?$List@VItem_equal@@@@QEAAPEAVItem_equal@@XZ
?pop@?$List@VItem_equal@@@@QEAAPEAVItem_equal@@XZ
??0?$List_iterator_fast@VItem_field@@@@QEAA@AEAV?$List@VItem_field@@@@@Z
??E?$List_iterator_fast@VItem_field@@@@QEAAPEAVItem_field@@H@Z
?rewind@?$List_iterator_fast@VItem_field@@@@QEAAXXZ
??0Item_equal_iterator@@QEAA@AEAVItem_equal@@@Z
??EItem_equal_iterator@@QEAAPEAVItem_field@@H@Z
?rewind@Item_equal_iterator@@QEAAXXZ
??0Item_cond_and@@QEAA@AEAV?$List@VItem@@@@@Z
??0Item_cond_or@@QEAA@PEAVItem@@0@Z
?change_engine@Item_subselect@@QEAA_NPEAVsubselect_engine@@@Z
?in2exists_added_to_where@Item_in_subselect@@QEBA_NXZ
??0subselect_engine@@QEAA@PEAVItem_subselect@@PEAVselect_result_interceptor@@@Z
??1subselect_engine@@UEAA@XZ
?type@subselect_engine@@UEBA?AW4Item_result@@XZ
?field_type@subselect_engine@@UEBA?AW4enum_field_types@@XZ
?may_be_null@subselect_engine@@UEBA_NXZ
?is_executed@subselect_engine@@UEBA_NXZ
?engine_type@subselect_engine@@UEBA?AW4enum_engine_type@1@XZ
??0subselect_indexsubquery_engine@@QEAA@PEAVTHD@@PEAUst_join_table@@PEAVItem_subselect@@PEAVItem@@3_N4@Z
?engine_type@subselect_indexsubquery_engine@@UEBA?AW4enum_engine_type@subselect_engine@@XZ
?cleanup@subselect_indexsubquery_engine@@UEAAXXZ
?cols@subselect_indexsubquery_engine@@UEBAIXZ
?uncacheable@subselect_indexsubquery_engine@@UEBAEXZ
?upper_select_const_tables@subselect_indexsubquery_engine@@UEBA_KXZ
??1subselect_indexsubquery_engine@@UEAA@XZ
?eq_def@Item_cache@@QEAA_NPEAVField@@@Z
?is_cacheable@st_select_lex@@QEBA_NXZ
?is_single_level_stmt@LEX@@QEAA_NXZ
??0Key_use@@QEAA@PEAUTABLE@@PEAVItem@@_KIIIK2_NPEA_NI@Z
?added_tables@st_join_table@@QEBA_KXZ
?set_prefix_tables@st_join_table@@QEAAX_K0@Z
?add_prefix_tables@st_join_table@@QEAAX_K@Z
?at@?$Mem_root_array@VKey_use@@$00@@QEAAAEAVKey_use@@_K@Z
?reserve@?$Mem_root_array@VKey_use@@$00@@QEAA_N_K@Z
?push_back@?$Mem_root_array@VKey_use@@$00@@QEAA_NAEBVKey_use@@@Z
?element_size@?$Mem_root_array@VKey_use@@$00@@QEBA_KXZ
??CORDER_with_src@JOIN@@QEBAPEAUst_order@@XZ
?begin@?$Mem_root_array@PEAVItem_exists_subselect@@$00@@QEAAPEAPEAVItem_exists_subselect@@XZ
?end@?$Mem_root_array@PEAVItem_exists_subselect@@$00@@QEAAPEAPEAVItem_exists_subselect@@XZ
?plan_is_single_table@JOIN@@QEAA_NXZ
?optimize@JOIN@@QEAAHXZ
?flatten_subqueries@JOIN@@QEAA_NXZ
?remove_subq_pushed_predicates@JOIN@@QEAAXPEAPEAVItem@@@Z
?cache_const_exprs@JOIN@@QEAA_NXZ
?generate_derived_keys@JOIN@@QEAA_NXZ
?drop_unused_derived_keys@JOIN@@QEAAXXZ
?update_equalities_for_sjm@JOIN@@QEAA_NXZ
?decide_subquery_strategy@JOIN@@QEAA_NXZ
?refine_best_rowcount@JOIN@@QEAAXXZ
?optimize_fts_query@JOIN@@AEAAXXZ
?optimize_fts_limit_query@JOIN@@AEAAXXZ
?replace_item_field@JOIN@@AEAAXPEBDPEAVItem@@@Z
?prune_table_partitions@JOIN@@AEAA_NPEAVTHD@@@Z
?set_prefix_tables@JOIN@@AEAAXXZ
?set_semijoin_embedding@JOIN@@QEAAXXZ
?compare_costs_of_subquery_strategies@JOIN@@AEAA_NPEAW4enum_exec_method@Item_exists_subselect@@@Z
?uses_index_fields_only@@YA_NPEAVItem@@PEAUTABLE@@I_N@Z
?update_depend_map@@YAXPEAVJOIN@@@Z
?reset_nj_counters@@YAXPEAV?$List@UTABLE_LIST@@@@@Z
?remove_eq_conds@@YAPEAVItem@@PEAVTHD@@PEAV1@PEAW4cond_result@1@@Z
?optimize_cond@@YAPEAVItem@@PEAVTHD@@PEAV1@PEAPEAVCOND_EQUAL@@PEAV?$List@UTABLE_LIST@@@@_NPEAW4cond_result@1@@Z
?substitute_for_best_equal_field@@YAPEAVItem@@PEAV1@PEAVCOND_EQUAL@@PEAX@Z
?build_equal_items@@YAPEAVItem@@PEAVTHD@@PEAV1@PEAVCOND_EQUAL@@_NPEAV?$List@UTABLE_LIST@@@@PEAPEAV3@@Z
?is_indexed_agg_distinct@@YA_NPEAVJOIN@@PEAV?$List@VItem_field@@@@@Z
?create_keyuse_for_table@@YAPEAV?$Mem_root_array@VKey_use@@$00@@PEAVTHD@@PEAUTABLE@@IPEAPEAVItem_field@@V?$List@VItem@@@@@Z
?find_item_equal@@YAPEAVItem_equal@@PEAVCOND_EQUAL@@PEAVField@@PEA_N@Z
?get_best_field@@YAPEAVItem_field@@PEAV1@PEAVCOND_EQUAL@@@Z
?make_cond_for_table@@YAPEAVItem@@PEAV1@_K1_N@Z
?field_time_cmp_date@@YA_NPEBVField@@PEBVItem@@@Z
??0Optimize_table_order@@QEAA@PEAVTHD@@PEAVJOIN@@PEAUTABLE_LIST@@@Z
??1Optimize_table_order@@QEAA@XZ
?end@Opt_trace_struct@@QEAAXXZ
?add_utf8@Opt_trace_struct@@QEAAAEAV1@PEBD@Z
?add@Opt_trace_struct@@QEAAAEAV1@PEBDH@Z
?add@Opt_trace_struct@@QEAAAEAV1@I@Z
??0Opt_trace_disable_I_S@@QEAA@PEAVOpt_trace_context@@_N@Z
??1Opt_trace_disable_I_S@@QEAA@XZ
?replace@?$List_iterator@UTABLE_LIST@@@@QEAAPEAUTABLE_LIST@@PEAU2@@Z
?replace@?$List_iterator@UTABLE_LIST@@@@QEAAPEAUTABLE_LIST@@AEAV?$List@UTABLE_LIST@@@@@Z
?rewind@?$List_iterator@UTABLE_LIST@@@@QEAAXXZ
?remove@?$List_iterator@UTABLE_LIST@@@@QEAAXXZ
??0?$ilink@VCOND_CMP@@@@QEAA@XZ
?unlink@?$ilink@VCOND_CMP@@@@QEAAXXZ
??1?$ilink@VCOND_CMP@@@@UEAA@XZ
??2COND_CMP@@SAPEAX_K@Z
??3COND_CMP@@SAXPEAX_K@Z
??0COND_CMP@@QEAA@PEAVItem@@PEAVItem_func@@@Z
??1COND_CMP@@UEAA@XZ
??0?$List_iterator_fast@VItem_equal@@@@QEAA@AEAV?$List@VItem_equal@@@@@Z
??E?$List_iterator_fast@VItem_equal@@@@QEAAPEAVItem_equal@@H@Z
??0?$List_iterator@VItem_equal@@@@QEAA@AEAV?$List@VItem_equal@@@@@Z
??E?$List_iterator@VItem_equal@@@@QEAAPEAVItem_equal@@H@Z
?remove@?$List_iterator@VItem_equal@@@@QEAAXXZ
?remove@?$List_iterator@VItem@@@@QEAAXXZ
??_9Item@@$BDBI@AA
??_9Item@@$BDDA@AA
??_9Item@@$BDEA@AA
?empty@?$base_ilist@VCOND_CMP@@@@QEAAXXZ
??0?$base_ilist@VCOND_CMP@@@@QEAA@XZ
?push_back@?$base_ilist@VCOND_CMP@@@@QEAAXPEAVCOND_CMP@@@Z
??1?$base_ilist@VCOND_CMP@@@@QEAA@XZ
??0?$I_List@VCOND_CMP@@@@QEAA@XZ
??1?$I_List@VCOND_CMP@@@@QEAA@XZ
??0?$base_ilist_iterator@VCOND_CMP@@@@QEAA@AEAV?$base_ilist@VCOND_CMP@@@@@Z
?next@?$base_ilist_iterator@VCOND_CMP@@@@QEAAPEAVCOND_CMP@@XZ
??0?$I_List_iterator@VCOND_CMP@@@@QEAA@AEAV?$I_List@VCOND_CMP@@@@@Z
??E?$I_List_iterator@VCOND_CMP@@@@QEAAPEAVCOND_CMP@@H@Z
??_9Item@@$BDAA@AA
??_9Item@@$BDAI@AA
??0Key_field@@QEAA@PEAVField@@PEAVItem@@II_N2PEA_NI@Z
??_9Item@@$BCJA@AA
??_9Item@@$BCOA@AA
??_9Item@@$BCOI@AA
??_9Item@@$BCPA@AA
??_9Item@@$BCPI@AA
??_9Item@@$BCNA@AA
?manager_thread@@3KA DATA
?LOCK_manager@@3Ust_mysql_mutex@@A DATA
?COND_manager@@3Ust_mysql_cond@@A DATA
?start_handle_manager@@YAXXZ
?stop_handle_manager@@YAXXZ
?mysql_manager_submit@@YA_NP6AXXZ@Z
handle_manager
?my_locales_deprecated@@3PAPEAVMY_LOCALE@@A DATA
?ERR_MSGS_INDEX@@3W4err_msgs_index@@A DATA
?global_errmsgs@@3PAUmy_locale_errmsgs@@A DATA
?my_locales@@3PAPEAVMY_LOCALE@@A DATA
??0MY_LOCALE@@QEAA@IPEBD0_NPEAUst_typelib@@222IIII0PEAUmy_locale_errmsgs@@@Z
?my_locale_by_name@@YAPEAVMY_LOCALE@@PEBD@Z
?my_locale_by_number@@YAPEAVMY_LOCALE@@I@Z
?cleanup_errmsgs@@YAXXZ
?my_locale_en_US@@3VMY_LOCALE@@A DATA
?my_locale_ar_AE@@3VMY_LOCALE@@A DATA
?my_locale_ar_BH@@3VMY_LOCALE@@A DATA
?my_locale_ar_JO@@3VMY_LOCALE@@A DATA
?my_locale_ar_SA@@3VMY_LOCALE@@A DATA
?my_locale_ar_SY@@3VMY_LOCALE@@A DATA
?my_locale_be_BY@@3VMY_LOCALE@@A DATA
?my_locale_bg_BG@@3VMY_LOCALE@@A DATA
?my_locale_ca_ES@@3VMY_LOCALE@@A DATA
?my_locale_cs_CZ@@3VMY_LOCALE@@A DATA
?my_locale_da_DK@@3VMY_LOCALE@@A DATA
?my_locale_de_AT@@3VMY_LOCALE@@A DATA
?my_locale_de_DE@@3VMY_LOCALE@@A DATA
?my_locale_es_ES@@3VMY_LOCALE@@A DATA
?my_locale_et_EE@@3VMY_LOCALE@@A DATA
?my_locale_eu_ES@@3VMY_LOCALE@@A DATA
?my_locale_fi_FI@@3VMY_LOCALE@@A DATA
?my_locale_fo_FO@@3VMY_LOCALE@@A DATA
?my_locale_fr_FR@@3VMY_LOCALE@@A DATA
?my_locale_gl_ES@@3VMY_LOCALE@@A DATA
?my_locale_gu_IN@@3VMY_LOCALE@@A DATA
?my_locale_he_IL@@3VMY_LOCALE@@A DATA
?my_locale_hi_IN@@3VMY_LOCALE@@A DATA
?my_locale_hr_HR@@3VMY_LOCALE@@A DATA
?my_locale_hu_HU@@3VMY_LOCALE@@A DATA
?my_locale_id_ID@@3VMY_LOCALE@@A DATA
?my_locale_is_IS@@3VMY_LOCALE@@A DATA
?my_locale_it_CH@@3VMY_LOCALE@@A DATA
?my_locale_ja_JP@@3VMY_LOCALE@@A DATA
?my_locale_ko_KR@@3VMY_LOCALE@@A DATA
?my_locale_lt_LT@@3VMY_LOCALE@@A DATA
?my_locale_lv_LV@@3VMY_LOCALE@@A DATA
?my_locale_mk_MK@@3VMY_LOCALE@@A DATA
?my_locale_mn_MN@@3VMY_LOCALE@@A DATA
?my_locale_ms_MY@@3VMY_LOCALE@@A DATA
?my_locale_nb_NO@@3VMY_LOCALE@@A DATA
?my_locale_nl_NL@@3VMY_LOCALE@@A DATA
?my_locale_pl_PL@@3VMY_LOCALE@@A DATA
?my_locale_pt_BR@@3VMY_LOCALE@@A DATA
?my_locale_pt_PT@@3VMY_LOCALE@@A DATA
?my_locale_ro_RO@@3VMY_LOCALE@@A DATA
?my_locale_ru_RU@@3VMY_LOCALE@@A DATA
?my_locale_ru_UA@@3VMY_LOCALE@@A DATA
?my_locale_sk_SK@@3VMY_LOCALE@@A DATA
?my_locale_sl_SI@@3VMY_LOCALE@@A DATA
?my_locale_sq_AL@@3VMY_LOCALE@@A DATA
?my_locale_sr_YU@@3VMY_LOCALE@@A DATA
?my_locale_sr_RS@@3VMY_LOCALE@@A DATA
?my_locale_sv_SE@@3VMY_LOCALE@@A DATA
?my_locale_ta_IN@@3VMY_LOCALE@@A DATA
?my_locale_te_IN@@3VMY_LOCALE@@A DATA
?my_locale_th_TH@@3VMY_LOCALE@@A DATA
?my_locale_tr_TR@@3VMY_LOCALE@@A DATA
?my_locale_uk_UA@@3VMY_LOCALE@@A DATA
?my_locale_ur_PK@@3VMY_LOCALE@@A DATA
?my_locale_vi_VN@@3VMY_LOCALE@@A DATA
?my_locale_zh_CN@@3VMY_LOCALE@@A DATA
?my_locale_zh_TW@@3VMY_LOCALE@@A DATA
?my_locale_ar_DZ@@3VMY_LOCALE@@A DATA
?my_locale_ar_EG@@3VMY_LOCALE@@A DATA
?my_locale_ar_IN@@3VMY_LOCALE@@A DATA
?my_locale_ar_IQ@@3VMY_LOCALE@@A DATA
?my_locale_ar_KW@@3VMY_LOCALE@@A DATA
?my_locale_ar_LB@@3VMY_LOCALE@@A DATA
?my_locale_ar_LY@@3VMY_LOCALE@@A DATA
?my_locale_ar_MA@@3VMY_LOCALE@@A DATA
?my_locale_ar_OM@@3VMY_LOCALE@@A DATA
?my_locale_ar_QA@@3VMY_LOCALE@@A DATA
?my_locale_ar_SD@@3VMY_LOCALE@@A DATA
?my_locale_ar_TN@@3VMY_LOCALE@@A DATA
?my_locale_ar_YE@@3VMY_LOCALE@@A DATA
?my_locale_de_BE@@3VMY_LOCALE@@A DATA
?my_locale_de_CH@@3VMY_LOCALE@@A DATA
?my_locale_de_LU@@3VMY_LOCALE@@A DATA
?my_locale_en_AU@@3VMY_LOCALE@@A DATA
?my_locale_en_CA@@3VMY_LOCALE@@A DATA
?my_locale_en_GB@@3VMY_LOCALE@@A DATA
?my_locale_en_IN@@3VMY_LOCALE@@A DATA
?my_locale_en_NZ@@3VMY_LOCALE@@A DATA
?my_locale_en_PH@@3VMY_LOCALE@@A DATA
?my_locale_en_ZA@@3VMY_LOCALE@@A DATA
?my_locale_en_ZW@@3VMY_LOCALE@@A DATA
?my_locale_es_AR@@3VMY_LOCALE@@A DATA
?my_locale_es_BO@@3VMY_LOCALE@@A DATA
?my_locale_es_CL@@3VMY_LOCALE@@A DATA
?my_locale_es_CO@@3VMY_LOCALE@@A DATA
?my_locale_es_CR@@3VMY_LOCALE@@A DATA
?my_locale_es_DO@@3VMY_LOCALE@@A DATA
?my_locale_es_EC@@3VMY_LOCALE@@A DATA
?my_locale_es_GT@@3VMY_LOCALE@@A DATA
?my_locale_es_HN@@3VMY_LOCALE@@A DATA
?my_locale_es_MX@@3VMY_LOCALE@@A DATA
?my_locale_es_NI@@3VMY_LOCALE@@A DATA
?my_locale_es_PA@@3VMY_LOCALE@@A DATA
?my_locale_es_PE@@3VMY_LOCALE@@A DATA
?my_locale_es_PR@@3VMY_LOCALE@@A DATA
?my_locale_es_PY@@3VMY_LOCALE@@A DATA
?my_locale_es_SV@@3VMY_LOCALE@@A DATA
?my_locale_es_US@@3VMY_LOCALE@@A DATA
?my_locale_es_UY@@3VMY_LOCALE@@A DATA
?my_locale_es_VE@@3VMY_LOCALE@@A DATA
?my_locale_fr_BE@@3VMY_LOCALE@@A DATA
?my_locale_fr_CA@@3VMY_LOCALE@@A DATA
?my_locale_fr_CH@@3VMY_LOCALE@@A DATA
?my_locale_fr_LU@@3VMY_LOCALE@@A DATA
?my_locale_it_IT@@3VMY_LOCALE@@A DATA
?my_locale_nl_BE@@3VMY_LOCALE@@A DATA
?my_locale_no_NO@@3VMY_LOCALE@@A DATA
?my_locale_sv_FI@@3VMY_LOCALE@@A DATA
?my_locale_zh_HK@@3VMY_LOCALE@@A DATA
?my_locale_el_GR@@3VMY_LOCALE@@A DATA
?my_locale_rm_CH@@3VMY_LOCALE@@A DATA
??AString@@QEBAAEADI@Z
?is_ascii@String@@QEBA_NXZ
?prepare_check_option@TABLE_LIST@@QEAA_NPEAVTHD@@@Z
?prepare_where@TABLE_LIST@@QEAA_NPEAVTHD@@PEAPEAVItem@@_N@Z
??0COPY_INFO@@QEAA@W4operation_type@0@PEAV?$List@VItem@@@@1_NW4enum_duplicates@@2H@Z
?has_delete_triggers@Table_triggers_list@@QEAA_NXZ
?set_current_stmt_binlog_format_row_if_mixed@THD@@QEAAXXZ
?mysql_load@@YAHPEAVTHD@@PEAVsql_exchange@@PEAUTABLE_LIST@@AEAV?$List@VItem@@@@33W4enum_duplicates@@_N5@Z
?data_size@sql_ex_info@@QEAAHXZ
?new_format@sql_ex_info@@QEAA_NXZ
?get_db@Query_log_event@@UEAAPEBDXZ
?get_mts_dbs@Query_log_event@@UEAAEPEAUst_mts_db_names@@@Z
?mts_number_dbs@Query_log_event@@UEAAEXZ
??1Query_log_event@@UEAA@XZ
?get_type_code@Query_log_event@@UEAA?AW4Log_event_type@@XZ
?write_post_header_for_derived@Query_log_event@@UEAA_NPEAUst_io_cache@@@Z
?is_valid@Query_log_event@@UEBA_NXZ
?get_post_header_size_for_derived@Query_log_event@@UEAAKXZ
?starts_group@Query_log_event@@UEAA_NXZ
?ends_group@Query_log_event@@UEAA_NXZ
?set_fname_outside_temp_buf@Load_log_event@@QEAAXPEBDI@Z
?get_db@Load_log_event@@UEAAPEBDXZ
??1Load_log_event@@UEAA@XZ
?get_type_code@Load_log_event@@UEAA?AW4Log_event_type@@XZ
?is_valid@Load_log_event@@UEBA_NXZ
?get_data_size@Load_log_event@@UEAAHXZ
?do_apply_event@Load_log_event@@UEAAHPEBVRelay_log_info@@@Z
??1Delete_file_log_event@@UEAA@XZ
?get_type_code@Delete_file_log_event@@UEAA?AW4Log_event_type@@XZ
?get_data_size@Delete_file_log_event@@UEAAHXZ
?is_valid@Delete_file_log_event@@UEBA_NXZ
?get_db@Delete_file_log_event@@UEAAPEBDXZ
??1Execute_load_query_log_event@@UEAA@XZ
?get_type_code@Execute_load_query_log_event@@UEAA?AW4Log_event_type@@XZ
?is_valid@Execute_load_query_log_event@@UEBA_NXZ
??0XML_TAG@@QEAA@HVString@@0@Z
??1XML_TAG@@QEAA@XZ
??0READ_INFO@@QEAA@HIPEBUcharset_info_st@@AEBVString@@111H_N2@Z
??1READ_INFO@@QEAA@XZ
?read_field@READ_INFO@@QEAAHXZ
?read_fixed_length@READ_INFO@@QEAAHXZ
?next_line@READ_INFO@@QEAAHXZ
?unescape@READ_INFO@@QEAADD@Z
?terminator@READ_INFO@@QEAAHPEBEI@Z
?find_start_of_fields@READ_INFO@@QEAA_NXZ
??0?$List@VXML_TAG@@@@QEAA@XZ
?push_front@?$List@VXML_TAG@@@@QEAA_NPEAVXML_TAG@@@Z
??1?$List@VXML_TAG@@@@QEAA@XZ
?read_value@READ_INFO@@QEAAHHPEAVString@@@Z
?read_xml@READ_INFO@@QEAAHXZ
?clear_level@READ_INFO@@QEAAHH@Z
?end_io_cache@READ_INFO@@QEAAXXZ
?set_io_cache_arg@READ_INFO@@QEAAXPEAX@Z
?skip_data_till_eof@READ_INFO@@QEAAXXZ
??0?$List_iterator_fast@VXML_TAG@@@@QEAA@AEAV?$List@VXML_TAG@@@@@Z
??E?$List_iterator_fast@VXML_TAG@@@@QEAAPEAVXML_TAG@@H@Z
?rewind@?$List_iterator_fast@VXML_TAG@@@@QEAAXXZ
??0?$List_iterator@VXML_TAG@@@@QEAA@AEAV?$List@VXML_TAG@@@@@Z
??E?$List_iterator@VXML_TAG@@@@QEAAPEAVXML_TAG@@H@Z
?rewind@?$List_iterator@VXML_TAG@@@@QEAAXXZ
?remove@?$List_iterator@VXML_TAG@@@@QEAAXXZ
??0list_node@@QEAA@XZ
??0base_list@@QEAA@AEBV0@PEAUst_mem_root@@@Z
?unlink@?$ilink@Vi_string_pair@@@@QEAAXXZ
?free_list@@YAXPEAV?$I_List@Vi_string_pair@@@@@Z
?free_list@@YAXPEAV?$I_List@Vi_string@@@@@Z
?is_empty@?$base_ilist@Vi_string_pair@@@@QEBA_NXZ
?get@?$base_ilist@Vi_string_pair@@@@QEAAPEAVi_string_pair@@XZ
?get@?$base_ilist@Vi_string@@@@QEAAPEAVi_string@@XZ
?end_of_list@@3Ulist_node@@A DATA
?sym_group_common@@3Ust_sym_group@@A DATA
?sym_group_geom@@3Ust_sym_group@@A DATA
?sym_group_rtree@@3Ust_sym_group@@A DATA
?index_hint_type_name@@3PAPEBDA DATA
?type_str@st_select_lex@@0PAPEBDA DATA
?null_lex_str@@3Ust_mysql_lex_string@@B DATA
?empty_lex_str@@3Ust_mysql_lex_string@@B DATA
?trg_new_row_fake_var@@3PEAVsys_var@@EA DATA
?binlog_stmt_unsafe_errcode@Query_tables_list@@2QBHB DATA
?binlog_unsafe_map@@3PAIA DATA
??0st_ha_check_opt@@QEAA@XZ
?print@TABLE_LIST@@QEAAXPEAVTHD@@PEAVString@@W4enum_query_type@@@Z
?is_view_or_derived@TABLE_LIST@@QEBA_NXZ
?place@Item_subselect@@QEAA?AW4enum_parsing_place@@XZ
?binlog_unsafe_map_init@@YAXXZ
?set_unspecified@st_lex_master_info@@QEAAXXZ
??0Index_hint@@QEAA@W4index_hint_type@@EPEADI@Z
?print@Index_hint@@QEAAXPEAVTHD@@PEAVString@@@Z
?get_master@st_select_lex_node@@QEAAPEAV1@XZ
?init_query@st_select_lex_node@@UEAAXXZ
?init_select@st_select_lex_node@@UEAAXXZ
?include_down@st_select_lex_node@@QEAAXPEAV1@@Z
?include_neighbour@st_select_lex_node@@QEAAXPEAV1@@Z
?include_standalone@st_select_lex_node@@QEAAXPEAV1@PEAPEAV1@@Z
?include_global@st_select_lex_node@@QEAAXPEAPEAV1@@Z
?exclude@st_select_lex_node@@QEAAXXZ
?set_braces@st_select_lex_node@@UEAA_N_N@Z
?inc_in_sum_expr@st_select_lex_node@@UEAA_NXZ
?get_in_sum_expr@st_select_lex_node@@UEAAIXZ
?get_table_list@st_select_lex_node@@UEAAPEAUTABLE_LIST@@XZ
?get_item_list@st_select_lex_node@@UEAAPEAV?$List@VItem@@@@XZ
?get_table_join_options@st_select_lex_node@@UEAAKXZ
?add_table_to_list@st_select_lex_node@@UEAAPEAUTABLE_LIST@@PEAVTHD@@PEAVTable_ident@@PEAUst_mysql_lex_string@@KW4thr_lock_type@@W4enum_mdl_type@@PEAV?$List@VIndex_hint@@@@PEAV?$List@VString@@@@2@Z
?fast_exclude@st_select_lex_node@@AEAAXXZ
?init_query@st_select_lex_unit@@UEAAXXZ
?master_unit@st_select_lex_unit@@UEAAPEAV1@XZ
?outer_select@st_select_lex_unit@@UEAAPEAVst_select_lex@@XZ
?exclude_level@st_select_lex_unit@@QEAAXXZ
?exclude_tree@st_select_lex_unit@@QEAAXXZ
?print@st_select_lex_unit@@QEAAXPEAVString@@W4enum_query_type@@@Z
?set_limit@st_select_lex_unit@@QEAAXPEAVst_select_lex@@@Z
?lex_start@@YAXPEAVTHD@@@Z
?invalidate@st_select_lex_unit@@AEAAXXZ
?push_back@?$List@VItem_func_match@@@@QEAA_NPEAVItem_func_match@@@Z
?init_query@st_select_lex@@UEAAXXZ
?init_select@st_select_lex@@UEAAXXZ
?master_unit@st_select_lex@@UEAAPEAVst_select_lex_unit@@XZ
?outer_select@st_select_lex@@UEAAPEAV1@XZ
?invalidate@st_select_lex@@QEAAXXZ
?mark_as_dependent@st_select_lex@@QEAAXPEAV1@@Z
?set_braces@st_select_lex@@UEAA_N_N@Z
?inc_in_sum_expr@st_select_lex@@UEAA_NXZ
?get_in_sum_expr@st_select_lex@@UEAAIXZ
?add_item_to_list@st_select_lex@@QEAA_NPEAVTHD@@PEAVItem@@@Z
?add_group_to_list@st_select_lex@@QEAA_NPEAVTHD@@PEAVItem@@_N@Z
?add_ftfunc_to_list@st_select_lex@@QEAA_NPEAVItem_func_match@@@Z
?add_order_to_list@st_select_lex@@QEAA_NPEAVTHD@@PEAVItem@@_N@Z
?add_gorder_to_list@st_select_lex@@QEAA_NPEAVTHD@@PEAVItem@@_N@Z
?get_table_list@st_select_lex@@UEAAPEAUTABLE_LIST@@XZ
?get_item_list@st_select_lex@@UEAAPEAV?$List@VItem@@@@XZ
?get_table_join_options@st_select_lex@@UEAAKXZ
?init_order@st_select_lex@@QEAAXXZ
?cut_subtree@st_select_lex@@QEAAXXZ
?test_limit@st_select_lex@@QEAA_NXZ
?setup_ref_array@st_select_lex@@QEAA_NPEAVTHD@@I@Z
?print@st_select_lex@@QEAAXPEAVTHD@@PEAVString@@W4enum_query_type@@@Z
?print_order@st_select_lex@@SAXPEAVString@@PEAUst_order@@W4enum_query_type@@@Z
?print_limit@st_select_lex@@QEAAXPEAVTHD@@PEAVString@@W4enum_query_type@@@Z
?fix_prepare_information@st_select_lex@@QEAAXPEAVTHD@@PEAPEAVItem@@1@Z
?set_index_hint_type@st_select_lex@@QEAAXW4index_hint_type@@E@Z
?add_index_hint@st_select_lex@@QEAA_NPEAVTHD@@PEADI@Z
?alloc_index_hints@st_select_lex@@QEAAXPEAVTHD@@@Z
?handle_derived@st_select_lex@@QEAA_NPEAULEX@@P6A_NPEAVTHD@@0PEAUTABLE_LIST@@@Z@Z
?type@st_select_lex@@QEAA?AW4type_enum@1@PEBVTHD@@@Z
?reset@struct_slave_connection@@QEAAXXZ
?reset_query_tables_list@Query_tables_list@@QEAAX_N@Z
?destroy_query_tables_list@Query_tables_list@@QEAAXXZ
?set_query_tables_list@Query_tables_list@@QEAAXPEAV1@@Z
?stmt_accessed_table_string@Query_tables_list@@SAPEBDW4enum_stmt_accessed_table@1@@Z
??0st_parsing_options@@QEAA@XZ
?reset@st_parsing_options@@QEAAXXZ
?init@Lex_input_stream@@QEAA_NPEAVTHD@@PEADI@Z
?reset@Lex_input_stream@@QEAAXPEADI@Z
?set_echo@Lex_input_stream@@QEAAX_N@Z
?save_in_comment_state@Lex_input_stream@@QEAAXXZ
?restore_in_comment_state@Lex_input_stream@@QEAAXXZ
?skip_binary@Lex_input_stream@@QEAAXH@Z
?yyGet@Lex_input_stream@@QEAAEXZ
?yyGetLast@Lex_input_stream@@QEAAEXZ
?yyPeek@Lex_input_stream@@QEAAEXZ
?yyPeekn@Lex_input_stream@@QEAAEH@Z
?yyUnget@Lex_input_stream@@QEAAXXZ
?yySkip@Lex_input_stream@@QEAAXXZ
?yySkipn@Lex_input_stream@@QEAAXH@Z
?yyUnput@Lex_input_stream@@QEAAPEADD@Z
?cpp_inject@Lex_input_stream@@QEAAPEADD@Z
?eof@Lex_input_stream@@QEAA_NXZ
?get_cpp_buf@Lex_input_stream@@QEAAPEBDXZ
?get_end_of_query@Lex_input_stream@@QEAAPEBDXZ
?start_token@Lex_input_stream@@QEAAXXZ
?restart_token@Lex_input_stream@@QEAAXXZ
?get_tok_start@Lex_input_stream@@QEAAPEBDXZ
?get_cpp_tok_start@Lex_input_stream@@QEAAPEBDXZ
?get_ptr@Lex_input_stream@@QEAAPEBDXZ
?get_cpp_ptr@Lex_input_stream@@QEAAPEBDXZ
?yyLength@Lex_input_stream@@QEAAIXZ
?body_utf8_start@Lex_input_stream@@QEAAXPEAVTHD@@PEBD@Z
?body_utf8_append@Lex_input_stream@@QEAAXPEBD@Z
?body_utf8_append@Lex_input_stream@@QEAAXPEBD0@Z
?body_utf8_append_literal@Lex_input_stream@@QEAAXPEAVTHD@@PEBUst_mysql_lex_string@@PEBUcharset_info_st@@PEBD@Z
?add_digest_token@Lex_input_stream@@QEAAXIPEATYYSTYPE@@@Z
?reduce_digest_token@Lex_input_stream@@QEAAXII@Z
??0?$List@Ust_lex_user@@@@QEAA@XZ
??0?$List@VLEX_COLUMN@@@@QEAA@XZ
??0?$List@V?$List@VItem@@@@@@QEAA@XZ
??0?$List@Vset_var_base@@@@QEAA@XZ
??0?$List@VItem_func_set_user_var@@@@QEAA@XZ
??0?$List@VItem_param@@@@QEAA@XZ
??0?$List@UName_resolution_context@@@@QEAA@XZ
?set_sp_current_parsing_ctx@LEX@@QEAAXPEAVsp_pcontext@@@Z
??0LEX@@QEAA@XZ
?set_trg_event_type_for_tables@LEX@@QEAAXXZ
?unlink_first_table@LEX@@QEAAPEAUTABLE_LIST@@PEA_N@Z
?link_first_table_back@LEX@@QEAAXPEAUTABLE_LIST@@_N@Z
?first_lists_tables_same@LEX@@QEAAXXZ
?can_be_merged@LEX@@QEAA_NXZ
?can_use_merged@LEX@@QEAA_NXZ
?can_not_use_merged@LEX@@QEAA_NXZ
?only_view_structure@LEX@@QEAA_NXZ
?need_correct_ident@LEX@@QEAA_NXZ
?get_effective_with_check@LEX@@QEAAEPEAUTABLE_LIST@@@Z
?which_check_option_applicable@LEX@@QEAA_NXZ
?cleanup_after_one_table_open@LEX@@QEAAXXZ
?copy_db_to@LEX@@QEBA_NPEAPEADPEA_K@Z
?cleanup_lex_after_parse_error@LEX@@SAXPEAVTHD@@@Z
?reset_n_backup_query_tables_list@LEX@@QEAAXPEAVQuery_tables_list@@@Z
?restore_backup_query_tables_list@LEX@@QEAAXPEAVQuery_tables_list@@@Z
?table_or_sp_used@LEX@@QEAA_NXZ
?is_partition_management@LEX@@QEBA_NXZ
??1Yacc_state@@QEAA@XZ
?lex_init@@YAXXZ
?lex_free@@YAXXZ
?lex_end@@YAXPEAULEX@@@Z
?MYSQLlex@@YAHPEATYYSTYPE@@PEAVTHD@@@Z
?trim_whitespace@@YAXPEBUcharset_info_st@@PEAUst_mysql_lex_string@@@Z
?is_lex_native_function@@YA_NPEBUst_mysql_lex_string@@@Z
?is_keyword@@YA_NPEBDI@Z
?db_is_default_db@@YA_NPEBD_KPEBVTHD@@@Z
?finish_parsing_sp_body@sp_parser_data@@QEAAXPEAVTHD@@@Z
?is_parsing_sp_body@sp_parser_data@@QEBA_NXZ
?lex_casecmp@@YAHPEBD0I@Z
??0?$Mem_root_array@PEAUst_order@@$00@@QEAA@PEAUst_mem_root@@@Z
?clear@?$Mem_root_array@PEAUst_order@@$00@@QEAAXXZ
?chop@?$Mem_root_array@PEAUst_order@@$00@@QEAAX_K@Z
?reserve@?$Mem_root_array@PEAUst_order@@$00@@QEAA_N_K@Z
?push_back@?$Mem_root_array@PEAUst_order@@$00@@QEAA_NAEBQEAUst_order@@@Z
?element_size@?$Mem_root_array@PEAUst_order@@$00@@QEBA_KXZ
?empty@?$Mem_root_array@PEAUst_order@@$00@@QEBA_NXZ
?consume_comment@@YA_NPEAVLex_input_stream@@H@Z
??0?$List@VIndex_hint@@@@QEAA@XZ
?push_front@?$List@VIndex_hint@@@@QEAA_NPEAVIndex_hint@@@Z
?unsafe_mixed_statement@@YAXW4enum_stmt_accessed_table@Query_tables_list@@0I@Z
?get_length@Field_blob@@QEAAII@Z
?get_ptr@Field_blob@@QEAAXPEAPEAE@Z
?set_ptr@Field_blob@@QEAAXPEAE0@Z
?impossible_null_ref@st_table_ref@@QEBA_NXZ
?check_rowid_field@st_join_table@@QEAA_NXZ
?is_first_inner_for_outer_join@st_join_table@@QEAA_NXZ
?bind_buffer@st_cache_field@@QEAAXPEAE@Z
?buffer_is_bound@st_cache_field@@QEBA_NXZ
?offset_size@JOIN_CACHE@@IEAAIK@Z
?get_offset@JOIN_CACHE@@IEAAKIPEAE@Z
?store_offset@JOIN_CACHE@@IEAAXIPEAEK@Z
?calc_record_fields@JOIN_CACHE@@IEAAXXZ
?alloc_fields@JOIN_CACHE@@IEAAHI@Z
?create_flag_fields@JOIN_CACHE@@IEAAXXZ
?create_remaining_fields@JOIN_CACHE@@IEAAX_N@Z
?set_constants@JOIN_CACHE@@IEAAXXZ
?alloc_buffer@JOIN_CACHE@@IEAA_NXZ
?get_size_of_rec_offset@JOIN_CACHE@@IEAAIXZ
?get_size_of_rec_length@JOIN_CACHE@@IEAAIXZ
?get_size_of_fld_offset@JOIN_CACHE@@IEAAIXZ
?get_rec_ref@JOIN_CACHE@@IEAAPEAEPEAE@Z
?get_rec_length@JOIN_CACHE@@IEAAKPEAE@Z
?get_fld_offset@JOIN_CACHE@@IEAAKPEAE@Z
?store_rec_ref@JOIN_CACHE@@IEAAXPEAE0@Z
?store_rec_length@JOIN_CACHE@@IEAAXPEAEK@Z
?store_fld_offset@JOIN_CACHE@@IEAAXPEAEK@Z
?write_record_data@JOIN_CACHE@@IEAAIPEAEPEA_N@Z
?skip_record_if_match@JOIN_CACHE@@MEAA_NXZ
?read_some_record_fields@JOIN_CACHE@@IEAAHXZ
?read_some_flag_fields@JOIN_CACHE@@IEAAXXZ
?read_all_flag_fields_by_pos@JOIN_CACHE@@IEAAXPEAE@Z
?read_record_field@JOIN_CACHE@@IEAAIPEAUst_cache_field@@_N@Z
?read_referenced_field@JOIN_CACHE@@IEAA_NPEAUst_cache_field@@PEAEPEAI@Z
?blob_data_is_in_rec_buff@JOIN_CACHE@@IEAA_NPEAE@Z
?join_null_complements@JOIN_CACHE@@MEAA?AW4enum_nested_loop_state@@_N@Z
?restore_last_record@JOIN_CACHE@@MEAAXXZ
?set_match_flag_if_none@JOIN_CACHE@@IEAA_NPEAUst_join_table@@PEAE@Z
?generate_full_extensions@JOIN_CACHE@@IEAA?AW4enum_nested_loop_state@@PEAE@Z
?check_match@JOIN_CACHE@@MEAA_NPEAE@Z
?calc_check_only_first_match@JOIN_CACHE@@IEBA_NPEBUst_join_table@@@Z
?put_record_in_cache@JOIN_CACHE@@MEAA_NXZ
?reset_cache@JOIN_CACHE@@UEAAX_N@Z
?get_record@JOIN_CACHE@@UEAA_NXZ
?get_record_by_pos@JOIN_CACHE@@UEAAXPEAE@Z
?get_match_flag_by_pos@JOIN_CACHE@@UEAA_NPEAE@Z
?join_records@JOIN_CACHE@@QEAA?AW4enum_nested_loop_state@@_N@Z
?join_matching_records@JOIN_CACHE_BNL@@MEAA?AW4enum_nested_loop_state@@_N@Z
?init@JOIN_CACHE_BNL@@UEAAHXZ
?check_emb_key_usage@JOIN_CACHE_BKA@@IEAA_NXZ
?aux_buffer_incr@JOIN_CACHE_BKA@@MEAAIXZ
?aux_buffer_min_size@JOIN_CACHE_BKA@@MEBAIXZ
?join_matching_records@JOIN_CACHE_BKA@@MEAA?AW4enum_nested_loop_state@@_N@Z
?init_join_matching_records@JOIN_CACHE_BKA@@IEAA_NPEAUst_range_seq_if@@I@Z
?init@JOIN_CACHE_BKA@@UEAAHXZ
?get_next_key@JOIN_CACHE_BKA@@UEAAIPEAPEAE@Z
?skip_index_tuple@JOIN_CACHE_BKA@@QEAA_NPEAXPEAD@Z
?get_hash_idx@JOIN_CACHE_BKA_UNIQUE@@AEAAIPEAEI@Z
?cleanup_hash_table@JOIN_CACHE_BKA_UNIQUE@@AEAAXXZ
?get_size_of_key_offset@JOIN_CACHE_BKA_UNIQUE@@IEAAIXZ
?get_next_key_ref@JOIN_CACHE_BKA_UNIQUE@@IEAAPEAEPEAE@Z
?store_next_key_ref@JOIN_CACHE_BKA_UNIQUE@@IEAAXPEAE0@Z
?is_null_key_ref@JOIN_CACHE_BKA_UNIQUE@@IEAA_NPEAE@Z
?store_null_key_ref@JOIN_CACHE_BKA_UNIQUE@@IEAAXPEAE@Z
?get_next_rec_ref@JOIN_CACHE_BKA_UNIQUE@@IEAAPEAEPEAE@Z
?store_next_rec_ref@JOIN_CACHE_BKA_UNIQUE@@IEAAXPEAE0@Z
?get_curr_emb_key@JOIN_CACHE_BKA_UNIQUE@@IEAAPEAEXZ
?get_emb_key@JOIN_CACHE_BKA_UNIQUE@@IEAAPEAEPEAE@Z
?store_emb_key_ref@JOIN_CACHE_BKA_UNIQUE@@IEAAXPEAE0@Z
?skip_record_if_match@JOIN_CACHE_BKA_UNIQUE@@MEAA_NXZ
?join_matching_records@JOIN_CACHE_BKA_UNIQUE@@MEAA?AW4enum_nested_loop_state@@_N@Z
?key_search@JOIN_CACHE_BKA_UNIQUE@@IEAA_NPEAEIPEAPEAE@Z
?check_match@JOIN_CACHE_BKA_UNIQUE@@MEAA_NPEAE@Z
?put_record_in_cache@JOIN_CACHE_BKA_UNIQUE@@MEAA_NXZ
?init@JOIN_CACHE_BKA_UNIQUE@@UEAAHXZ
?reset_cache@JOIN_CACHE_BKA_UNIQUE@@UEAAX_N@Z
?get_record@JOIN_CACHE_BKA_UNIQUE@@UEAA_NXZ
?check_all_match_flags_for_key@JOIN_CACHE_BKA_UNIQUE@@UEAA_NPEAE@Z
?get_next_key@JOIN_CACHE_BKA_UNIQUE@@UEAAIPEAPEAE@Z
?get_curr_key_chain@JOIN_CACHE_BKA_UNIQUE@@QEAAPEAEXZ
?skip_index_tuple@JOIN_CACHE_BKA_UNIQUE@@QEAA_NPEAXPEAD@Z
??_9Item@@$BCJI@AA
?in_range@Discrete_interval@@QEBA_N_K@Z
?get_next@Discrete_intervals_list@@QEAAPEBVDiscrete_interval@@XZ
??0TABLEOP_HOOKS@@QEAA@XZ
??1TABLEOP_HOOKS@@UEAA@XZ
?prelock@TABLEOP_HOOKS@@QEAAXPEAPEAUTABLE@@I@Z
?postlock@TABLEOP_HOOKS@@QEAAHPEAPEAUTABLE@@I@Z
?do_prelock@TABLEOP_HOOKS@@EEAAXPEAPEAUTABLE@@I@Z
?do_postlock@TABLEOP_HOOKS@@EEAAHPEAPEAUTABLE@@I@Z
?has_old_version@TABLE_SHARE@@QEBA_NXZ
??0Field_iterator@@QEAA@XZ
??1Field_iterator@@UEAA@XZ
??0Field_iterator_table@@QEAA@XZ
?set@Field_iterator_table@@UEAAXPEAUTABLE_LIST@@@Z
?next@Field_iterator_table@@UEAAXXZ
?end_of_fields@Field_iterator_table@@UEAA_NXZ
?field@Field_iterator_table@@UEAAPEAVField@@XZ
??1Field_iterator_table@@UEAA@XZ
??0Field_iterator_view@@QEAA@XZ
?next@Field_iterator_view@@UEAAXXZ
?end_of_fields@Field_iterator_view@@UEAA_NXZ
?field@Field_iterator_view@@UEAAPEAVField@@XZ
??1Field_iterator_view@@UEAA@XZ
??0?$List_iterator_fast@VNatural_join_column@@@@QEAA@XZ
??0Field_iterator_natural_join@@QEAA@XZ
??1Field_iterator_natural_join@@UEAA@XZ
?end_of_fields@Field_iterator_natural_join@@UEAA_NXZ
?name@Field_iterator_natural_join@@UEAAPEBDXZ
?create_item@Field_iterator_natural_join@@UEAAPEAVItem@@PEAVTHD@@@Z
?field@Field_iterator_natural_join@@UEAAPEAVField@@XZ
??0Field_iterator_table_ref@@QEAA@XZ
?end_of_fields@Field_iterator_table_ref@@UEAA_NXZ
?name@Field_iterator_table_ref@@UEAAPEBDXZ
?create_item@Field_iterator_table_ref@@UEAAPEAVItem@@PEAVTHD@@@Z
?field@Field_iterator_table_ref@@UEAAPEAVField@@XZ
??1Field_iterator_table_ref@@UEAA@XZ
?clear_temporary@Field_blob@@QEAAXXZ
?get_changed_columns@COPY_INFO@@QEBAPEAV?$List@VItem@@@@XZ
?get_duplicate_handling@COPY_INFO@@QEBA?AW4enum_duplicates@@XZ
?get_ignore_errors@COPY_INFO@@QEBA_NXZ
??0Name_resolution_context_state@@QEAA@XZ
?save_state@Name_resolution_context_state@@QEAAXPEAUName_resolution_context@@PEAUTABLE_LIST@@@Z
?restore_state@Name_resolution_context_state@@QEAAXPEAUName_resolution_context@@PEAUTABLE_LIST@@@Z
?get_first_name_resolution_table@Name_resolution_context_state@@QEAAPEAUTABLE_LIST@@XZ
?uses_stored_routines@Query_tables_list@@QEBA_NXZ
?head@?$List@V?$List@VItem@@@@@@QEAAPEAV?$List@VItem@@@@XZ
?can_acquire_protection@Global_read_lock@@QEBA_NXZ
?record_first_successful_insert_id_in_cur_stmt@THD@@QEAAX_K@Z
?set_query@THD@@QEAAXPEADIPEBUcharset_info_st@@@Z
??1select_insert@@UEAA@XZ
?prepare@select_insert@@UEAAHAEAV?$List@VItem@@@@PEAVst_select_lex_unit@@@Z
?prepare2@select_insert@@UEAAHXZ
?send_data@select_insert@@UEAA_NAEAV?$List@VItem@@@@@Z
?store_values@select_insert@@UEAAXAEAV?$List@VItem@@@@@Z
?send_error@select_insert@@UEAAXIPEBD@Z
?send_eof@select_insert@@UEAA_NXZ
?abort_result_set@select_insert@@UEAAXXZ
?cleanup@select_insert@@UEAAXXZ
?prepare@select_create@@UEAAHAEAV?$List@VItem@@@@PEAVst_select_lex_unit@@@Z
?binlog_show_create_table@select_create@@QEAAHPEAPEAUTABLE@@I@Z
?store_values@select_create@@UEAAXAEAV?$List@VItem@@@@@Z
?send_error@select_create@@UEAAXIPEBD@Z
?send_eof@select_create@@UEAA_NXZ
?abort_result_set@select_create@@UEAAXXZ
?get_thd@select_create@@QEAAPEBVTHD@@XZ
?prepare2@select_create@@UEAAHXZ
?mysql_prepare_insert@@YA_NPEAVTHD@@PEAUTABLE_LIST@@PEAUTABLE@@AEAV?$List@VItem@@@@PEAV4@33W4enum_duplicates@@PEAPEAVItem@@_N77@Z
?mysql_insert@@YA_NPEAVTHD@@PEAUTABLE_LIST@@AEAV?$List@VItem@@@@AEAV?$List@V?$List@VItem@@@@@@22W4enum_duplicates@@_N@Z
?check_that_all_fields_are_given_values@@YAHPEAVTHD@@PEAUTABLE@@PEAUTABLE_LIST@@@Z
?prepare_triggers_for_insert_stmt@@YAXPEAUTABLE@@@Z
?write_record@@YAHPEAVTHD@@PEAUTABLE@@PEAVCOPY_INFO@@2@Z
?kill_delayed_threads@@YAXXZ
?validate_default_values_of_unset_fields@@YA_NPEAVTHD@@PEAUTABLE@@@Z
?mysql_insert_select_prepare@@YA_NPEAVTHD@@@Z
??0Delayable_insert_operation@@QEAA@XZ
?set_function_defaults@Delayable_insert_operation@@UEAAXPEAUTABLE@@@Z
?set_dup_and_ignore@Delayable_insert_operation@@QEAAXW4enum_duplicates@@_N@Z
??1Delayable_insert_operation@@UEAA@XZ
handle_delayed_insert
?check_view_single_update@@YA_NAEAV?$List@VItem@@@@PEAV1@PEAUTABLE_LIST@@PEA_K@Z
?init@?$List_iterator_fast@VItem@@@@QEAAXAEAV?$List@VItem@@@@@Z
??0?$ilink@Vdelayed_row@@@@QEAA@XZ
?unlink@?$ilink@Vdelayed_row@@@@QEAAXXZ
??1?$ilink@Vdelayed_row@@@@UEAA@XZ
??0delayed_row@@QEAA@Ust_mysql_lex_string@@PEBVCOPY_INFO@@_N@Z
?copy_context@delayed_row@@QEAA_NPEAVTHD@@PEAUTABLE@@1@Z
??1delayed_row@@UEAA@XZ
??0?$ilink@VDelayed_insert@@@@QEAA@XZ
?unlink@?$ilink@VDelayed_insert@@@@QEAAXXZ
??1?$ilink@VDelayed_insert@@@@UEAA@XZ
?empty@?$base_ilist@Vdelayed_row@@@@QEAAXXZ
??0?$base_ilist@Vdelayed_row@@@@QEAA@XZ
?is_empty@?$base_ilist@Vdelayed_row@@@@QEBA_NXZ
?push_back@?$base_ilist@Vdelayed_row@@@@QEAAXPEAVdelayed_row@@@Z
?get@?$base_ilist@Vdelayed_row@@@@QEAAPEAVdelayed_row@@XZ
?head@?$base_ilist@Vdelayed_row@@@@QEAAPEAVdelayed_row@@XZ
??1?$base_ilist@Vdelayed_row@@@@QEAA@XZ
??0?$I_List@Vdelayed_row@@@@QEAA@XZ
??1?$I_List@Vdelayed_row@@@@QEAA@XZ
??0Delayed_insert@@QEAA@XZ
??1Delayed_insert@@UEAA@XZ
?lock@Delayed_insert@@QEAAXXZ
?unlock@Delayed_insert@@QEAAXXZ
?lock_count@Delayed_insert@@QEAAIXZ
?get_local_table@Delayed_insert@@QEAAPEAUTABLE@@PEAVTHD@@@Z
?open_and_lock_table@Delayed_insert@@QEAA_NXZ
?handle_inserts@Delayed_insert@@QEAA_NXZ
?empty@?$base_ilist@VDelayed_insert@@@@QEAAXXZ
??0?$base_ilist@VDelayed_insert@@@@QEAA@XZ
?push_front@?$base_ilist@VDelayed_insert@@@@QEAAXPEAVDelayed_insert@@@Z
??1?$base_ilist@VDelayed_insert@@@@QEAA@XZ
??0?$I_List@VDelayed_insert@@@@QEAA@XZ
??1?$I_List@VDelayed_insert@@@@QEAA@XZ
??0?$base_ilist_iterator@VDelayed_insert@@@@QEAA@AEAV?$base_ilist@VDelayed_insert@@@@@Z
?next@?$base_ilist_iterator@VDelayed_insert@@@@QEAAPEAVDelayed_insert@@XZ
??0?$I_List_iterator@VDelayed_insert@@@@QEAA@AEAV?$I_List@VDelayed_insert@@@@@Z
??E?$I_List_iterator@VDelayed_insert@@@@QEAAPEAVDelayed_insert@@H@Z
?handle_routine@Delayed_prelocking_strategy@@UEAA_NPEAVTHD@@PEAVQuery_tables_list@@PEAVSroutine_hash_entry@@PEAVsp_head@@PEA_N@Z
?handle_table@Delayed_prelocking_strategy@@UEAA_NPEAVTHD@@PEAVQuery_tables_list@@PEAUTABLE_LIST@@PEA_N@Z
?handle_view@Delayed_prelocking_strategy@@UEAA_NPEAVTHD@@PEAVQuery_tables_list@@PEAUTABLE_LIST@@PEA_N@Z
??0Delayed_prelocking_strategy@@QEAA@XZ
??1Delayed_prelocking_strategy@@UEAA@XZ
??_9Item@@$BDLA@AA
??1MY_HOOKS@?5??prepare2@select_create@@UEAAHXZ@UEAA@XZ
?delayed_threads@@3V?$I_List@VDelayed_insert@@@@A DATA
?head@?$List@VString@@@@QEAAPEAVString@@XZ
?mysqld_help@@YA_NPEAVTHD@@PEBD@Z
?store@Protocol@@QEAA_NPEAVString@@@Z
??0Item_string@@QEAA@PEBDIPEBUcharset_info_st@@W4Derivation@@I@Z
??0Item_func_like@@QEAA@PEAVItem@@00_N@Z
?functype@Item_func_like@@UEBA?AW4Functype@Item_func@@XZ
?eq_cmp_result@Item_func_like@@UEBA?AW4cond_result@Item@@XZ
?func_name@Item_func_like@@UEBAPEBDXZ
??1Item_func_like@@UEAA@XZ
?memorize_variant_topic@@YAXPEAVTHD@@PEAUTABLE@@HPEAUst_find_field@@PEAV?$List@VString@@@@PEAVString@@44@Z
?search_topics@@YAHPEAVTHD@@PEAUTABLE@@PEAUst_find_field@@PEAVSQL_SELECT@@PEAV?$List@VString@@@@PEAVString@@55@Z
?search_keyword@@YAHPEAVTHD@@PEAUTABLE@@PEAUst_find_field@@PEAVSQL_SELECT@@PEAH@Z
?get_topics_for_keyword@@YAHPEAVTHD@@PEAUTABLE@@1PEAUst_find_field@@FPEAV?$List@VString@@@@PEAVString@@44@Z
?search_categories@@YAHPEAVTHD@@PEAUTABLE@@PEAUst_find_field@@PEAVSQL_SELECT@@PEAV?$List@VString@@@@PEAF@Z
?get_all_items_for_category@@YAXPEAVTHD@@PEAUTABLE@@PEAVField@@PEAVSQL_SELECT@@PEAV?$List@VString@@@@@Z
?send_answer_1@@YAHPEAVProtocol@@PEAVString@@11@Z
?send_header_2@@YAHPEAVProtocol@@_N@Z
string_ptr_cmp
?send_variant_2_list@@YAHPEAUst_mem_root@@PEAVProtocol@@PEAV?$List@VString@@@@PEBDPEAVString@@@Z
?prepare_simple_select@@YAPEAVSQL_SELECT@@PEAVTHD@@PEAVItem@@PEAUTABLE@@PEAH@Z
?prepare_select_for_name@@YAPEAVSQL_SELECT@@PEAVTHD@@PEBDIPEAUTABLE_LIST@@PEAUTABLE@@PEAVField@@PEAH@Z
?set_needs_thr_lock_abort@MDL_context@@QEAAX_N@Z
?get_index@handler@@QEBAIXZ
?set_open_tables@THD@@QEAAXPEAUTABLE@@@Z
?execute@Sql_cmd_handler_open@@UEAA_NPEAVTHD@@@Z
?execute@Sql_cmd_handler_read@@UEAA_NPEAVTHD@@@Z
?execute@Sql_cmd_handler_close@@UEAA_NPEAVTHD@@@Z
?mysql_ha_flush@@YAXPEAVTHD@@@Z
?mysql_ha_flush_tables@@YAXPEAVTHD@@PEAUTABLE_LIST@@@Z
?mysql_ha_rm_tables@@YAXPEAVTHD@@PEAUTABLE_LIST@@@Z
?mysql_ha_cleanup@@YAXPEAVTHD@@@Z
?mysql_ha_set_explicit_lock_duration@@YAXPEAVTHD@@@Z
?handle_condition@Sql_handler_lock_error_handler@@UEAA_NPEAVTHD@@IPEBDW4enum_warning_level@Sql_condition@@1PEAPEAV4@@Z
?need_reopen@Sql_handler_lock_error_handler@@QEBA_NXZ
?init@Sql_handler_lock_error_handler@@QEAAXXZ
??0Sql_handler_lock_error_handler@@QEAA@XZ
??1Sql_handler_lock_error_handler@@UEAA@XZ
?cond_count@Warning_info@@AEBAIXZ
?cond_count@Diagnostics_area@@QEBAIXZ
??0Item_uint@@QEAA@_K@Z
??0Item_uint@@QEAA@AEBVName_string@@_JI@Z
?val_real@Item_uint@@UEAANXZ
?clone_item@Item_uint@@UEAAPEAVItem@@XZ
?decimal_precision@Item_uint@@UEBAIXZ
?check_partition_func_processor@Item_uint@@UEAA_NPEAE@Z
??1Item_uint@@UEAA@XZ
?execute@Sql_cmd_get_diagnostics@@UEAA_NPEAVTHD@@@Z
?set_value@Diagnostics_information_item@@QEAA_NPEAVTHD@@PEAPEAVItem@@@Z
?get_value@Statement_information_item@@QEAAPEAVItem@@PEAVTHD@@PEBVDiagnostics_area@@@Z
?aggregate@Statement_information@@UEAA_NPEAVTHD@@PEBVDiagnostics_area@@@Z
?get_value@Condition_information_item@@QEAAPEAVItem@@PEAVTHD@@PEBVSql_condition@@@Z
?make_utf8_string_item@Condition_information_item@@AEAAPEAVItem@@PEAVTHD@@PEBVString@@@Z
?aggregate@Condition_information@@UEAA_NPEAVTHD@@PEBVDiagnostics_area@@@Z
??0?$List_iterator@VStatement_information_item@@@@QEAA@AEAV?$List@VStatement_information_item@@@@@Z
??E?$List_iterator@VStatement_information_item@@@@QEAAPEAVStatement_information_item@@H@Z
??$evaluate@VStatement_information_item@@PEBVDiagnostics_area@@@Diagnostics_information@@IEAA_NPEAVTHD@@PEAVStatement_information_item@@PEBVDiagnostics_area@@@Z
??0?$List_iterator_fast@VCondition_information_item@@@@QEAA@AEAV?$List@VCondition_information_item@@@@@Z
??E?$List_iterator_fast@VCondition_information_item@@@@QEAAPEAVCondition_information_item@@H@Z
??$evaluate@VCondition_information_item@@PEBVSql_condition@@@Diagnostics_information@@IEAA_NPEAVTHD@@PEAVCondition_information_item@@PEBVSql_condition@@@Z
?sublist@base_list_iterator@@IEAAXAEAVbase_list@@I@Z
??0my_decimal@@QEAA@AEBV0@@Z
?ft_end@handler@@QEAAXXZ
?copy@Field_blob@@QEAA_NXZ
?feature_enabled@Opt_trace_context@@QEBA_NW4feature_value@1@@Z
?has_with_distinct@Item_sum@@QEBA_NXZ
?reset_and_add@Item_sum@@QEAA_NXZ
?aggregator_setup@Item_sum@@QEAA_NPEAVTHD@@@Z
?aggregator_clear@Item_sum@@QEAAXXZ
?aggregator_add@Item_sum@@QEAA_NXZ
??0Item_var_func@@QEAA@PEAVTHD@@PEAV0@@Z
?get_date@Item_var_func@@UEAA_NPEAUst_mysql_time@@I@Z
?get_time@Item_var_func@@UEAA_NPEAUst_mysql_time@@@Z
??1Item_var_func@@UEAA@XZ
??0Item_func_set_user_var@@QEAA@PEAVTHD@@PEAV0@@Z
?functype@Item_func_set_user_var@@UEBA?AW4Functype@Item_func@@XZ
?result_type@Item_func_set_user_var@@UEBA?AW4Item_result@@XZ
?func_name@Item_func_set_user_var@@UEBAPEBDXZ
?save_in_field@Item_func_set_user_var@@UEAA?AW4type_conversion_status@@PEAVField@@_N@Z
?save_org_in_field@Item_func_set_user_var@@UEAAXPEAVField@@@Z
??1Item_func_set_user_var@@UEAA@XZ
?get_sent_row_count@THD@@QEBA_KXZ
??0TMP_TABLE_PARAM@@QEAA@AEBV0@@Z
??0QEP_tmp_table@@QEAA@PEAUst_join_table@@@Z
?type@QEP_tmp_table@@UEAA?AW4enum_op_type@QEP_operation@@XZ
?put_record@QEP_tmp_table@@UEAA?AW4enum_nested_loop_state@@XZ
?end_send@QEP_tmp_table@@UEAA?AW4enum_nested_loop_state@@XZ
?set_write_func@QEP_tmp_table@@QEAAXP6A?AW4enum_nested_loop_state@@PEAVJOIN@@PEAUst_join_table@@_N@Z@Z
?put_record@QEP_tmp_table@@AEAA?AW4enum_nested_loop_state@@_N@Z
?prepare_tmp_table@QEP_tmp_table@@AEAA_NXZ
??1QEP_tmp_table@@UEAA@XZ
?setup_tmptable_write_func@@YAXPEAUst_join_table@@@Z
?setup_end_select_func@@YAP6A?AW4enum_nested_loop_state@@PEAVJOIN@@PEAUst_join_table@@_N@Z01@Z
?sub_select_op@@YA?AW4enum_nested_loop_state@@PEAVJOIN@@PEAUst_join_table@@_N@Z
?end_send_group@@YA?AW4enum_nested_loop_state@@PEAVJOIN@@PEAUst_join_table@@_N@Z
?end_write_group@@YA?AW4enum_nested_loop_state@@PEAVJOIN@@PEAUst_join_table@@_N@Z
?sub_select@@YA?AW4enum_nested_loop_state@@PEAVJOIN@@PEAUst_join_table@@_N@Z
?copy_fields@@YAXPEAVTMP_TABLE_PARAM@@@Z
?copy_funcs@@YA_NPEAPEAVItem@@PEBVTHD@@@Z
?cp_buffer_from_ref@@YA_NPEAVTHD@@PEAUTABLE@@PEAUst_table_ref@@@Z
?report_handler_error@@YAHPEAUTABLE@@H@Z
?safe_index_read@@YAHPEAUst_join_table@@@Z
?pick_table_access_method@@YAXPEAUst_join_table@@@Z
?join_read_const_table@@YAHPEAUst_join_table@@PEAUst_position@@@Z
?join_read_key_unlock_row@@YAXPEAUst_join_table@@@Z
?join_init_quick_read_record@@YAHPEAUst_join_table@@@Z
?join_init_read_record@@YAHPEAUst_join_table@@@Z
?join_read_first@@YAHPEAUst_join_table@@@Z
?join_read_last@@YAHPEAUst_join_table@@@Z
?join_read_last_key@@YAHPEAUst_join_table@@@Z
?join_materialize_derived@@YAHPEAUst_join_table@@@Z
?join_materialize_semijoin@@YAHPEAUst_join_table@@@Z
?join_read_prev_same@@YAHPEAUREAD_RECORD@@@Z
?do_sj_dups_weedout@@YAHPEAVTHD@@PEAVSJ_TMP_TABLE@@@Z
?test_if_item_cache_changed@@YAHAEAV?$List@VCached_item@@@@@Z
?change_to_use_tmp_fields@@YA_NPEAVTHD@@V?$Bounds_checked_array@PEAVItem@@@@AEAV?$List@VItem@@@@2I2@Z
?change_refs_to_tmp_fields@@YA_NPEAVTHD@@V?$Bounds_checked_array@PEAVItem@@@@AEAV?$List@VItem@@@@2I2@Z
?alloc_group_fields@@YA_NPEAVJOIN@@PEAUst_order@@@Z
?prepare_sum_aggregators@@YA_NPEAPEAVItem_sum@@_N@Z
?setup_sum_funcs@@YA_NPEAVTHD@@PEAPEAVItem_sum@@@Z
?make_group_fields@@YA_NPEAVJOIN@@0@Z
?setup_copy_fields@@YA_NPEAVTHD@@PEAVTMP_TABLE_PARAM@@V?$Bounds_checked_array@PEAVItem@@@@AEAV?$List@VItem@@@@3I3@Z
?do_firstmatch@st_join_table@@QEBA_NXZ
?starts_weedout@st_join_table@@QEBA_NXZ
?finishes_weedout@st_join_table@@QEBA_NXZ
?prepare_scan@st_join_table@@QEAA_NXZ
?use_order@st_join_table@@QEBA_NXZ
?sort_table@st_join_table@@QEAA_NXZ
?remove_duplicates@st_join_table@@QEAA_NXZ
?push_front@?$List@VCached_item@@@@QEAA_NPEAVCached_item@@@Z
??BORDER_with_src@JOIN@@QEBAPEBUst_order@@XZ
?exec@JOIN@@QEAAXXZ
?rollup_send_data@JOIN@@QEAAHI@Z
?rollup_write_data@JOIN@@QEAAHIPEAUTABLE@@@Z
?send_row_on_empty_set@JOIN@@QEBA_NXZ
?create_intermediate_table@JOIN@@AEAA_NPEAUst_join_table@@PEAV?$List@VItem@@@@AEAVORDER_with_src@1@_N@Z
?optimize_distinct@JOIN@@AEAAXXZ
?sublist@?$List_iterator_fast@VItem@@@@QEAAXAEAV?$List@VItem@@@@I@Z
?read_first_record_seq@@YAHPEAUst_join_table@@@Z
??0?$List_iterator@VCached_item@@@@QEAA@AEAV?$List@VCached_item@@@@@Z
??E?$List_iterator@VCached_item@@@@QEAAPEAVCached_item@@H@Z
?warning_level_names@@3QBUst_mysql_lex_string@@B DATA
?reset@I_P_List_counter@@IEAAXXZ
?get_message_text@Sql_condition@@QEBAPEBDXZ
?get_message_octet_length@Sql_condition@@QEBAHXZ
??0Sql_condition@@AEAA@XZ
?init@Sql_condition@@AEAAXPEAUst_mem_root@@@Z
??0Sql_condition@@AEAA@PEAUst_mem_root@@@Z
?copy_opt_attributes@Sql_condition@@AEAAXPEBV1@@Z
?set@Sql_condition@@AEAAXIPEBDW4enum_warning_level@1@0@Z
?set_builtin_message_text@Sql_condition@@AEAAXPEBD@Z
?set_sqlstate@Sql_condition@@AEAAXPEBD@Z
?set_class_origins@Sql_condition@@AEAAXXZ
?clear@Sql_condition@@AEAAXXZ
??0?$I_P_List_fast_push_back@VSql_condition@@@@IEAA@PEAPEAVSql_condition@@@Z
?set_last@?$I_P_List_fast_push_back@VSql_condition@@@@IEAAXPEAPEAVSql_condition@@@Z
?get_last@?$I_P_List_fast_push_back@VSql_condition@@@@IEBAPEAPEAVSql_condition@@XZ
??0?$I_P_List@VSql_condition@@U?$I_P_List_adapter@VSql_condition@@$0BHA@$0BHI@@@VI_P_List_counter@@V?$I_P_List_fast_push_back@VSql_condition@@@@@@QEAA@XZ
?empty@?$I_P_List@VSql_condition@@U?$I_P_List_adapter@VSql_condition@@$0BHA@$0BHI@@@VI_P_List_counter@@V?$I_P_List_fast_push_back@VSql_condition@@@@@@QEAAXXZ
?push_back@?$I_P_List@VSql_condition@@U?$I_P_List_adapter@VSql_condition@@$0BHA@$0BHI@@@VI_P_List_counter@@V?$I_P_List_fast_push_back@VSql_condition@@@@@@QEAAXPEAVSql_condition@@@Z
?remove@?$I_P_List@VSql_condition@@U?$I_P_List_adapter@VSql_condition@@$0BHA@$0BHI@@@VI_P_List_counter@@V?$I_P_List_fast_push_back@VSql_condition@@@@@@QEAAXPEAVSql_condition@@@Z
?front@?$I_P_List@VSql_condition@@U?$I_P_List_adapter@VSql_condition@@$0BHA@$0BHI@@@VI_P_List_counter@@V?$I_P_List_fast_push_back@VSql_condition@@@@@@QEAAPEAVSql_condition@@XZ
??0?$List@VSql_condition@@@@QEAA@XZ
?push_back@?$List@VSql_condition@@@@QEAA_NPEAVSql_condition@@PEAUst_mem_root@@@Z
??1?$List@VSql_condition@@@@QEAA@XZ
??0Warning_info@@QEAA@_K_N@Z
??1Warning_info@@QEAA@XZ
?has_sql_condition@Warning_info@@AEBA_NPEBDK@Z
?clear@Warning_info@@AEAAX_K@Z
?append_warning_info@Warning_info@@AEAAXPEAVTHD@@PEBV1@@Z
?mark_sql_conditions_for_removal@Warning_info@@AEAAXXZ
?remove_marked_sql_conditions@Warning_info@@AEAAXXZ
?is_marked_for_removal@Warning_info@@AEBA_NPEBVSql_condition@@@Z
?mark_condition_for_removal@Warning_info@@AEAAXPEAVSql_condition@@@Z
?reserve_space@Warning_info@@AEAAXPEAVTHD@@I@Z
?push_warning@Warning_info@@AEAAPEAVSql_condition@@PEAVTHD@@IPEBDW4enum_warning_level@2@1@Z
?push_warning@Warning_info@@AEAAPEAVSql_condition@@PEAVTHD@@PEBV2@@Z
?is_read_only@Warning_info@@AEBA_NXZ
?get_error_condition@Warning_info@@AEBAPEBVSql_condition@@XZ
?set_error_condition@Warning_info@@AEAAXPEBVSql_condition@@@Z
?clear_error_condition@Warning_info@@AEAAXXZ
?err_conv@@YAIPEAD_KPEBD1PEBUcharset_info_st@@@Z
??0ErrConvString@@QEAA@N@Z
??0ErrConvString@@QEAA@PEBVmy_decimal@@@Z
??0ErrConvString@@QEAA@PEBUst_mysql_time@@I@Z
?set_is_sent@Diagnostics_area@@QEAAX_N@Z
?set_ok_status@Diagnostics_area@@QEAAX_K0PEBD@Z
?set_eof_status@Diagnostics_area@@QEAAXPEAVTHD@@@Z
?set_error_status@Diagnostics_area@@QEAAXI@Z
?set_error_status@Diagnostics_area@@QEAAXIPEBD0PEBVSql_condition@@@Z
?disable_status@Diagnostics_area@@QEAAXXZ
?reset_diagnostics_area@Diagnostics_area@@QEAAXXZ
?is_disabled@Diagnostics_area@@QEBA_NXZ
??0Diagnostics_area@@QEAA@XZ
??0Diagnostics_area@@QEAA@_K_N@Z
?is_warning_info_read_only@Diagnostics_area@@QEBA_NXZ
?copy_non_errors_from_wi@Diagnostics_area@@QEAAXPEAVTHD@@PEBVWarning_info@@@Z
??0?$I_P_List_fast_push_back@VWarning_info@@@@IEAA@PEAPEAVWarning_info@@@Z
??0?$I_P_List@VWarning_info@@U?$I_P_List_adapter@VWarning_info@@$0IA@$0II@@@VI_P_List_counter@@V?$I_P_List_fast_push_back@VWarning_info@@@@@@QEAA@XZ
?push_warning@@YAXPEAVTHD@@W4enum_warning_level@Sql_condition@@IPEBD@Z
?push_warning_printf@@YAXPEAVTHD@@W4enum_warning_level@Sql_condition@@IPEBDZZ
?mysqld_show_warnings@@YA_NPEAVTHD@@K@Z
?convert_error_message@@YAIPEADIPEBUcharset_info_st@@PEBDI1PEAI@Z
?is_sqlstate_valid@@YA_NPEBUst_mysql_lex_string@@@Z
??0?$I_P_List_iterator@VSql_condition@@V?$I_P_List@VSql_condition@@U?$I_P_List_adapter@VSql_condition@@$0BHA@$0BHI@@@VI_P_List_counter@@V?$I_P_List_fast_push_back@VSql_condition@@@@@@@@QEAA@AEBV?$I_P_List@VSql_condition@@U?$I_P_List_adapter@VSql_condition@@$0BHA@$0BHI@@@VI_P_List_counter@@V?$I_P_List_fast_push_back@VSql_condition@@@@@@@Z
??E?$I_P_List_iterator@VSql_condition@@V?$I_P_List@VSql_condition@@U?$I_P_List_adapter@VSql_condition@@$0BHA@$0BHI@@@VI_P_List_counter@@V?$I_P_List_fast_push_back@VSql_condition@@@@@@@@QEAAPEAVSql_condition@@H@Z
??0?$List_iterator_fast@VSql_condition@@@@QEAA@AEAV?$List@VSql_condition@@@@@Z
??E?$List_iterator_fast@VSql_condition@@@@QEAAPEAVSql_condition@@H@Z
?next_ptr@?$I_P_List_adapter@VSql_condition@@$0BHA@$0BHI@@@SAPEAPEAVSql_condition@@PEAV2@@Z
?prev_ptr@?$I_P_List_adapter@VSql_condition@@$0BHA@$0BHI@@@SAPEAPEAPEAVSql_condition@@PEAV2@@Z
?mysql_do@@YA_NPEAVTHD@@AEAV?$List@VItem@@@@@Z
?lex_token_array@@3PAUlex_token_string@@A DATA
?compute_digest_md5@@YAXPEBUsql_digest_storage@@PEAE@Z
?compute_digest_text@@YAXPEBUsql_digest_storage@@PEAVString@@@Z
?digest_reduce_token@@YAPEAUsql_digest_state@@PEAU1@II@Z
?read_token@@YAIPEBUsql_digest_storage@@IPEAI@Z
?store_token@@YAXPEAUsql_digest_storage@@I@Z
?read_identifier@@YAIPEBUsql_digest_storage@@IPEAPEADPEAH@Z
?store_token_identifier@@YAXPEAUsql_digest_storage@@I_KPEBD@Z
?digest_add_token@@YAPEAUsql_digest_state@@PEAU1@IPEATYYSTYPE@@@Z
?mysql_handle_derived@@YA_NPEAULEX@@P6A_NPEAVTHD@@0PEAUTABLE_LIST@@@Z@Z
?mysql_handle_single_derived@@YA_NPEAULEX@@PEAUTABLE_LIST@@P6A_NPEAVTHD@@01@Z@Z
?mysql_derived_prepare@@YA_NPEAVTHD@@PEAULEX@@PEAUTABLE_LIST@@@Z
?mysql_derived_optimize@@YA_NPEAVTHD@@PEAULEX@@PEAUTABLE_LIST@@@Z
?mysql_derived_create@@YA_NPEAVTHD@@PEAULEX@@PEAUTABLE_LIST@@@Z
?mysql_derived_materialize@@YA_NPEAVTHD@@PEAULEX@@PEAUTABLE_LIST@@@Z
?mysql_derived_cleanup@@YA_NPEAVTHD@@PEAULEX@@PEAUTABLE_LIST@@@Z
?mysql_prepare_delete@@YAHPEAVTHD@@PEAUTABLE_LIST@@PEAPEAVItem@@@Z
?mysql_delete@@YA_NPEAVTHD@@PEAUTABLE_LIST@@PEAVItem@@PEAV?$SQL_I_List@Ust_order@@@@_K4@Z
?unique_add@Unique@@QEAA_NPEAX@Z
??0multi_delete@@QEAA@PEAUTABLE_LIST@@I@Z
??1multi_delete@@UEAA@XZ
?prepare@multi_delete@@UEAAHAEAV?$List@VItem@@@@PEAVst_select_lex_unit@@@Z
?send_data@multi_delete@@UEAA_NAEAV?$List@VItem@@@@@Z
?initialize_tables@multi_delete@@UEAA_NPEAVJOIN@@@Z
?send_error@multi_delete@@UEAAXIPEBD@Z
?do_deletes@multi_delete@@QEAAHXZ
?do_table_deletes@multi_delete@@QEAAHPEAUTABLE@@_N@Z
?send_eof@multi_delete@@UEAA_NXZ
?abort_result_set@multi_delete@@UEAAXXZ
refpos_order_cmp
?mysql_multi_delete_prepare@@YAHPEAVTHD@@PEAI@Z
?del_exts@@3PAPEBDA DATA
?mysql_create_db@@YAHPEAVTHD@@PEADPEAUst_ha_create_information@@_N@Z
?mysql_alter_db@@YA_NPEAVTHD@@PEBDPEAUst_ha_create_information@@@Z
?mysql_rm_db@@YA_NPEAVTHD@@PEAD_N2@Z
?mysql_upgrade_db@@YA_NPEAVTHD@@PEAUst_mysql_lex_string@@@Z
?mysql_change_db@@YA_NPEAVTHD@@PEBUst_mysql_lex_string@@_N@Z
?mysql_opt_change_db@@YA_NPEAVTHD@@PEBUst_mysql_lex_string@@PEAU2@_NPEA_N@Z
?my_dboptions_cache_init@@YA_NXZ
?my_dboptions_cache_free@@YAXXZ
?check_db_dir_existence@@YA_NPEBD@Z
?load_db_opt@@YA_NPEAVTHD@@PEBDPEAUst_ha_create_information@@@Z
?load_db_opt_by_name@@YA_NPEAVTHD@@PEBDPEAUst_ha_create_information@@@Z
?get_default_db_collation@@YAPEBUcharset_info_st@@PEAVTHD@@PEBD@Z
?my_dbopt_cleanup@@YAXXZ
?mysql_rm_arc_files@@YAJPEAVTHD@@PEAUst_my_dir@@PEBD@Z
dboptions_get_key
free_dbopt
?get_function_default_columns@COPY_INFO@@IEAA_NPEAUTABLE@@@Z
?set_function_defaults@COPY_INFO@@UEAAXPEAUTABLE@@@Z
?ignore_last_columns@COPY_INFO@@QEAA_NPEAUTABLE@@I@Z
??_9Item@@$BCKA@AA
??0Send_field@@QEAA@XZ
??1Send_field@@QEAA@XZ
?begin_dataset@select_result@@QEAAXXZ
??0Server_side_cursor@@QEAA@PEAUst_mem_root@@PEAVselect_result@@@Z
??1Server_side_cursor@@UEAA@XZ
??3Server_side_cursor@@SAXPEAX_K@Z
?mysql_open_cursor@@YA_NPEAVTHD@@PEAVselect_result@@PEAPEAVServer_side_cursor@@@Z
??0Materialized_cursor@@QEAA@PEAVselect_result@@PEAUTABLE@@@Z
?send_result_set_metadata@Materialized_cursor@@QEAAHPEAVTHD@@AEAV?$List@VItem@@@@@Z
?is_open@Materialized_cursor@@UEBA_NXZ
?open@Materialized_cursor@@UEAAHPEAVJOIN@@@Z
?fetch@Materialized_cursor@@UEAAXK@Z
?close@Materialized_cursor@@UEAAXXZ
??1Materialized_cursor@@UEAA@XZ
??0Select_materialize@@QEAA@PEAVselect_result@@@Z
?send_result_set_metadata@Select_materialize@@UEAA_NAEAV?$List@VItem@@@@I@Z
??1Select_materialize@@UEAA@XZ
?init@SQL_CRYPT@@QEAAXPEAK@Z
?encode@SQL_CRYPT@@QEAAXPEADI@Z
?decode@SQL_CRYPT@@QEAAXPEADI@Z
?set_active_vio@THD@@QEAAXPEAUst_vio@@@Z
?init_max_user_conn@@YAXXZ
?free_max_user_conn@@YAXXZ
handle_one_connection
?do_handle_one_connection@@YAXPEAVTHD@@@Z
?init_new_connection_handler_thread@@YA_NXZ
?reset_mqh@@YAXPEAUst_lex_user@@_N@Z
?check_mqh@@YA_NPEAVTHD@@I@Z
?decrease_user_connections@@YAXPEAUuser_conn@@@Z
?release_user_connection@@YAXPEAVTHD@@@Z
?thd_init_client_charset@@YA_NPEAVTHD@@I@Z
?setup_connection_thread_globals@@YA_NPEAVTHD@@@Z
?thd_prepare_connection@@YA_NPEAVTHD@@@Z
?thd_is_connection_alive@@YA_NPEAVTHD@@@Z
?login_connection@@YA_NPEAVTHD@@@Z
?prepare_new_connection_state@@YAXPEAVTHD@@@Z
?end_connection@@YAXPEAVTHD@@@Z
?get_or_create_user_conn@@YAHPEAVTHD@@PEBD1PEBUuser_resources@@@Z
?check_for_max_user_connections@@YAHPEAVTHD@@PEBUuser_conn@@@Z
get_key_conn
free_user
?DEFAULT_WHERE@THD@@2QEBDEB DATA
?LOCK_xid_cache@@3Ust_mysql_mutex@@A DATA
?xid_cache@@3Ust_hash@@A DATA
?internal_table_name@@3PADA DATA
?empty_c_string@@3PADA DATA
?EMPTY_STR@@3Ust_mysql_lex_string@@A DATA
?NULL_STR@@3Ust_mysql_lex_string@@A DATA
thd_increment_bytes_sent
thd_increment_bytes_received
thd_alloc
thd_calloc
thd_strdup
thd_strmake
thd_memdup
thd_make_lex_string
thd_wait_begin
thd_wait_end
thd_in_lock_tables
thd_tablespace_op
thd_test_options
thd_sql_command
thd_ha_data
thd_storage_lock_wait
thd_tx_isolation
thd_tx_is_read_only
thd_security_context
thd_inc_row_count
thd_allow_batch
mysql_tmpfile
thd_killed
thd_binlog_pos
thd_get_thread_id
thd_get_xid
thd_get_ha_data
thd_set_ha_data
??0Simple_cstring@@QEAA@Ust_mysql_lex_string@@@Z
?length@Simple_cstring@@QEBA_KXZ
?my_decimal_cmp@@YAHPEBVmy_decimal@@0@Z
?copy_shallow@Discrete_intervals_list@@AEAAXPEBV1@@Z
??0Discrete_intervals_list@@AEAA@AEBV0@@Z
?swap@Discrete_intervals_list@@QEAAXPEAV1@@Z
?nb_elements@Discrete_intervals_list@@QEBAIXZ
??1MDL_context_owner@@UEAA@XZ
??0MDL_context_owner@@QEAA@XZ
?init@MDL_context@@QEAAXPEAVMDL_context_owner@@@Z
??1MDL_context@@QEAA@XZ
??0xid_t@@QEAA@XZ
?key@xid_t@@QEAAPEAEXZ
?key_length@xid_t@@QEAAIXZ
?needs_reopen@TABLE@@QEAA_NXZ
?set_thd@PROFILING@@QEAAXPEAVTHD@@@Z
?thd_get_scheduler_data@@YAPEAXPEAVTHD@@@Z
?thd_set_scheduler_data@@YAXPEAVTHD@@PEAX@Z
?thd_get_psi@@YAPEAUPSI_thread@@PEAVTHD@@@Z
?thd_set_psi@@YAXPEAVTHD@@PEAUPSI_thread@@@Z
??0Protocol@@QEAA@XZ
??0Protocol_text@@QEAA@XZ
?type@Protocol_text@@UEAA?AW4enum_protocol_type@Protocol@@XZ
??1Protocol_text@@UEAA@XZ
??0Protocol_binary@@QEAA@XZ
??0Opt_trace_context@@QEAA@XZ
set_thd_proc_info
set_thd_stage_info
thd_query_string
thd_query
??8Key_part_spec@@QEBA_NAEBV0@@Z
?clone@Key_part_spec@@QEBAPEAV1@PEAUst_mem_root@@@Z
??0?$List@VKey_part_spec@@@@QEAA@AEBV0@PEAUst_mem_root@@@Z
??0Key@@QEAA@AEBV0@PEAUst_mem_root@@@Z
?foreign_key_prefix@@YA_NPEAVKey@@0@Z
??0Foreign_key@@QEAA@AEBV0@PEAUst_mem_root@@@Z
?clone@Foreign_key@@UEBAPEAVKey@@PEAUst_mem_root@@@Z
??1Foreign_key@@UEAA@XZ
??0Query_cache_tls@@QEAA@XZ
??0Name_string@@QEAA@Ust_mysql_lex_string@@@Z
??0Item_var_func@@QEAA@PEAVItem@@@Z
??0Item_func_set_user_var@@QEAA@VName_string@@PEAVItem@@_N@Z
?register_value@Item_maxmin_subselect@@QEAAXXZ
?requires_prelocking@Query_tables_list@@QEAA_NXZ
?type@Query_arena@@UEBA?AW4Type@1@XZ
?set_query_arena@Query_arena@@QEAAXPEAV1@@Z
?free_items@Query_arena@@QEAAXXZ
?cleanup_stmt@Query_arena@@UEAAXXZ
??0Statement@@QEAA@PEAULEX@@PEAUst_mem_root@@W4enum_state@Query_arena@@K@Z
??1Statement@@UEAA@XZ
?set_statement@Statement@@UEAAXPEAV1@@Z
?set_n_backup_statement@Statement@@QEAAXPEAV1@0@Z
?restore_backup_statement@Statement@@QEAAXPEAV1@0@Z
?type@Statement@@UEBA?AW4Type@Query_arena@@XZ
??0Statement_map@@QEAA@XZ
?insert@Statement_map@@QEAAHPEAVTHD@@PEAVStatement@@@Z
?close_transient_cursors@Statement_map@@QEAAXXZ
?erase@Statement_map@@QEAAXPEAVStatement@@@Z
?reset@Statement_map@@QEAAXXZ
??1Statement_map@@QEAA@XZ
?reset@Ha_trx_info@@QEAAXXZ
??0Ha_trx_info@@QEAA@XZ
??0st_xid_state@@QEAA@XZ
?xid_cache_init@@YA_NXZ
?xid_cache_free@@YAXXZ
?xid_cache_search@@YAPEAUst_xid_state@@PEAUxid_t@@@Z
?xid_cache_insert@@YA_NPEAUxid_t@@W4xa_states@@@Z
?xid_cache_insert@@YA_NPEAUst_xid_state@@@Z
?xid_cache_delete@@YAXPEAUst_xid_state@@@Z
?init@Security_context@@QEAAXXZ
?destroy@Security_context@@QEAAXXZ
?skip_grants@Security_context@@QEAAXXZ
?set_user@Security_context@@QEAA_NPEAD@Z
?get_host@Security_context@@QEAAPEAVString@@XZ
?get_ip@Security_context@@QEAAPEAVString@@XZ
?get_external_user@Security_context@@QEAAPEAVString@@XZ
?set_host@Security_context@@QEAAXPEBD@Z
?set_ip@Security_context@@QEAAXPEBD@Z
?set_external_user@Security_context@@QEAAXPEBD@Z
?set_host@Security_context@@QEAAXPEBD_K@Z
?change_security_context@Security_context@@QEAA_NPEAVTHD@@PEAUst_mysql_lex_string@@11PEAPEAV1@@Z
?restore_security_context@Security_context@@QEAAXPEAVTHD@@PEAV1@@Z
?user_matches@Security_context@@QEAA_NPEAV1@@Z
?new_window@Log_throttle@@IEAAX_K@Z
?inc_log_count@Log_throttle@@IEAA_NK@Z
?in_window@Log_throttle@@IEBA_N_K@Z
?prepare_summary@Log_throttle@@IEAAKK@Z
?new_window@Slow_log_throttle@@AEAAX_K@Z
?print_summary@Slow_log_throttle@@AEAAXPEAVTHD@@K_K1@Z
??0Slow_log_throttle@@QEAA@PEAKPEAUst_mysql_mutex@@KP6A_NPEAVTHD@@PEBDI@Z3@Z
?flush@Slow_log_throttle@@QEAA_NPEAVTHD@@@Z
?log@Slow_log_throttle@@QEAA_NPEAVTHD@@_N@Z
?print_summary@Error_log_throttle@@AEAAXK@Z
?flush@Error_log_throttle@@QEAA_NPEAVTHD@@@Z
?log@Error_log_throttle@@QEAA_NPEAVTHD@@@Z
??0Item_change_record@@QEAA@XZ
??1Item_change_record@@UEAA@XZ
?at@?$Dynamic_array@PEAVReprepare_observer@@@@QEAAAEAPEAVReprepare_observer@@H@Z
?elements@?$Dynamic_array@PEAVReprepare_observer@@@@QEAAXI@Z
?clear@?$Dynamic_array@PEAVReprepare_observer@@@@QEAAXXZ
?reset_reprepare_observers@Open_tables_state@@QEAAXXZ
?set_open_tables_state@Open_tables_state@@QEAAXPEAV1@@Z
?reset_open_tables_state@Open_tables_state@@QEAAXXZ
?handle_condition@Drop_table_error_handler@@UEAA_NPEAVTHD@@IPEBDW4enum_warning_level@Sql_condition@@1PEAPEAV4@@Z
??0Locked_tables_list@@QEAA@XZ
??1Locked_tables_list@@QEAA@XZ
??0Ha_data@@QEAA@XZ
??0Global_read_lock@@QEAA@XZ
?enter_stage@THD@@QEAAXPEBUPSI_stage_info_v1@@PEAU2@PEBD2I@Z
?set_next_event_pos@THD@@QEAAXPEBD_K@Z
?clear_next_event_pos@THD@@QEAAXXZ
?reset_binlog_local_stmt_filter@THD@@QEAAXXZ
?is_active@st_transactions@THD@@QEAADXZ
??0st_transactions@THD@@QEAA@XZ
?push_front@?$base_ilist@UItem_change_record@@@@QEAAXPEAUItem_change_record@@@Z
?set_user_connect@THD@@QEAAXPEAUuser_conn@@@Z
?increment_user_connections_counter@THD@@QEAAXXZ
?decrement_user_connections_counter@THD@@QEAAXXZ
?increment_con_per_hour_counter@THD@@QEAAXXZ
?increment_updates_counter@THD@@QEAAXXZ
?increment_questions_counter@THD@@QEAAXXZ
?time_out_user_resource_limits@THD@@QEAAXXZ
?set_sent_row_count@THD@@QEAAX_K@Z
?set_examined_row_count@THD@@QEAAX_K@Z
?inc_sent_row_count@THD@@QEAAX_K@Z
?inc_examined_row_count@THD@@QEAAX_K@Z
?inc_status_created_tmp_disk_tables@THD@@QEAAXXZ
?inc_status_created_tmp_tables@THD@@QEAAXXZ
?inc_status_select_full_join@THD@@QEAAXXZ
?inc_status_select_full_range_join@THD@@QEAAXXZ
?inc_status_select_range@THD@@QEAAXXZ
?inc_status_select_range_check@THD@@QEAAXXZ
?inc_status_select_scan@THD@@QEAAXXZ
?inc_status_sort_merge_passes@THD@@QEAAXXZ
?inc_status_sort_range@THD@@QEAAXXZ
?inc_status_sort_rows@THD@@QEAAX_K@Z
?inc_status_sort_scan@THD@@QEAAXXZ
?set_status_no_index_used@THD@@QEAAXXZ
?set_status_no_good_index_used@THD@@QEAAXXZ
?get_trans_pos@THD@@QEBAXPEAPEBDPEA_K@Z
??0THD@@QEAA@_N@Z
??1THD@@UEAA@XZ
?release_resources@THD@@QEAAXXZ
?cleanup@THD@@AEAAXXZ
?init@THD@@QEAAXXZ
?init_for_queries@THD@@QEAAXPEAVRelay_log_info@@@Z
?change_user@THD@@QEAAXXZ
?cleanup_after_query@THD@@QEAAXXZ
?store_globals@THD@@QEAA_NXZ
?restore_globals@THD@@QEAA_NXZ
?shutdown_active_vio@THD@@QEAAXXZ
?awake@THD@@QEAAXW4killed_state@1@@Z
?disconnect@THD@@QEAAXXZ
?enter_cond@THD@@UEAAXPEAUst_mysql_cond@@PEAUst_mysql_mutex@@PEBUPSI_stage_info_v1@@PEAU4@PEBD4H@Z
?exit_cond@THD@@UEAAXPEBUPSI_stage_info_v1@@PEBD1H@Z
?is_killed@THD@@UEAAHXZ
?get_thd@THD@@UEAAPEAV1@XZ
?notify_shared_lock@THD@@UEAA_NPEAVMDL_context_owner@@_N@Z
?query_start_timeval_trunc@THD@@QEAA?AUtimeval@@I@Z
?trans_alloc@THD@@QEAAPEAXI@Z
?make_lex_string@THD@@QEAAPEAUst_mysql_lex_string@@PEAU2@PEBDI_N@Z
?convert_string@THD@@QEAA_NPEAUst_mysql_lex_string@@PEBUcharset_info_st@@PEBDI1@Z
?convert_string@THD@@QEAA_NPEAVString@@PEBUcharset_info_st@@1@Z
?add_changed_table@THD@@QEAAXPEAUTABLE@@@Z
?add_changed_table@THD@@QEAAXPEBDJ@Z
?changed_table_dup@THD@@QEAAPEAUst_changed_table_list@@PEBDJ@Z
?send_explain_fields@THD@@QEAAHPEAVselect_result@@@Z
?update_charset@THD@@QEAAXXZ
?change_item_tree_place@THD@@QEAAXPEAPEAVItem@@0@Z
?nocheck_register_item_tree_change@THD@@QEAAXPEAPEAVItem@@PEAV2@PEAUst_mem_root@@@Z
?rollback_item_tree_changes@THD@@QEAAXXZ
?end_statement@THD@@QEAAXXZ
?really_abort_on_warning@THD@@QEAA_NXZ
?set_status_var_init@THD@@QEAAXXZ
?reset_n_backup_open_tables_state@THD@@QEAAXPEAVOpen_tables_backup@@@Z
?restore_backup_open_tables_state@THD@@QEAAXPEAVOpen_tables_backup@@@Z
?reset_sub_statement_state@THD@@QEAAXPEAVSub_statement_state@@I@Z
?restore_sub_statement_state@THD@@QEAAXPEAVSub_statement_state@@@Z
?set_n_backup_active_arena@THD@@QEAAXPEAVQuery_arena@@0@Z
?restore_active_arena@THD@@QEAAXPEAVQuery_arena@@0@Z
?push_internal_handler@THD@@QEAAXPEAVInternal_error_handler@@@Z
?handle_condition@THD@@AEAA_NIPEBDW4enum_warning_level@Sql_condition@@0PEAPEAV3@@Z
?pop_internal_handler@THD@@QEAAPEAVInternal_error_handler@@XZ
?raise_error@THD@@QEAAXI@Z
?raise_error_printf@THD@@QEAAXIZZ
?raise_warning@THD@@QEAAXI@Z
?raise_warning_printf@THD@@QEAAXIZZ
?raise_note@THD@@QEAAXI@Z
?raise_note_printf@THD@@QEAAXIZZ
?raise_condition@THD@@AEAAPEAVSql_condition@@IPEBDW4enum_warning_level@2@0@Z
?set_statement@THD@@UEAAXPEAVStatement@@@Z
?set_command@THD@@QEAAXW4enum_server_command@@@Z
?set_query@THD@@QEAAXAEBVCSET_STRING@@@Z
?set_query_and_id@THD@@QEAAXPEADIPEBUcharset_info_st@@_J@Z
?set_query_id@THD@@QEAAX_J@Z
?set_mysys_var@THD@@QEAAXPEAUst_my_thread_var@@@Z
?leave_locked_tables_mode@THD@@QEAAXXZ
?get_definer@THD@@QEAAXPEAUst_lex_user@@@Z
?mark_transaction_to_rollback@THD@@QEAAX_N@Z
?make_lex_string_root@@YAPEAUst_mysql_lex_string@@PEAUst_mem_root@@PEAU1@PEBDI_N@Z
??0sql_exchange@@QEAA@PEAD_NW4enum_filetype@@@Z
?escaped_given@sql_exchange@@QEAA_NXZ
??0select_result@@QEAA@XZ
?send_error@select_result@@UEAAXIPEBD@Z
?check_simple_select@select_result@@UEBA_NXZ
?cleanup@select_result@@UEAAXXZ
?send_result_set_metadata@select_send@@UEAA_NAEAV?$List@VItem@@@@I@Z
?send_data@select_send@@UEAA_NAEAV?$List@VItem@@@@@Z
?send_eof@select_send@@UEAA_NXZ
?abort_result_set@select_send@@UEAAXXZ
?cleanup@select_send@@UEAAXXZ
??1select_to_file@@UEAA@XZ
?send_error@select_to_file@@UEAAXIPEBD@Z
?send_eof@select_to_file@@UEAA_NXZ
?cleanup@select_to_file@@UEAAXXZ
??1select_export@@UEAA@XZ
?prepare@select_export@@UEAAHAEAV?$List@VItem@@@@PEAVst_select_lex_unit@@@Z
?send_data@select_export@@UEAA_NAEAV?$List@VItem@@@@@Z
?prepare@select_dump@@UEAAHAEAV?$List@VItem@@@@PEAVst_select_lex_unit@@@Z
?send_data@select_dump@@UEAA_NAEAV?$List@VItem@@@@@Z
?init@TMP_TABLE_PARAM@@QEAAXXZ
??0select_subselect@@QEAA@PEAVItem_subselect@@@Z
?send_eof@select_subselect@@UEAA_NXZ
??1select_subselect@@UEAA@XZ
?send_data@select_singlerow_subselect@@UEAA_NAEAV?$List@VItem@@@@@Z
?cleanup@select_max_min_finder_subselect@@UEAAXXZ
?send_data@select_max_min_finder_subselect@@UEAA_NAEAV?$List@VItem@@@@@Z
?cmp_real@select_max_min_finder_subselect@@AEAA_NXZ
?cmp_int@select_max_min_finder_subselect@@AEAA_NXZ
?cmp_decimal@select_max_min_finder_subselect@@AEAA_NXZ
?cmp_str@select_max_min_finder_subselect@@AEAA_NXZ
?send_data@select_exists_subselect@@UEAA_NAEAV?$List@VItem@@@@@Z
?internal_buffer_ptr@user_var_entry@@AEBAPEADXZ
?alloced@user_var_entry@@AEAA_NXZ
?free_value@user_var_entry@@AEAAXXZ
?destroy@user_var_entry@@QEAAXXZ
?prepare@select_dumpvar@@UEAAHAEAV?$List@VItem@@@@PEAVst_select_lex_unit@@@Z
?send_data@select_dumpvar@@UEAA_NAEAV?$List@VItem@@@@@Z
?send_eof@select_dumpvar@@UEAA_NXZ
?check_simple_select@select_dumpvar@@UEBA_NXZ
?cleanup@select_dumpvar@@UEAAXXZ
?add_to_status@@YAXPEAUsystem_status_var@@0@Z
?add_diff_to_status@@YAXPEAUsystem_status_var@@00@Z
?cleanup_after_query@Relay_log_info@@QEAAXXZ
?cleanup_after_session@Relay_log_info@@QEAAXXZ
?set_variable@sp_rcontext@@QEAA_NPEAVTHD@@IPEAPEAVItem@@@Z
get_var_key
free_user_var
??$list_copy_and_replace_each_value@VKey_part_spec@@@@YAXAEAV?$List@VKey_part_spec@@@@PEAUst_mem_root@@@Z
?replace@?$List_iterator@VKey_part_spec@@@@QEAAPEAVKey_part_spec@@PEAV2@@Z
?thd_get_net_wait_timeout@@YAKPEAVTHD@@@Z
?thd_set_killed@@YAXPEAVTHD@@@Z
?thd_clear_errors@@YAXPEAVTHD@@@Z
?thd_set_thread_stack@@YAXPEAVTHD@@PEAD@Z
?thd_lock_thread_count@@YAXPEAVTHD@@@Z
?thd_unlock_thread_count@@YAXPEAVTHD@@@Z
?thd_close_connection@@YAXPEAVTHD@@@Z
?thd_get_current_thd@@YAPEAVTHD@@XZ
?thd_get_global_thread_list_begin@@YA?AV?$_Tree_const_iterator@V?$_Tree_val@U?$_Tree_simple_types@PEAVTHD@@@std@@@std@@@std@@XZ
?thd_get_global_thread_list_end@@YA?AV?$_Tree_const_iterator@V?$_Tree_val@U?$_Tree_simple_types@PEAVTHD@@@std@@@std@@@std@@XZ
?thd_new_connection_setup@@YAXPEAVTHD@@PEAD@Z
?thd_lock_data@@YAXPEAVTHD@@@Z
?thd_unlock_data@@YAXPEAVTHD@@@Z
?thd_is_transaction_active@@YA_NPEAVTHD@@@Z
?thd_connection_has_data@@YAHPEAVTHD@@@Z
?thd_set_net_read_write@@YAXPEAVTHD@@I@Z
?thd_get_net_read_write@@YAIPEAVTHD@@@Z
?thd_set_mysys_var@@YAXPEAVTHD@@PEAUst_my_thread_var@@@Z
?thd_get_fd@@YA_KPEAVTHD@@@Z
?thd_store_globals@@YAHPEAVTHD@@@Z
?get_connection_attrib@@YAPEAUthread_attr@@XZ
?get_max_connections@@YAKXZ
thd_enter_cond
thd_exit_cond
_current_thd_noinline
??0?$base_ilist_iterator@UItem_change_record@@@@QEAA@AEAV?$base_ilist@UItem_change_record@@@@@Z
?next@?$base_ilist_iterator@UItem_change_record@@@@QEAAPEAUItem_change_record@@XZ
??0?$I_List_iterator@UItem_change_record@@@@QEAA@AEAV?$I_List@UItem_change_record@@@@@Z
??E?$I_List_iterator@UItem_change_record@@@@QEAAPEAUItem_change_record@@H@Z
??0?$List_iterator_fast@Vmy_var@@@@QEAA@AEAV?$List@Vmy_var@@@@@Z
??E?$List_iterator_fast@Vmy_var@@@@QEAAPEAVmy_var@@H@Z
?thd_get_trx_isolation@@YA?AW4enum_tx_isolation@@PEBVTHD@@@Z
thd_charset
thd_slave_thread
thd_non_transactional_update
thd_binlog_format
thd_mark_transaction_to_rollback
thd_binlog_filter_ok
thd_sqlcom_can_generate_row_events
thd_get_durability_property
thd_get_autoinc
thd_is_strict_mode
xid_get_hash_key
xid_free_hash
?block@Query_cache_block_table@@QEAAPEAUQuery_cache_block@@XZ
?is_free@Query_cache_block@@QEAADXZ
?init@Query_cache_block@@QEAAXK@Z
?destroy@Query_cache_block@@QEAAXXZ
?headers_len@Query_cache_block@@QEAAIXZ
?data@Query_cache_block@@QEAAPEAEXZ
?query@Query_cache_block@@QEAAPEAUQuery_cache_query@@XZ
?table@Query_cache_block@@QEAAPEAUQuery_cache_table@@XZ
?result@Query_cache_block@@QEAAPEAUQuery_cache_result@@XZ
?table@Query_cache_block@@QEAAPEAUQuery_cache_block_table@@I@Z
?init_n_lock@Query_cache_query@@QEAAXXZ
?unlock_n_destroy@Query_cache_query@@QEAAXXZ
?found_rows@Query_cache_query@@QEAA_KXZ
?found_rows@Query_cache_query@@QEAAX_K@Z
?result@Query_cache_query@@QEAAPEAUQuery_cache_block@@XZ
?result@Query_cache_query@@QEAAXPEAUQuery_cache_block@@@Z
?writer@Query_cache_query@@QEAAPEAUQuery_cache_tls@@XZ
?writer@Query_cache_query@@QEAAXPEAUQuery_cache_tls@@@Z
?tables_type@Query_cache_query@@QEAAEXZ
?tables_type@Query_cache_query@@QEAAXE@Z
?length@Query_cache_query@@QEAAKXZ
?add@Query_cache_query@@QEAAKK@Z
?query@Query_cache_query@@QEAAPEAEXZ
?lock_writing@Query_cache_query@@QEAAXXZ
?lock_reading@Query_cache_query@@QEAAXXZ
?try_lock_writing@Query_cache_query@@QEAADXZ
?unlock_writing@Query_cache_query@@QEAAXXZ
?unlock_reading@Query_cache_query@@QEAAXXZ
?db@Query_cache_table@@QEAAPEADXZ
?table@Query_cache_table@@QEAAPEADXZ
?table@Query_cache_table@@QEAAXPEAD@Z
?key_length@Query_cache_table@@QEAAIXZ
?key_length@Query_cache_table@@QEAAXI@Z
?type@Query_cache_table@@QEAAXE@Z
?callback@Query_cache_table@@QEAAP6ADPEAVTHD@@PEADIPEA_K@ZXZ
?callback@Query_cache_table@@QEAAXP6ADPEAVTHD@@PEADIPEA_K@Z@Z
?engine_data@Query_cache_table@@QEAA_KXZ
?engine_data@Query_cache_table@@QEAAX_K@Z
?data@Query_cache_table@@QEAAPEAEXZ
?data@Query_cache_result@@QEAAPEAEXZ
?parent@Query_cache_result@@QEAAPEAUQuery_cache_block@@XZ
?parent@Query_cache_result@@QEAAXPEAUQuery_cache_block@@@Z
query_cache_query_get_key
query_cache_table_get_key
query_cache_invalidate_by_MyISAM_filename
?init@Query_cache_memory_bin@@QEAAXK@Z
?init@Query_cache_memory_bin_step@@QEAAXKIK@Z
?free_query_internal@Query_cache@@AEAAXPEAUQuery_cache_block@@@Z
?invalidate_table_internal@Query_cache@@AEAAXPEAVTHD@@PEAEI@Z
?disable_query_cache@Query_cache@@AEAAXXZ
?double_linked_list_exclude@Query_cache@@KAXPEAUQuery_cache_block@@PEAPEAU2@@Z
?double_linked_list_simple_include@Query_cache@@KAXPEAUQuery_cache_block@@PEAPEAU2@@Z
?double_linked_list_join@Query_cache@@KAXPEAUQuery_cache_block@@0@Z
?filename_2_table_key@Query_cache@@KAIPEADPEBDPEAI@Z
?flush_cache@Query_cache@@IEAAXXZ
?free_old_query@Query_cache@@IEAADXZ
?free_query@Query_cache@@IEAAXPEAUQuery_cache_block@@@Z
?allocate_data_chain@Query_cache@@IEAADPEAPEAUQuery_cache_block@@KPEAU2@D@Z
?invalidate_table@Query_cache@@IEAAXPEAVTHD@@PEAUTABLE_LIST@@@Z
?invalidate_table@Query_cache@@IEAAXPEAVTHD@@PEAUTABLE@@@Z
?invalidate_table@Query_cache@@IEAAXPEAVTHD@@PEAEI@Z
?invalidate_query_block_list@Query_cache@@IEAAXPEAVTHD@@PEAUQuery_cache_block_table@@@Z
?register_tables_from_list@Query_cache@@IEAAIPEAUTABLE_LIST@@IPEAUQuery_cache_block_table@@@Z
?register_all_tables@Query_cache@@IEAADPEAUQuery_cache_block@@PEAUTABLE_LIST@@I@Z
?insert_table@Query_cache@@IEAADIPEBDPEAUQuery_cache_block_table@@IEP6ADPEAVTHD@@PEADIPEA_K@Z_K@Z
?unlink_table@Query_cache@@IEAAXPEAUQuery_cache_block_table@@@Z
?get_free_block@Query_cache@@IEAAPEAUQuery_cache_block@@KDK@Z
?free_memory_block@Query_cache@@IEAAXPEAUQuery_cache_block@@@Z
?split_block@Query_cache@@IEAAXPEAUQuery_cache_block@@K@Z
?join_free_blocks@Query_cache@@IEAAPEAUQuery_cache_block@@PEAU2@0@Z
?append_next_free_block@Query_cache@@IEAADPEAUQuery_cache_block@@K@Z
?exclude_from_free_memory_list@Query_cache@@IEAAXPEAUQuery_cache_block@@@Z
?insert_into_free_memory_list@Query_cache@@IEAAXPEAUQuery_cache_block@@@Z
?move_by_type@Query_cache@@IEAADPEAPEAEPEAPEAUQuery_cache_block@@PEAKPEAU2@@Z
?find_bin@Query_cache@@IEAAIK@Z
?move_to_query_list_end@Query_cache@@IEAAXPEAUQuery_cache_block@@@Z
?insert_into_free_memory_sorted_list@Query_cache@@IEAAXPEAUQuery_cache_block@@PEAPEAU2@@Z
?pack_cache@Query_cache@@IEAAXXZ
?relink@Query_cache@@IEAAXPEAUQuery_cache_block@@00000@Z
?join_results@Query_cache@@IEAADK@Z
?init_cache@Query_cache@@IEAAKXZ
?make_disabled@Query_cache@@IEAAXXZ
?free_cache@Query_cache@@IEAAXXZ
?write_block_data@Query_cache@@IEAAPEAUQuery_cache_block@@KPEAEKW4block_type@2@I@Z
?append_result_data@Query_cache@@IEAADPEAPEAUQuery_cache_block@@KPEAEPEAU2@@Z
?write_result_data@Query_cache@@IEAADPEAPEAUQuery_cache_block@@KPEAEPEAU2@W4block_type@2@@Z
?get_min_first_result_data_size@Query_cache@@IEAAKXZ
?get_min_append_result_data_size@Query_cache@@IEAAKXZ
?allocate_block@Query_cache@@IEAAPEAUQuery_cache_block@@KDK@Z
?is_cacheable@Query_cache@@IEAAIPEAVTHD@@_KPEBDPEAULEX@@PEAUTABLE_LIST@@PEAE@Z
?process_and_count_tables@Query_cache@@IEAAIPEAVTHD@@PEAUTABLE_LIST@@PEAE@Z
?ask_handler_allowance@Query_cache@@KADPEAVTHD@@PEAUTABLE_LIST@@@Z
??0Query_cache@@QEAA@KKKII@Z
?init@Query_cache@@QEAAXXZ
?resize@Query_cache@@QEAAKK@Z
?set_min_res_unit@Query_cache@@QEAAKK@Z
?store_query@Query_cache@@QEAAXPEAVTHD@@PEAUTABLE_LIST@@@Z
?send_result_to_client@Query_cache@@QEAAHPEAVTHD@@PEADI@Z
?invalidate@Query_cache@@QEAAXPEAVTHD@@PEAUTABLE_LIST@@D@Z
?invalidate@Query_cache@@QEAAXPEAUst_changed_table_list@@@Z
?invalidate_locked_for_write@Query_cache@@QEAAXPEAUTABLE_LIST@@@Z
?invalidate@Query_cache@@QEAAXPEAVTHD@@PEAUTABLE@@D@Z
?invalidate@Query_cache@@QEAAXPEAVTHD@@PEBDID@Z
?invalidate@Query_cache@@QEAAXPEAD@Z
?invalidate_by_MyISAM_filename@Query_cache@@QEAAXPEBD@Z
?flush@Query_cache@@QEAAXXZ
?pack@Query_cache@@QEAAXKI@Z
?destroy@Query_cache@@QEAAXXZ
?insert@Query_cache@@QEAAXPEAUQuery_cache_tls@@PEBDKI@Z
?end_of_result@Query_cache@@QEAAXPEAVTHD@@@Z
?abort@Query_cache@@QEAAXPEAUQuery_cache_tls@@@Z
?wreck@Query_cache@@QEAAXIPEBD@Z
?bins_dump@Query_cache@@QEAAXXZ
?cache_dump@Query_cache@@QEAAXXZ
?queries_dump@Query_cache@@QEAAXXZ
?tables_dump@Query_cache@@QEAAXXZ
?check_integrity@Query_cache@@QEAAD_N@Z
?in_list@Query_cache@@QEAADPEAUQuery_cache_block@@0PEBD@Z
?in_table_list@Query_cache@@QEAADPEAUQuery_cache_block_table@@0PEBD@Z
?in_blocks@Query_cache@@QEAADPEAUQuery_cache_block@@@Z
?try_lock@Query_cache@@QEAA_N_N@Z
?lock@Query_cache@@QEAAXXZ
?lock_and_suspend@Query_cache@@QEAAXXZ
?unlock@Query_cache@@QEAAXXZ
mysql_query_cache_invalidate4
?get_table_ref_type@TABLE_SHARE@@QEBA?AW4enum_table_ref_type@@XZ
?is_eof@Diagnostics_area@@QEBA_NXZ
?myrg_info@ha_myisammrg@@QEAAPEAUst_myrg_info@@XZ
??0Query_cache_wait_state@@QEAA@PEAVTHD@@PEBD1I@Z
??1Query_cache_wait_state@@QEAA@XZ
?query_cache_insert@@YAXPEBDKI@Z
?dump_node@@YAXPEAUQuery_cache_block_table@@PEBD1@Z
?read_bootstrap_query@@YAHPEADPEAHPEAXP6APEAD0_K21@Z1@Z
?LOCK_open@@3Ust_mysql_mutex@@A DATA
?not_found_item@@3PEAPEAVItem@@EA DATA
?not_found_field@@3PEAVField@@EA DATA
?view_ref_found@@3PEAVField@@EA DATA
?table_def_cache@@3Ust_hash@@A DATA
?ptr@MDL_key@@QEBAPEBEXZ
?length@MDL_key@@QEBAIXZ
?db_name@MDL_key@@QEBAPEBDXZ
?name@MDL_key@@QEBAPEBDXZ
?mdl_namespace@MDL_key@@QEBA?AW4enum_mdl_namespace@1@XZ
??2MDL_request@@SAPEAX_KPEAUst_mem_root@@@Z
??3MDL_request@@SAXPEAXPEAUst_mem_root@@@Z
??0Table_id@@QEAA@_K@Z
?id@Table_id@@QEBA_KXZ
??ETable_id@@QEAA?AV0@H@Z
?get_table_ref_version@TABLE_SHARE@@QEBA_KXZ
?is_table_ref_id_equal@TABLE_LIST@@QEBA_NPEAUTABLE_SHARE@@@Z
?set_table_ref_id@TABLE_LIST@@QEAAXPEAUTABLE_SHARE@@@Z
?set_table_ref_id@TABLE_LIST@@QEAAXW4enum_table_ref_type@@_K@Z
??0?$List_iterator_fast@VNatural_join_column@@@@QEAA@AEAV?$List@VNatural_join_column@@@@@Z
?is_user_table@@YA_NPEAUTABLE@@@Z
??0Field_null@@QEAA@PEAEIW4utype@Field@@PEBDPEBUcharset_info_st@@@Z
?type@Field_null@@UEBA?AW4enum_field_types@@XZ
?store@Field_null@@UEAA?AW4type_conversion_status@@PEBDIPEBUcharset_info_st@@@Z
?store@Field_null@@UEAA?AW4type_conversion_status@@N@Z
?store@Field_null@@UEAA?AW4type_conversion_status@@_J_N@Z
?store_decimal@Field_null@@UEAA?AW4type_conversion_status@@PEBVmy_decimal@@@Z
?reset@Field_null@@UEAA?AW4type_conversion_status@@XZ
?val_real@Field_null@@UEAANXZ
?val_int@Field_null@@UEAA_JXZ
?val_decimal@Field_null@@UEAAPEAVmy_decimal@@PEAV2@@Z
?val_str@Field_null@@UEAAPEAVString@@PEAV2@0@Z
?cmp@Field_null@@UEAAHPEBE0@Z
?make_sort_key@Field_null@@UEAAXPEAEI@Z
?pack_length@Field_null@@UEBAIXZ
?max_display_length@Field_null@@UEAAIXZ
?clone@Field_null@@UEBAPEAV1@PEAUst_mem_root@@@Z
?clone@Field_null@@UEBAPEAV1@XZ
??1Field_null@@UEAA@XZ
??0Field_null@@QEAA@AEBV0@@Z
?set_automatic@Gtid_specification@@QEAAXXZ
?eq_safe@Name_string@@QEBA_NPEBD@Z
?eq_safe@Name_string@@QEBA_NV1@@Z
?insert_fields@@YA_NPEAVTHD@@PEAUName_resolution_context@@PEBD2PEAV?$List_iterator@VItem@@@@_N@Z
?setup_conds@@YAHPEAVTHD@@PEAUTABLE_LIST@@1PEAPEAVItem@@@Z
?mark_as_requiring_prelocking@Query_tables_list@@QEAAXPEAPEAUTABLE_LIST@@@Z
?chop_off_not_own_tables@Query_tables_list@@QEAAXXZ
?is_stmt_prepare_or_first_stmt_execute@Query_arena@@QEBA_NXZ
?unlock_locked_tables@Locked_tables_list@@QEAAXPEAVTHD@@@Z
?init_locked_tables@Locked_tables_list@@QEAA_NPEAVTHD@@@Z
?locked_tables@Locked_tables_list@@QEAAPEAUTABLE_LIST@@XZ
?unlink_from_list@Locked_tables_list@@QEAAXPEAVTHD@@PEAUTABLE_LIST@@_N@Z
?unlink_all_closed_tables@Locked_tables_list@@QEAAXPEAVTHD@@PEAUst_mysql_lock@@_K@Z
?reopen_tables@Locked_tables_list@@QEAA_NPEAVTHD@@@Z
?binlog_flush_pending_rows_event@THD@@QEAAH_N@Z
?enter_locked_tables_mode@THD@@QEAAXW4enum_locked_tables_mode@@@Z
?table_def_init@@YA_NXZ
?table_def_free@@YAXXZ
?table_def_start_shutdown@@YAXXZ
?assign_new_table_id@@YAXPEAUTABLE_SHARE@@@Z
?cached_table_definitions@@YAIXZ
?get_table_def_key@@YAIPEBUTABLE_LIST@@PEAPEBD@Z
?get_table_share@@YAPEAUTABLE_SHARE@@PEAVTHD@@PEAUTABLE_LIST@@PEBDIIPEAHI@Z
?release_table_share@@YAXPEAUTABLE_SHARE@@@Z
?get_cached_table_share@@YAPEAUTABLE_SHARE@@PEBD0@Z
?open_ltable@@YAPEAUTABLE@@PEAVTHD@@PEAUTABLE_LIST@@W4thr_lock_type@@I@Z
?open_table@@YA_NPEAVTHD@@PEAUTABLE_LIST@@PEAVOpen_table_context@@@Z
?open_table_uncached@@YAPEAUTABLE@@PEAVTHD@@PEBD11_N2@Z
?find_locked_table@@YAPEAUTABLE@@PEAU1@PEBD1@Z
?read_lock_type_for_table@@YA?AW4thr_lock_type@@PEAVTHD@@PEAVQuery_tables_list@@PEAUTABLE_LIST@@_N@Z
?mysql_rm_tmp_tables@@YADXZ
?rm_temporary_table@@YA_NPEAUhandlerton@@PEBD@Z
?close_tables_for_reopen@@YAXPEAVTHD@@PEAPEAUTABLE_LIST@@AEBVMDL_savepoint@@@Z
?find_table_in_list@@YAPEAUTABLE_LIST@@PEAU1@PEQ1@PEAU1@PEBD2@Z
?find_temporary_table@@YAPEAUTABLE@@PEAVTHD@@PEBD1@Z
?find_temporary_table@@YAPEAUTABLE@@PEAVTHD@@PEBUTABLE_LIST@@@Z
?find_temporary_table@@YAPEAUTABLE@@PEAVTHD@@PEBDI@Z
?close_thread_tables@@YAXPEAVTHD@@@Z
?fill_record_n_invoke_before_triggers@@YA_NPEAVTHD@@AEAV?$List@VItem@@@@1_NPEAVTable_triggers_list@@W4trg_event_type@@@Z
?fill_record_n_invoke_before_triggers@@YA_NPEAVTHD@@PEAPEAVField@@AEAV?$List@VItem@@@@_NPEAVTable_triggers_list@@W4trg_event_type@@@Z
?setup_wild@@YAHPEAVTHD@@PEAUTABLE_LIST@@AEAV?$List@VItem@@@@PEAV3@I@Z
?setup_fields@@YA_NPEAVTHD@@V?$Bounds_checked_array@PEAVItem@@@@AEAV?$List@VItem@@@@W4enum_mark_columns@@PEAV3@_N@Z
?fill_record@@YA_NPEAVTHD@@AEAV?$List@VItem@@@@1_NPEAUst_bitmap@@@Z
?fill_record@@YA_NPEAVTHD@@PEAPEAVField@@AEAV?$List@VItem@@@@_NPEAUst_bitmap@@@Z
?find_field_in_tables@@YAPEAVField@@PEAVTHD@@PEAVItem_ident@@PEAUTABLE_LIST@@2PEAPEAVItem@@W4find_item_error_report_type@@_N5@Z
?find_field_in_table_ref@@YAPEAVField@@PEAVTHD@@PEAUTABLE_LIST@@PEBDI222PEAPEAVItem@@_N4PEAI4PEAPEAU3@@Z
?find_field_in_table@@YAPEAVField@@PEAVTHD@@PEAUTABLE@@PEBDI_NPEAI@Z
?find_field_in_table_sef@@YAPEAVField@@PEAUTABLE@@PEBD@Z
?find_item_in_list@@YAPEAPEAVItem@@PEAV1@AEAV?$List@VItem@@@@PEAIW4find_item_error_report_type@@PEAW4enum_resolution_type@@@Z
?setup_tables@@YA_NPEAVTHD@@PEAUName_resolution_context@@PEAV?$List@UTABLE_LIST@@@@PEAUTABLE_LIST@@PEAPEAU4@_N@Z
?setup_tables_and_check_access@@YA_NPEAVTHD@@PEAUName_resolution_context@@PEAV?$List@UTABLE_LIST@@@@PEAUTABLE_LIST@@PEAPEAU4@_NKK@Z
?wait_while_table_is_used@@YA_NPEAVTHD@@PEAUTABLE@@W4ha_extra_function@@@Z
?drop_open_table@@YAXPEAVTHD@@PEAUTABLE@@PEBD2@Z
?update_non_unique_table_error@@YAXPEAUTABLE_LIST@@PEBD0@Z
?setup_ftfuncs@@YAHPEAVst_select_lex@@@Z
?init_ftfuncs@@YAHPEAVTHD@@PEAVst_select_lex@@_N@Z
?lock_table_names@@YA_NPEAVTHD@@PEAUTABLE_LIST@@1KI@Z
?open_tables@@YA_NPEAVTHD@@PEAPEAUTABLE_LIST@@PEAIIPEAVPrelocking_strategy@@@Z
?open_and_lock_tables@@YA_NPEAVTHD@@PEAUTABLE_LIST@@_NIPEAVPrelocking_strategy@@@Z
?open_n_lock_single_table@@YAPEAUTABLE@@PEAVTHD@@PEAUTABLE_LIST@@W4thr_lock_type@@IPEAVPrelocking_strategy@@@Z
?open_normal_and_derived_tables@@YA_NPEAVTHD@@PEAUTABLE_LIST@@I@Z
?lock_tables@@YA_NPEAVTHD@@PEAUTABLE_LIST@@II@Z
?free_io_cache@@YAXPEAUTABLE@@@Z
?intern_close_table@@YAXPEAUTABLE@@@Z
?close_thread_table@@YAXPEAVTHD@@PEAPEAUTABLE@@@Z
?close_temporary_tables@@YA_NPEAVTHD@@@Z
?unique_table@@YAPEAUTABLE_LIST@@PEAVTHD@@PEAU1@1_N@Z
?drop_temporary_table@@YAHPEAVTHD@@PEAUTABLE_LIST@@PEA_N@Z
?close_temporary_table@@YAXPEAVTHD@@PEAUTABLE@@_N2@Z
?close_temporary@@YAXPEAUTABLE@@_N1@Z
?rename_temporary_table@@YA_NPEAVTHD@@PEAUTABLE@@PEBD2@Z
?open_temporary_tables@@YA_NPEAVTHD@@PEAUTABLE_LIST@@@Z
?open_temporary_table@@YA_NPEAVTHD@@PEAUTABLE_LIST@@@Z
?is_equal@@YA_NPEBUst_mysql_lex_string@@0@Z
?open_system_tables_for_read@@YA_NPEAVTHD@@PEAUTABLE_LIST@@PEAVOpen_tables_backup@@@Z
?close_system_tables@@YAXPEAVTHD@@PEAVOpen_tables_backup@@@Z
?close_mysql_tables@@YAXPEAVTHD@@@Z
?open_system_table_for_update@@YAPEAUTABLE@@PEAVTHD@@PEAUTABLE_LIST@@@Z
?open_log_table@@YAPEAUTABLE@@PEAVTHD@@PEAUTABLE_LIST@@PEAVOpen_tables_backup@@@Z
?close_log_table@@YAXPEAVTHD@@PEAVOpen_tables_backup@@@Z
?close_cached_tables@@YA_NPEAVTHD@@PEAUTABLE_LIST@@_NK@Z
?close_cached_connection_tables@@YA_NPEAVTHD@@PEAUst_mysql_lex_string@@@Z
?close_all_tables_for_name@@YAXPEAVTHD@@PEAUTABLE_SHARE@@_NPEAUTABLE@@@Z
?list_open_tables@@YAPEAUst_open_table_list@@PEAVTHD@@PEBD1@Z
?tdc_remove_table@@YAXPEAVTHD@@W4enum_tdc_remove_table_type@@PEBD2_N@Z
?tdc_open_view@@YA_NPEAVTHD@@PEAUTABLE_LIST@@PEBD2II@Z
?tdc_flush_unused_tables@@YAXXZ
?find_table_for_mdl_upgrade@@YAPEAUTABLE@@PEAVTHD@@PEBD1_N@Z
?mark_tmp_table_for_reuse@@YAXPEAUTABLE@@@Z
?check_if_table_exists@@YA_NPEAVTHD@@PEAUTABLE_LIST@@PEA_N@Z
?setup_table_map@@YAXPEAUTABLE@@PEAUTABLE_LIST@@I@Z
?handle_routine@DML_prelocking_strategy@@UEAA_NPEAVTHD@@PEAVQuery_tables_list@@PEAVSroutine_hash_entry@@PEAVsp_head@@PEA_N@Z
?handle_table@DML_prelocking_strategy@@UEAA_NPEAVTHD@@PEAVQuery_tables_list@@PEAUTABLE_LIST@@PEA_N@Z
?handle_view@DML_prelocking_strategy@@UEAA_NPEAVTHD@@PEAVQuery_tables_list@@PEAUTABLE_LIST@@PEA_N@Z
?handle_table@Lock_tables_prelocking_strategy@@EEAA_NPEAVTHD@@PEAVQuery_tables_list@@PEAUTABLE_LIST@@PEA_N@Z
?handle_routine@Alter_table_prelocking_strategy@@UEAA_NPEAVTHD@@PEAVQuery_tables_list@@PEAVSroutine_hash_entry@@PEAVsp_head@@PEA_N@Z
?handle_table@Alter_table_prelocking_strategy@@UEAA_NPEAVTHD@@PEAVQuery_tables_list@@PEAUTABLE_LIST@@PEA_N@Z
?handle_view@Alter_table_prelocking_strategy@@UEAA_NPEAVTHD@@PEAVQuery_tables_list@@PEAUTABLE_LIST@@PEA_N@Z
??0Open_table_context@@QEAA@PEAVTHD@@I@Z
?recover_from_failed_open@Open_table_context@@QEAA_NXZ
?request_backoff_action@Open_table_context@@QEAA_NW4enum_open_table_action@1@PEAUTABLE_LIST@@@Z
?can_recover_from_failed_open@Open_table_context@@QEBA_NXZ
?start_of_statement_svp@Open_table_context@@QEBAAEBVMDL_savepoint@@XZ
?get_timeout@Open_table_context@@QEBAKXZ
?get_flags@Open_table_context@@QEBAIXZ
?set_has_protection_against_grl@Open_table_context@@QEAAXXZ
?has_protection_against_grl@Open_table_context@@QEBA_NXZ
??0No_such_table_error_handler@@QEAA@XZ
?handle_condition@No_such_table_error_handler@@UEAA_NPEAVTHD@@IPEBDW4enum_warning_level@Sql_condition@@1PEAPEAV4@@Z
?safely_trapped_errors@No_such_table_error_handler@@QEAA_NXZ
??1No_such_table_error_handler@@UEAA@XZ
?is_invoked@sp_head@@QEBA_NXZ
?sp_cache_version@sp_head@@QEBAKXZ
?modifies_data@sp_head@@QEBA_NXZ
?link_unused_table@Table_cache@@AEAAXPEAUTABLE@@@Z
?free_unused_tables_if_necessary@Table_cache@@AEAAXPEAVTHD@@@Z
?get_table@Table_cache@@QEAAPEAUTABLE@@PEAVTHD@@IPEBDIPEAPEAUTABLE_SHARE@@@Z
?release_table@Table_cache@@QEAAXPEAVTHD@@PEAUTABLE@@@Z
?add_used_table@Table_cache@@QEAA_NPEAVTHD@@PEAUTABLE@@@Z
?get_cache@Table_cache_manager@@QEAAPEAVTable_cache@@PEAVTHD@@@Z
??0?$I_P_List_no_push_back@UTABLE@@@@IEAA@PEAPEAUTABLE@@@Z
??0?$I_P_List@UTABLE@@U?$I_P_List_adapter@UTABLE@@$0CA@$0CI@@@VI_P_List_null_counter@@V?$I_P_List_no_push_back@UTABLE@@@@@@QEAA@XZ
?push_front@?$I_P_List@UTABLE@@U?$I_P_List_adapter@UTABLE@@$0CA@$0CI@@@VI_P_List_null_counter@@V?$I_P_List_no_push_back@UTABLE@@@@@@QEAAXPEAUTABLE@@@Z
??0Table_cache_element@@QEAA@PEAUTABLE_SHARE@@@Z
??0Repair_mrg_table_error_handler@@QEAA@XZ
?handle_condition@Repair_mrg_table_error_handler@@UEAA_NPEAVTHD@@IPEBDW4enum_warning_level@Sql_condition@@1PEAPEAV4@@Z
?safely_trapped_errors@Repair_mrg_table_error_handler@@QEAA_NXZ
??1Repair_mrg_table_error_handler@@UEAA@XZ
table_def_key
??0MDL_deadlock_handler@@QEAA@PEAVOpen_table_context@@@Z
??1MDL_deadlock_handler@@UEAA@XZ
?handle_condition@MDL_deadlock_handler@@UEAA_NPEAVTHD@@IPEBDW4enum_warning_level@Sql_condition@@1PEAPEAV4@@Z
schema_set_get_key
?is_empty@?$I_P_List@VMDL_request@@U?$I_P_List_adapter@VMDL_request@@$07$0BA@@@VI_P_List_counter@@V?$I_P_List_no_push_back@VMDL_request@@@@@@QEBA_NXZ
??0?$Hash_set@UTABLE_LIST@@$1?schema_set_get_key@@YAPEAEPEBEPEA_KD@Z@@QEAA@XZ
??1?$Hash_set@UTABLE_LIST@@$1?schema_set_get_key@@YAPEAEPEBEPEA_KD@Z@@QEAA@XZ
?insert@?$Hash_set@UTABLE_LIST@@$1?schema_set_get_key@@YAPEAEPEBEPEA_KD@Z@@QEAA_NPEAUTABLE_LIST@@@Z
??0Iterator@?$Hash_set@UTABLE_LIST@@$1?schema_set_get_key@@YAPEAEPEBEPEA_KD@Z@@QEAA@AEAV1@@Z
??EIterator@?$Hash_set@UTABLE_LIST@@$1?schema_set_get_key@@YAPEAEPEBEPEA_KD@Z@@QEAAPEAUTABLE_LIST@@H@Z
?concat@?$List@VNatural_join_column@@@@QEAAXPEAV1@@Z
??_9Item@@$BCMI@AA
?after@?$List_iterator@VItem@@@@QEAAXPEAVItem@@@Z
??0?$List_iterator_fast@VString@@@@QEAA@AEAV?$List@VString@@@@@Z
??E?$List_iterator_fast@VString@@@@QEAAPEAVString@@H@Z
??0?$List_iterator@VItem_func_set_user_var@@@@QEAA@AEAV?$List@VItem_func_set_user_var@@@@@Z
??E?$List_iterator@VItem_func_set_user_var@@@@QEAAPEAVItem_func_set_user_var@@H@Z
?make_leaves_list@@YAPEAPEAUTABLE_LIST@@PEAPEAU1@PEAU1@@Z
??0?$List_iterator@VItem_func_match@@@@QEAA@AEAV?$List@VItem_func_match@@@@@Z
??E?$List_iterator@VItem_func_match@@@@QEAAPEAVItem_func_match@@H@Z
?rewind@?$List_iterator@VItem_func_match@@@@QEAAXXZ
?mysql_global_audit_mask@@3PAKA DATA
?mysql_audit_initialize@@YAXXZ
?mysql_audit_finalize@@YAXXZ
?mysql_audit_init_thd@@YAXPEAVTHD@@@Z
?mysql_audit_free_thd@@YAXPEAVTHD@@@Z
?mysql_audit_acquire_plugins@@YAXPEAVTHD@@I@Z
?mysql_audit_notify@@YAXPEAVTHD@@IIZZ
?mysql_audit_release@@YAXPEAVTHD@@@Z
?initialize_audit_plugin@@YAHPEAUst_plugin_int@@@Z
?finalize_audit_plugin@@YAHPEAUst_plugin_int@@@Z
?set@Simple_cstring@@QEAAXPEBD@Z
??4my_decimal@@QEAAAEAV0@AEBV0@@Z
?my_decimal_string_length@@YAHPEBVmy_decimal@@@Z
?binary2my_decimal@@YAHIPEBEPEAVmy_decimal@@HH@Z
?my_decimal_round@@YAHIPEBVmy_decimal@@H_NPEAV1@@Z
?my_decimal2double@@YAHIPEBVmy_decimal@@PEAN@Z
?int2my_decimal@@YAHI_JDPEAVmy_decimal@@@Z
?my_decimal_add@@YAHIPEAVmy_decimal@@PEBV1@1@Z
?my_decimal_sub@@YAHIPEAVmy_decimal@@PEBV1@1@Z
?my_decimal_mul@@YAHIPEAVmy_decimal@@PEBV1@1@Z
?my_decimal_div@@YAHIPEAVmy_decimal@@PEBV1@1H@Z
??$max@N@std@@YAAEBNAEBN0@Z
??0Item_proc@@QEAA@PEBD@Z
?type@Item_proc@@UEBA?AW4Type@Item@@XZ
?set@Item_proc@@QEAAXPEBD@Z
??1Item_proc@@UEAA@XZ
??0Item_proc_int@@QEAA@PEBD@Z
?result_type@Item_proc_int@@UEBA?AW4Item_result@@XZ
?field_type@Item_proc_int@@UEBA?AW4enum_field_types@@XZ
?set@Item_proc_int@@UEAAX_J@Z
?set@Item_proc_int@@UEAAXPEBDIPEBUcharset_info_st@@@Z
?val_real@Item_proc_int@@UEAANXZ
?val_int@Item_proc_int@@UEAA_JXZ
?val_str@Item_proc_int@@UEAAPEAVString@@PEAV2@@Z
?get_date@Item_proc_int@@UEAA_NPEAUst_mysql_time@@I@Z
?get_time@Item_proc_int@@UEAA_NPEAUst_mysql_time@@@Z
??1Item_proc_int@@UEAA@XZ
??0Item_proc_string@@QEAA@PEBDI@Z
?result_type@Item_proc_string@@UEBA?AW4Item_result@@XZ
?field_type@Item_proc_string@@UEBA?AW4enum_field_types@@XZ
?set@Item_proc_string@@UEAAX_J@Z
?set@Item_proc_string@@UEAAXPEBDIPEBUcharset_info_st@@@Z
?val_real@Item_proc_string@@UEAANXZ
?val_int@Item_proc_string@@UEAA_JXZ
?get_date@Item_proc_string@@UEAA_NPEAUst_mysql_time@@I@Z
?get_time@Item_proc_string@@UEAA_NPEAUst_mysql_time@@@Z
?val_str@Item_proc_string@@UEAAPEAVString@@PEAV2@@Z
??1Item_proc_string@@UEAA@XZ
?check_ulonglong@@YAIPEBDI@Z
?get_ev_num_info@@YA_NPEAUst_extreme_value_number_info@@PEAUst_number_info@@PEBD@Z
?test_if_number@@YA_NPEAUst_number_info@@PEBDI@Z
?compare_double@@YAHPEBN0@Z
?compare_double2@@YAHPEAXPEBN1@Z
?compare_longlong@@YAHPEB_J0@Z
?compare_longlong2@@YAHPEAXPEB_J1@Z
?compare_ulonglong@@YAHPEB_K0@Z
?compare_ulonglong2@@YAHPEAXPEB_K1@Z
?compare_decimal2@@YAHPEAHPEBD1@Z
?free_string@@YAXPEAVString@@@Z
??0field_info@@QEAA@PEAVItem@@PEAVselect_analyse@@@Z
??1field_info@@UEAA@XZ
?decimals@field_info@@UEAAIXZ
?collect_string@@YAHPEAVString@@IPEAUst_tree_info@@@Z
?sortcmp2@@YAHPEAXPEBVString@@1@Z
??0field_str@@QEAA@PEAVItem@@PEAVselect_analyse@@@Z
?add@field_str@@UEAAXXZ
?get_opt_type@field_str@@UEAAXPEAVString@@_K@Z
?get_min_arg@field_str@@UEAAPEAVString@@PEAV2@@Z
?get_max_arg@field_str@@UEAAPEAVString@@PEAV2@@Z
?avg@field_str@@UEAAPEAVString@@PEAV2@_K@Z
?collect_enum@field_str@@UEAAP6AHPEAXI0@ZXZ
?std@field_str@@UEAAPEAVString@@PEAV2@_K@Z
??1field_str@@UEAA@XZ
?collect_decimal@@YAHPEAEIPEAUst_tree_info@@@Z
??0field_decimal@@QEAA@PEAVItem@@PEAVselect_analyse@@@Z
?add@field_decimal@@UEAAXXZ
?get_opt_type@field_decimal@@UEAAXPEAVString@@_K@Z
?get_min_arg@field_decimal@@UEAAPEAVString@@PEAV2@@Z
?get_max_arg@field_decimal@@UEAAPEAVString@@PEAV2@@Z
?avg@field_decimal@@UEAAPEAVString@@PEAV2@_K@Z
?collect_enum@field_decimal@@UEAAP6AHPEAXI0@ZXZ
?std@field_decimal@@UEAAPEAVString@@PEAV2@_K@Z
??1field_decimal@@UEAA@XZ
?collect_real@@YAHPEANIPEAUst_tree_info@@@Z
??0field_real@@QEAA@PEAVItem@@PEAVselect_analyse@@@Z
?add@field_real@@UEAAXXZ
?get_opt_type@field_real@@UEAAXPEAVString@@_K@Z
?get_min_arg@field_real@@UEAAPEAVString@@PEAV2@@Z
?get_max_arg@field_real@@UEAAPEAVString@@PEAV2@@Z
?avg@field_real@@UEAAPEAVString@@PEAV2@_K@Z
?std@field_real@@UEAAPEAVString@@PEAV2@_K@Z
?decimals@field_real@@UEAAIXZ
?collect_enum@field_real@@UEAAP6AHPEAXI0@ZXZ
??1field_real@@UEAA@XZ
?collect_longlong@@YAHPEA_JIPEAUst_tree_info@@@Z
??0field_longlong@@QEAA@PEAVItem@@PEAVselect_analyse@@@Z
?add@field_longlong@@UEAAXXZ
?get_opt_type@field_longlong@@UEAAXPEAVString@@_K@Z
?get_min_arg@field_longlong@@UEAAPEAVString@@PEAV2@@Z
?get_max_arg@field_longlong@@UEAAPEAVString@@PEAV2@@Z
?avg@field_longlong@@UEAAPEAVString@@PEAV2@_K@Z
?std@field_longlong@@UEAAPEAVString@@PEAV2@_K@Z
?collect_enum@field_longlong@@UEAAP6AHPEAXI0@ZXZ
??1field_longlong@@UEAA@XZ
?collect_ulonglong@@YAHPEA_KIPEAUst_tree_info@@@Z
??0field_ulonglong@@QEAA@PEAVItem@@PEAVselect_analyse@@@Z
?add@field_ulonglong@@UEAAXXZ
?get_opt_type@field_ulonglong@@UEAAXPEAVString@@_K@Z
?get_min_arg@field_ulonglong@@UEAAPEAVString@@PEAV2@@Z
?get_max_arg@field_ulonglong@@UEAAPEAVString@@PEAV2@@Z
?avg@field_ulonglong@@UEAAPEAVString@@PEAV2@_K@Z
?std@field_ulonglong@@UEAAPEAVString@@PEAV2@_K@Z
?collect_enum@field_ulonglong@@UEAAP6AHPEAXI0@ZXZ
??1field_ulonglong@@UEAA@XZ
?cleanup@select_analyse@@UEAAXXZ
?send_result_set_metadata@select_analyse@@UEAA_NAEAV?$List@VItem@@@@I@Z
?send_data@select_analyse@@UEAA_NAEAV?$List@VItem@@@@@Z
?send_eof@select_analyse@@UEAA_NXZ
?abort_result_set@select_analyse@@UEAAXXZ
?init@select_analyse@@AEAA_NAEAV?$List@VItem@@@@@Z
?change_columns@select_analyse@@AEAA_NXZ
?append_escaped@@YA_NPEAVString@@0@Z
??$max@_J@std@@YAAEB_JAEB_J0@Z
??$min@H@std@@YAAEBHAEBH0@Z
??$_Debug_lt@AEBHAEBH@std@@YA_NAEBH0PEB_WI@Z
??$forward@AEBH@std@@YAAEBHAEBH@Z
??$_Debug_lt_pred@U?$less@X@std@@AEBHAEBH@std@@YA_NU?$less@X@0@AEBH1PEB_WI@Z
??$?RAEBHAEBH@?$less@X@std@@QEBA_NAEBH0@Z
??0?$List@VString@@@@QEAA@AEBV0@@Z
?clone@Create_field@@QEBAPEAV1@PEAUst_mem_root@@@Z
??0Create_field@@QEAA@AEBV0@@Z
?clone@Alter_drop@@QEBAPEAV1@PEAUst_mem_root@@@Z
?clone@Alter_column@@QEBAPEAV1@PEAUst_mem_root@@@Z
??0?$List@VAlter_drop@@@@QEAA@AEBV0@PEAUst_mem_root@@@Z
??0?$List@VAlter_column@@@@QEAA@AEBV0@PEAUst_mem_root@@@Z
??0?$List@VKey@@@@QEAA@AEBV0@PEAUst_mem_root@@@Z
??0?$List@VCreate_field@@@@QEAA@AEBV0@PEAUst_mem_root@@@Z
??0?$List@D@@QEAA@AEBV0@PEAUst_mem_root@@@Z
??0Alter_info@@QEAA@AEBV0@PEAUst_mem_root@@@Z
?set_requested_algorithm@Alter_info@@QEAA_NPEBUst_mysql_lex_string@@@Z
?set_requested_lock@Alter_info@@QEAA_NPEBUst_mysql_lex_string@@@Z
??0Alter_table_ctx@@QEAA@XZ
??0Alter_table_ctx@@QEAA@PEAVTHD@@PEAUTABLE_LIST@@IPEAD2@Z
?execute@Sql_cmd_alter_table@@UEAA_NPEAVTHD@@@Z
?execute@Sql_cmd_discard_import_tablespace@@UEAA_NPEAVTHD@@@Z
??$list_copy_and_replace_each_value@VAlter_drop@@@@YAXAEAV?$List@VAlter_drop@@@@PEAUst_mem_root@@@Z
??$list_copy_and_replace_each_value@VAlter_column@@@@YAXAEAV?$List@VAlter_column@@@@PEAUst_mem_root@@@Z
??$list_copy_and_replace_each_value@VKey@@@@YAXAEAV?$List@VKey@@@@PEAUst_mem_root@@@Z
??$list_copy_and_replace_each_value@VCreate_field@@@@YAXAEAV?$List@VCreate_field@@@@PEAUst_mem_root@@@Z
?replace@?$List_iterator@VAlter_drop@@@@QEAAPEAVAlter_drop@@PEAV2@@Z
?replace@?$List_iterator@VAlter_column@@@@QEAAPEAVAlter_column@@PEAV2@@Z
?replace@?$List_iterator@VKey@@@@QEAAPEAVKey@@PEAV2@@Z
sql_alloc_error_handler
?is_ok@Diagnostics_area@@QEBA_NXZ
?mysql_assign_to_keycache@@YA_NPEAVTHD@@PEAUTABLE_LIST@@PEAUst_mysql_lex_string@@@Z
?mysql_preload_keys@@YA_NPEAVTHD@@PEAUTABLE_LIST@@@Z
?execute@Sql_cmd_analyze_table@@UEAA_NPEAVTHD@@@Z
?execute@Sql_cmd_check_table@@UEAA_NPEAVTHD@@@Z
?execute@Sql_cmd_optimize_table@@UEAA_NPEAVTHD@@@Z
?execute@Sql_cmd_repair_table@@UEAA_NPEAVTHD@@@Z
??_9handler@@$BBPI@AA
??_9handler@@$BCAA@AA
builtin_mysql_password_plugin_interface_version DATA
builtin_mysql_password_sizeof_struct_st_plugin DATA
?validate_user_plugins@@3DA DATA
?sha256_password_plugin_name@@3Ust_mysql_lex_string@@A DATA
?default_auth_plugin_name@@3Ust_mysql_lex_string@@A DATA
?mysql_db_table_def@@3Ust_table_field_def@@B DATA
?mysql_user_table_is_in_short_password_format@@3_NA DATA
?disconnect_on_expired_password@@3DA DATA
?command_array@@3PAPEBDA DATA
?command_lengths@@3PAIA DATA
?memchr@@YAPEAXPEAXH_K@Z
?push_back@?$List@Ust_lex_user@@@@QEAA_NPEAUst_lex_user@@@Z
?priv_host_name@Security_context@@QEAAPEADXZ
?handle_condition@Dummy_error_handler@@UEAA_NPEAVTHD@@IPEBDW4enum_warning_level@Sql_condition@@1PEAPEAV4@@Z
??0Dummy_error_handler@@QEAA@XZ
??1Dummy_error_handler@@UEAA@XZ
?hostname_requires_resolving@@YA_NPEBD@Z
?append_user@@YAXPEAVTHD@@PEAVString@@PEAUst_lex_user@@_N3@Z
?acl_init@@YAD_N@Z
?acl_reload@@YADPEAVTHD@@@Z
?acl_free@@YAX_N@Z
?acl_get@@YAKPEBD000D@Z
?acl_authenticate@@YAHPEAVTHD@@I@Z
?acl_getroot@@YA_NPEAVSecurity_context@@PEAD111@Z
?acl_check_host@@YA_NPEBD0@Z
?check_change_password@@YAHPEAVTHD@@PEBD1PEADI@Z
?change_password@@YA_NPEAVTHD@@PEBD1PEAD@Z
?mysql_grant@@YA_NPEAVTHD@@PEBDAEAV?$List@Ust_lex_user@@@@K_N3@Z
?mysql_table_grant@@YAHPEAVTHD@@PEAUTABLE_LIST@@AEAV?$List@Ust_lex_user@@@@AEAV?$List@VLEX_COLUMN@@@@K_N@Z
?mysql_routine_grant@@YA_NPEAVTHD@@PEAUTABLE_LIST@@_NAEAV?$List@Ust_lex_user@@@@K22@Z
?grant_init@@YADXZ
?grant_free@@YAXXZ
?grant_reload@@YADPEAVTHD@@@Z
?check_grant@@YA_NPEAVTHD@@KPEAUTABLE_LIST@@_NI2@Z
?check_grant_column@@YA_NPEAVTHD@@PEAUst_grant_info@@PEBD22IPEAVSecurity_context@@@Z
?check_column_grant_in_table_ref@@YA_NPEAVTHD@@PEAUTABLE_LIST@@PEBDI@Z
?check_grant_all_columns@@YA_NPEAVTHD@@KPEAVField_iterator_table_ref@@@Z
?check_grant_routine@@YA_NPEAVTHD@@KPEAUTABLE_LIST@@_N2@Z
?check_grant_db@@YA_NPEAVTHD@@PEBD@Z
?get_table_grant@@YAKPEAVTHD@@PEAUTABLE_LIST@@@Z
?get_column_grant@@YAKPEAVTHD@@PEAUst_grant_info@@PEBD22@Z
?mysql_show_grants@@YA_NPEAVTHD@@PEAUst_lex_user@@@Z
?get_privilege_desc@@YAXPEADIK@Z
?get_mqh@@YAXPEBD0PEAUuser_conn@@@Z
?mysql_create_user@@YA_NPEAVTHD@@AEAV?$List@Ust_lex_user@@@@@Z
?mysql_drop_user@@YA_NPEAVTHD@@AEAV?$List@Ust_lex_user@@@@@Z
?mysql_rename_user@@YA_NPEAVTHD@@AEAV?$List@Ust_lex_user@@@@@Z
?mysql_user_password_expire@@YA_NPEAVTHD@@AEAV?$List@Ust_lex_user@@@@@Z
?mysql_revoke_all@@YA_NPEAVTHD@@AEAV?$List@Ust_lex_user@@@@@Z
?fill_effective_table_privileges@@YAXPEAVTHD@@PEAUst_grant_info@@PEBD2@Z
?sp_revoke_privileges@@YA_NPEAVTHD@@PEBD1_N@Z
?sp_grant_privileges@@YA_NPEAVTHD@@PEBD1_N@Z
?check_routine_level_acl@@YA_NPEAVTHD@@PEBD1_N@Z
?is_acl_user@@YA_NPEBD0@Z
?fill_schema_user_privileges@@YAHPEAVTHD@@PEAUTABLE_LIST@@PEAVItem@@@Z
?fill_schema_schema_privileges@@YAHPEAVTHD@@PEAUTABLE_LIST@@PEAVItem@@@Z
?fill_schema_table_privileges@@YAHPEAVTHD@@PEAUTABLE_LIST@@PEAVItem@@@Z
?fill_schema_column_privileges@@YAHPEAVTHD@@PEAUTABLE_LIST@@PEAVItem@@@Z
?wild_case_compare@@YAHPEAUcharset_info_st@@PEBD1@Z
?digest_password@@YAHPEAVTHD@@PEAUst_lex_user@@@Z
?check_password_strength@@YAHPEAVString@@@Z
?check_password_policy@@YAHPEAVString@@@Z
?close_acl_tables@@YAXPEAVTHD@@@Z
?register_schema@ACL_internal_schema_registry@@SAXPEBUst_mysql_lex_string@@PEBVACL_internal_schema_access@@@Z
?lookup@ACL_internal_schema_registry@@SAPEBVACL_internal_schema_access@@PEBD@Z
?get_cached_schema_access@@YAPEBVACL_internal_schema_access@@PEAUst_grant_internal_info@@PEBD@Z
?get_cached_table_access@@YAPEBVACL_internal_table_access@@PEAUst_grant_internal_info@@PEBD1@Z
?acl_check_proxy_grant_access@@YA_NPEAVTHD@@PEBD1_N@Z
?init_default_auth_plugin@@YAXXZ
?set_default_auth_plugin@@YAHPEADH@Z
??0hash_filo@@QEAA@IIIP6APEAEPEBEPEA_KD@ZP6AXPEAX@ZPEAUcharset_info_st@@@Z
??1hash_filo@@QEAA@XZ
?clear@hash_filo@@QEAAX_N@Z
?search@hash_filo@@QEAAPEAUhash_filo_element@@PEAE_K@Z
?add@hash_filo@@QEAADPEAUhash_filo_element@@@Z
?auth_plugin_is_built_in@@YA_NPEBD@Z
?auth_plugin_supports_expiration@@YA_NPEBD@Z
?optimize_plugin_compare_by_pointer@@YAXPEAUst_mysql_lex_string@@@Z
?calc_ip@ACL_HOST_AND_IP@@AEAAPEBDPEBDPEAJD@Z
?get_host@ACL_HOST_AND_IP@@QEBAPEBDXZ
?get_host_len@ACL_HOST_AND_IP@@QEAAHXZ
?has_wildcard@ACL_HOST_AND_IP@@QEAA_NXZ
?check_allow_all_hosts@ACL_HOST_AND_IP@@QEAA_NXZ
?update_hostname@ACL_HOST_AND_IP@@QEAAXPEBD@Z
?compare_hostname@ACL_HOST_AND_IP@@QEAA_NPEBD0@Z
?copy@ACL_USER@@QEAAPEAV1@PEAUst_mem_root@@@Z
??0ACL_PROXY_USER@@QEAA@XZ
?init@ACL_PROXY_USER@@QEAAXPEBD000_N@Z
?init@ACL_PROXY_USER@@QEAAXPEAUst_mem_root@@PEBD111_N@Z
?init@ACL_PROXY_USER@@QEAAXPEAUTABLE@@PEAUst_mem_root@@@Z
?get_with_grant@ACL_PROXY_USER@@QEAA_NXZ
?get_user@ACL_PROXY_USER@@QEAAPEBDXZ
?get_proxied_host@ACL_PROXY_USER@@QEAAPEBDXZ
?set_user@ACL_PROXY_USER@@QEAAXPEAUst_mem_root@@PEBD@Z
?check_validity@ACL_PROXY_USER@@QEAA_N_N@Z
?matches@ACL_PROXY_USER@@QEAA_NPEBD000@Z
?auth_element_equals@ACL_PROXY_USER@@SA_NPEBD0@Z
?pk_equals@ACL_PROXY_USER@@QEAA_NPEAV1@@Z
?granted_on@ACL_PROXY_USER@@QEAA_NPEBD0@Z
?print_grant@ACL_PROXY_USER@@QEAAXPEAVString@@@Z
?set_data@ACL_PROXY_USER@@QEAAXPEAV1@@Z
?store_pk@ACL_PROXY_USER@@SAHPEAUTABLE@@PEBUst_mysql_lex_string@@111@Z
?store_data_record@ACL_PROXY_USER@@SAHPEAUTABLE@@PEBUst_mysql_lex_string@@111_NPEBD@Z
??0GRANT_COLUMN@@QEAA@AEAVString@@K@Z
??0GRANT_NAME@@QEAA@PEBD000K_N@Z
??0GRANT_NAME@@QEAA@PEAUTABLE@@_N@Z
??1GRANT_NAME@@UEAA@XZ
?ok@GRANT_NAME@@UEAA_NXZ
?set_user_details@GRANT_NAME@@QEAAXPEBD000_N@Z
??0GRANT_TABLE@@QEAA@PEBD000KK@Z
??0GRANT_TABLE@@QEAA@PEAUTABLE@@0@Z
??1GRANT_TABLE@@UEAA@XZ
?ok@GRANT_TABLE@@UEAA_NXZ
?free_grant_table@@YAXPEAVGRANT_TABLE@@@Z
?routine_hash_search@@YAPEAVGRANT_NAME@@PEBD0000_N1@Z
?table_hash_search@@YAPEAVGRANT_TABLE@@PEBD0000_N@Z
?column_hash_search@@YAPEAVGRANT_COLUMN@@PEAVGRANT_TABLE@@PEBDI@Z
??0?$Dynamic_array@PEAVGRANT_NAME@@@@QEAA@II@Z
?init@?$Dynamic_array@PEAVGRANT_NAME@@@@QEAAXII@Z
?at@?$Dynamic_array@PEAVGRANT_NAME@@@@QEAAAEAPEAVGRANT_NAME@@H@Z
?append@?$Dynamic_array@PEAVGRANT_NAME@@@@QEAA_NAEBQEAVGRANT_NAME@@@Z
?elements@?$Dynamic_array@PEAVGRANT_NAME@@@@QEBAHXZ
??1?$Dynamic_array@PEAVGRANT_NAME@@@@QEAA@XZ
??0Silence_routine_definer_errors@@QEAA@XZ
??1Silence_routine_definer_errors@@UEAA@XZ
?handle_condition@Silence_routine_definer_errors@@UEAA_NPEAVTHD@@IPEBDW4enum_warning_level@Sql_condition@@1PEAPEAV4@@Z
?has_errors@Silence_routine_definer_errors@@QEAA_NXZ
??0Thd_charset_adapter@@QEAA@PEAVTHD@@@Z
?init_client_charset@Thd_charset_adapter@@QEAA_NI@Z
?charset@Thd_charset_adapter@@QEAAPEBUcharset_info_st@@XZ
?can_authenticate@MPVIO_EXT@@QEAA_NXZ
?decoy_user@@YAPEAVACL_USER@@AEBUst_mysql_lex_string@@PEAUst_mem_root@@@Z
?my_vio_is_encrypted@@YAHPEAUst_plugin_vio@@@Z
?init_sha256_password_handler@@YAHPEAX@Z
builtin_mysql_password_plugin DATA
mysql_string_convert_to_char_ptr
mysql_string_get_iterator
mysql_string_iterator_next
mysql_string_iterator_isupper
mysql_string_iterator_islower
mysql_string_iterator_isdigit
mysql_string_to_lowercase
mysql_string_free
mysql_string_iterator_free
??3String@@SAXPEAX_K@Z
?ci_collection@Geometry@@2PAPEAVClass_info@1@A DATA
?pow@@YANNH@Z
??$_Pow_int@N@@YANNH@Z
?q_append@String@@QEAAXD@Z
?q_append@String@@QEAAXI@Z
?q_append@String@@QEAAXN@Z
?q_append@String@@QEAAXPEBDI@Z
?write_at_position@String@@QEAAXHI@Z
?qs_append@String@@QEAAXD@Z
?append@String@@QEAA_NPEBDII@Z
?skip_space@Gis_read_stream@@QEAAXXZ
?skip_char@Gis_read_stream@@QEAA_ND@Z
??0Gcalc_shape_status@@QEAA@XZ
?result@Gcalc_result_receiver@@QEAAPEBDXZ
?length@Gcalc_result_receiver@@QEAAIXZ
??0point_xy@@QEAA@XZ
??0point_xy@@QEAA@NN@Z
?distance@point_xy@@QEAANV1@@Z
?eq@point_xy@@QEAA_NV1@@Z
??0MBR@@QEAA@XZ
?add_xy@MBR@@QEAAXNN@Z
?add_xy@MBR@@QEAAXVpoint_xy@@@Z
?add_xy@MBR@@QEAAXPEBD0@Z
??0Geometry@@QEAA@XZ
??1Geometry@@UEAA@XZ
??2Geometry@@SAPEAX_KPEAX@Z
??3Geometry@@SAXPEAX0@Z
??3Geometry@@SAXPEAX@Z
??0wkb_container@Geometry@@QEAA@XZ
?set@wkb_container@Geometry@@QEAAXPEBD0@Z
?data@wkb_container@Geometry@@QEBAPEBDXZ
?no_data@wkb_container@Geometry@@QEBA_N_K@Z
?not_enough_points@wkb_container@Geometry@@QEBA_NII@Z
?get_uint4@wkb_parser@Geometry@@AEAAXPEAI@Z
?get_float8@wkb_parser@Geometry@@AEAAXPEAN@Z
??0wkb_parser@Geometry@@QEAA@PEBVwkb_container@1@@Z
?skip_unsafe@wkb_parser@Geometry@@QEAAX_K@Z
?skip@wkb_parser@Geometry@@QEAA_N_K@Z
?skip_wkb_header@wkb_parser@Geometry@@QEAA_NXZ
?skip_coord@wkb_parser@Geometry@@QEAA_NXZ
?scan_wkb_header@wkb_parser@Geometry@@QEAA_NPEAUwkb_header_st@@@Z
?scan_uint4@wkb_parser@Geometry@@QEAA_NPEAI@Z
?scan_non_zero_uint4@wkb_parser@Geometry@@QEAA_NPEAI@Z
?scan_n_points_and_check_data@wkb_parser@Geometry@@QEAA_NPEAII@Z
?scan_xy_unsafe@wkb_parser@Geometry@@QEAAXPEAVpoint_xy@@@Z
?scan_xy@wkb_parser@Geometry@@QEAA_NPEAVpoint_xy@@@Z
?scan_coord@wkb_parser@Geometry@@QEAA_NPEAN@Z
??0Class_info@Geometry@@QEAA@PEBDHP6APEAV1@PEAD@Z@Z
?init_from_opresult@Geometry@@UEAAIPEAVString@@PEBDI@Z
?dimension@Geometry@@UEBA_NPEAIPEAVwkb_parser@1@@Z
?get_x@Geometry@@UEBAHPEAN@Z
?get_y@Geometry@@UEBAHPEAN@Z
?geom_length@Geometry@@UEBAHPEAN@Z
?area@Geometry@@UEBA_NPEANPEAVwkb_parser@1@@Z
?is_closed@Geometry@@UEBAHPEAH@Z
?num_interior_ring@Geometry@@UEBAHPEAI@Z
?num_points@Geometry@@UEBAHPEAI@Z
?num_geometries@Geometry@@UEBAHPEAI@Z
?start_point@Geometry@@UEBAHPEAVString@@@Z
?end_point@Geometry@@UEBAHPEAVString@@@Z
?exterior_ring@Geometry@@UEBAHPEAVString@@@Z
?centroid@Geometry@@UEBAHPEAVString@@@Z
?point_n@Geometry@@UEBAHIPEAVString@@@Z
?interior_ring_n@Geometry@@UEBAHIPEAVString@@@Z
?geometry_n@Geometry@@UEBAHIPEAVString@@@Z
?create_by_typeid@Geometry@@SAPEAV1@PEAUGeometry_buffer@@H@Z
?scan_header_and_create@Geometry@@SAPEAV1@PEAVwkb_parser@1@PEAUGeometry_buffer@@@Z
?construct@Geometry@@SAPEAV1@PEAUGeometry_buffer@@PEBDI@Z
?create_from_wkt@Geometry@@SAPEAV1@PEAUGeometry_buffer@@PEAVGis_read_stream@@PEAVString@@_N@Z
?create_from_wkb@Geometry@@SAPEAV1@PEAUGeometry_buffer@@PEBDIPEAVString@@@Z
?create_from_opresult@Geometry@@SAHPEAUGeometry_buffer@@PEAVString@@AEAVGcalc_result_receiver@@@Z
?as_wkt@Geometry@@QEAA_NPEAVString@@PEAVwkb_parser@1@@Z
?set_data_ptr@Geometry@@QEAAXPEBDI@Z
?set_data_ptr@Geometry@@QEAAXPEBVwkb_container@1@@Z
?envelope@Geometry@@QEBA_NPEAVString@@@Z
?find_class@Geometry@@KAPEAVClass_info@1@H@Z
?find_class@Geometry@@KAPEAVClass_info@1@PEBDI@Z
?append_points@Geometry@@IEBAXPEAVString@@IPEAVwkb_parser@1@I@Z
?create_point@Geometry@@IEBA_NPEAVString@@PEAVwkb_parser@1@@Z
?create_point@Geometry@@IEBA_NPEAVString@@Vpoint_xy@@@Z
?get_mbr_for_points@Geometry@@IEBA_NPEAUMBR@@PEAVwkb_parser@1@I@Z
?collection_store_shapes@Geometry@@IEBAHPEAVGcalc_shape_transporter@@PEAVGcalc_shape_status@@PEAV1@@Z
?collection_area@Geometry@@IEBA_NPEANPEAVwkb_parser@1@PEAV1@@Z
?collection_init_from_opresult@Geometry@@IEAAIPEAVString@@PEBDIPEAV1@@Z
??0Gis_point@@QEAA@XZ
??1Gis_point@@UEAA@XZ
?get_data_size@Gis_point@@UEBAIXZ
?init_from_wkt@Gis_point@@UEAA_NPEAVGis_read_stream@@PEAVString@@@Z
?init_from_wkb@Gis_point@@UEAAIPEBDIW4wkbByteOrder@Geometry@@PEAVString@@@Z
?get_data_as_wkt@Gis_point@@UEBA_NPEAVString@@PEAVwkb_parser@Geometry@@@Z
?get_mbr@Gis_point@@UEBA_NPEAUMBR@@PEAVwkb_parser@Geometry@@@Z
?get_x@Gis_point@@UEBAHPEAN@Z
?get_y@Gis_point@@UEBAHPEAN@Z
?feature_dimension@Gis_point@@UEBAIXZ
?store_shapes@Gis_point@@UEBAHPEAVGcalc_shape_transporter@@PEAVGcalc_shape_status@@@Z
?get_class_info@Gis_point@@UEBAPEBVClass_info@Geometry@@XZ
??0Gis_line_string@@QEAA@XZ
??1Gis_line_string@@UEAA@XZ
?get_data_size@Gis_line_string@@UEBAIXZ
?init_from_wkt@Gis_line_string@@UEAA_NPEAVGis_read_stream@@PEAVString@@@Z
?init_from_wkb@Gis_line_string@@UEAAIPEBDIW4wkbByteOrder@Geometry@@PEAVString@@@Z
?get_data_as_wkt@Gis_line_string@@UEBA_NPEAVString@@PEAVwkb_parser@Geometry@@@Z
?get_mbr@Gis_line_string@@UEBA_NPEAUMBR@@PEAVwkb_parser@Geometry@@@Z
?geom_length@Gis_line_string@@UEBAHPEAN@Z
?is_closed@Gis_line_string@@UEBAHPEAH@Z
?num_points@Gis_line_string@@UEBAHPEAI@Z
?start_point@Gis_line_string@@UEBAHPEAVString@@@Z
?end_point@Gis_line_string@@UEBAHPEAVString@@@Z
?point_n@Gis_line_string@@UEBAHIPEAVString@@@Z
?feature_dimension@Gis_line_string@@UEBAIXZ
?store_shapes@Gis_line_string@@UEBAHPEAVGcalc_shape_transporter@@PEAVGcalc_shape_status@@@Z
?get_class_info@Gis_line_string@@UEBAPEBVClass_info@Geometry@@XZ
??0Gis_polygon@@QEAA@XZ
??1Gis_polygon@@UEAA@XZ
?get_data_size@Gis_polygon@@UEBAIXZ
?init_from_wkt@Gis_polygon@@UEAA_NPEAVGis_read_stream@@PEAVString@@@Z
?init_from_wkb@Gis_polygon@@UEAAIPEBDIW4wkbByteOrder@Geometry@@PEAVString@@@Z
?init_from_opresult@Gis_polygon@@UEAAIPEAVString@@PEBDI@Z
?get_data_as_wkt@Gis_polygon@@UEBA_NPEAVString@@PEAVwkb_parser@Geometry@@@Z
?get_mbr@Gis_polygon@@UEBA_NPEAUMBR@@PEAVwkb_parser@Geometry@@@Z
?area@Gis_polygon@@UEBA_NPEANPEAVwkb_parser@Geometry@@@Z
?exterior_ring@Gis_polygon@@UEBAHPEAVString@@@Z
?num_interior_ring@Gis_polygon@@UEBAHPEAI@Z
?interior_ring_n@Gis_polygon@@UEBAHIPEAVString@@@Z
?centroid_xy@Gis_polygon@@QEBA_NPEAVpoint_xy@@@Z
?centroid@Gis_polygon@@UEBAHPEAVString@@@Z
?feature_dimension@Gis_polygon@@UEBAIXZ
?store_shapes@Gis_polygon@@UEBAHPEAVGcalc_shape_transporter@@PEAVGcalc_shape_status@@@Z
?get_class_info@Gis_polygon@@UEBAPEBVClass_info@Geometry@@XZ
??0Gis_multi_point@@QEAA@XZ
??1Gis_multi_point@@UEAA@XZ
?get_data_size@Gis_multi_point@@UEBAIXZ
?init_from_wkt@Gis_multi_point@@UEAA_NPEAVGis_read_stream@@PEAVString@@@Z
?init_from_wkb@Gis_multi_point@@UEAAIPEBDIW4wkbByteOrder@Geometry@@PEAVString@@@Z
?init_from_opresult@Gis_multi_point@@UEAAIPEAVString@@PEBDI@Z
?get_data_as_wkt@Gis_multi_point@@UEBA_NPEAVString@@PEAVwkb_parser@Geometry@@@Z
?get_mbr@Gis_multi_point@@UEBA_NPEAUMBR@@PEAVwkb_parser@Geometry@@@Z
?num_geometries@Gis_multi_point@@UEBAHPEAI@Z
?geometry_n@Gis_multi_point@@UEBAHIPEAVString@@@Z
?feature_dimension@Gis_multi_point@@UEBAIXZ
?store_shapes@Gis_multi_point@@UEBAHPEAVGcalc_shape_transporter@@PEAVGcalc_shape_status@@@Z
?get_class_info@Gis_multi_point@@UEBAPEBVClass_info@Geometry@@XZ
??0Gis_multi_line_string@@QEAA@XZ
??1Gis_multi_line_string@@UEAA@XZ
?get_data_size@Gis_multi_line_string@@UEBAIXZ
?init_from_wkt@Gis_multi_line_string@@UEAA_NPEAVGis_read_stream@@PEAVString@@@Z
?init_from_wkb@Gis_multi_line_string@@UEAAIPEBDIW4wkbByteOrder@Geometry@@PEAVString@@@Z
?init_from_opresult@Gis_multi_line_string@@UEAAIPEAVString@@PEBDI@Z
?get_data_as_wkt@Gis_multi_line_string@@UEBA_NPEAVString@@PEAVwkb_parser@Geometry@@@Z
?get_mbr@Gis_multi_line_string@@UEBA_NPEAUMBR@@PEAVwkb_parser@Geometry@@@Z
?num_geometries@Gis_multi_line_string@@UEBAHPEAI@Z
?geometry_n@Gis_multi_line_string@@UEBAHIPEAVString@@@Z
?geom_length@Gis_multi_line_string@@UEBAHPEAN@Z
?is_closed@Gis_multi_line_string@@UEBAHPEAH@Z
?feature_dimension@Gis_multi_line_string@@UEBAIXZ
?store_shapes@Gis_multi_line_string@@UEBAHPEAVGcalc_shape_transporter@@PEAVGcalc_shape_status@@@Z
?get_class_info@Gis_multi_line_string@@UEBAPEBVClass_info@Geometry@@XZ
??0Gis_multi_polygon@@QEAA@XZ
??1Gis_multi_polygon@@UEAA@XZ
?get_data_size@Gis_multi_polygon@@UEBAIXZ
?init_from_wkt@Gis_multi_polygon@@UEAA_NPEAVGis_read_stream@@PEAVString@@@Z
?init_from_wkb@Gis_multi_polygon@@UEAAIPEBDIW4wkbByteOrder@Geometry@@PEAVString@@@Z
?get_data_as_wkt@Gis_multi_polygon@@UEBA_NPEAVString@@PEAVwkb_parser@Geometry@@@Z
?get_mbr@Gis_multi_polygon@@UEBA_NPEAUMBR@@PEAVwkb_parser@Geometry@@@Z
?num_geometries@Gis_multi_polygon@@UEBAHPEAI@Z
?geometry_n@Gis_multi_polygon@@UEBAHIPEAVString@@@Z
?area@Gis_multi_polygon@@UEBA_NPEANPEAVwkb_parser@Geometry@@@Z
?centroid@Gis_multi_polygon@@UEBAHPEAVString@@@Z
?feature_dimension@Gis_multi_polygon@@UEBAIXZ
?store_shapes@Gis_multi_polygon@@UEBAHPEAVGcalc_shape_transporter@@PEAVGcalc_shape_status@@@Z
?get_class_info@Gis_multi_polygon@@UEBAPEBVClass_info@Geometry@@XZ
?init_from_opresult@Gis_multi_polygon@@UEAAIPEAVString@@PEBDI@Z
??0Gis_geometry_collection@@QEAA@XZ
??1Gis_geometry_collection@@UEAA@XZ
?get_data_size@Gis_geometry_collection@@UEBAIXZ
?init_from_wkt@Gis_geometry_collection@@UEAA_NPEAVGis_read_stream@@PEAVString@@@Z
?init_from_wkb@Gis_geometry_collection@@UEAAIPEBDIW4wkbByteOrder@Geometry@@PEAVString@@@Z
?init_from_opresult@Gis_geometry_collection@@UEAAIPEAVString@@PEBDI@Z
?get_data_as_wkt@Gis_geometry_collection@@UEBA_NPEAVString@@PEAVwkb_parser@Geometry@@@Z
?get_mbr@Gis_geometry_collection@@UEBA_NPEAUMBR@@PEAVwkb_parser@Geometry@@@Z
?area@Gis_geometry_collection@@UEBA_NPEANPEAVwkb_parser@Geometry@@@Z
?num_geometries@Gis_geometry_collection@@UEBAHPEAI@Z
?geometry_n@Gis_geometry_collection@@UEBAHIPEAVString@@@Z
?dimension@Gis_geometry_collection@@UEBA_NPEAIPEAVwkb_parser@Geometry@@@Z
?feature_dimension@Gis_geometry_collection@@UEBAIXZ
?store_shapes@Gis_geometry_collection@@UEBAHPEAVGcalc_shape_transporter@@PEAVGcalc_shape_status@@@Z
?get_class_info@Gis_geometry_collection@@UEBAPEBVClass_info@Geometry@@XZ
?bad_geometry_data@Geometry@@2VString@@A DATA
?mark_sql_conditions_for_removal@Diagnostics_area@@QEAAXXZ
?get_error_condition@Diagnostics_area@@QEBAPEBVSql_condition@@XZ
?reset@?$Bounds_checked_array@PEAVItem@@@@QEAAXPEAPEAVItem@@_K@Z
?get_level@sp_pcontext@@QEBAHXZ
?max_var_index@sp_pcontext@@QEBAIXZ
?get_num_case_exprs@sp_pcontext@@QEBAHXZ
?max_cursor_index@sp_pcontext@@QEBAIXZ
?elements@?$Dynamic_array@Ust_mysql_lex_string@@@@QEBAHXZ
?create@sp_rcontext@@SAPEAV1@PEAVTHD@@PEBVsp_pcontext@@PEAVField@@@Z
??1sp_rcontext@@QEAA@XZ
??0sp_rcontext@@AEAA@PEBVsp_pcontext@@PEAVField@@_N@Z
??0sp_handler_entry@sp_rcontext@@QEAA@PEBVsp_handler@@I@Z
??0Sql_condition_info@sp_rcontext@@QEAA@IPEBDW4enum_warning_level@Sql_condition@@0@Z
??0Handler_call_frame@sp_rcontext@@QEAA@PEBVsp_handler@@IPEBDW4enum_warning_level@Sql_condition@@1I@Z
?set_return_value@sp_rcontext@@QEAA_NPEAVTHD@@PEAPEAVItem@@@Z
?push_handler@sp_rcontext@@QEAA_NPEAVsp_handler@@I@Z
?pop_handlers@sp_rcontext@@QEAAXPEAVsp_pcontext@@@Z
?handle_sql_condition@sp_rcontext@@QEAA_NPEAVTHD@@PEAIPEBVsp_instr@@@Z
?exit_handler@sp_rcontext@@QEAAXPEAVsp_pcontext@@@Z
?push_cursor@sp_rcontext@@QEAA_NPEAVsp_instr_cpush@@@Z
?pop_cursors@sp_rcontext@@QEAAXI@Z
?pop_all_cursors@sp_rcontext@@QEAAXXZ
?set_case_expr@sp_rcontext@@QEAA_NPEAVTHD@@HPEAPEAVItem@@@Z
?alloc_arrays@sp_rcontext@@AEAA_NPEAVTHD@@@Z
?init_var_table@sp_rcontext@@AEAA_NPEAVTHD@@@Z
?init_var_items@sp_rcontext@@AEAA_NPEAVTHD@@@Z
?create_case_expr_holder@sp_rcontext@@AEBAPEAVItem_cache@@PEAVTHD@@PEBVItem@@@Z
?set_variable@sp_rcontext@@AEAA_NPEAVTHD@@PEAVField@@PEAPEAVItem@@@Z
??0?$Dynamic_array@PEAVsp_handler_entry@sp_rcontext@@@@QEAA@II@Z
?init@?$Dynamic_array@PEAVsp_handler_entry@sp_rcontext@@@@QEAAXII@Z
?at@?$Dynamic_array@PEAVsp_handler_entry@sp_rcontext@@@@QEAAAEAPEAVsp_handler_entry@sp_rcontext@@H@Z
?append@?$Dynamic_array@PEAVsp_handler_entry@sp_rcontext@@@@QEAA_NAEBQEAVsp_handler_entry@sp_rcontext@@@Z
?pop@?$Dynamic_array@PEAVsp_handler_entry@sp_rcontext@@@@QEAAAEAPEAVsp_handler_entry@sp_rcontext@@XZ
?elements@?$Dynamic_array@PEAVsp_handler_entry@sp_rcontext@@@@QEBAHXZ
??1?$Dynamic_array@PEAVsp_handler_entry@sp_rcontext@@@@QEAA@XZ
??0?$Dynamic_array@PEAVHandler_call_frame@sp_rcontext@@@@QEAA@II@Z
?init@?$Dynamic_array@PEAVHandler_call_frame@sp_rcontext@@@@QEAAXII@Z
?at@?$Dynamic_array@PEAVHandler_call_frame@sp_rcontext@@@@QEAAAEAPEAVHandler_call_frame@sp_rcontext@@H@Z
?append@?$Dynamic_array@PEAVHandler_call_frame@sp_rcontext@@@@QEAA_NAEBQEAVHandler_call_frame@sp_rcontext@@@Z
?pop@?$Dynamic_array@PEAVHandler_call_frame@sp_rcontext@@@@QEAAAEAPEAVHandler_call_frame@sp_rcontext@@XZ
??1?$Dynamic_array@PEAVHandler_call_frame@sp_rcontext@@@@QEAA@XZ
??0?$Bounds_checked_array@PEAVsp_cursor@@@@QEAA@XZ
?reset@?$Bounds_checked_array@PEAVsp_cursor@@@@QEAAXPEAPEAVsp_cursor@@_K@Z
??A?$Bounds_checked_array@PEAVsp_cursor@@@@QEAAAEAPEAVsp_cursor@@_K@Z
?array@?$Bounds_checked_array@PEAVsp_cursor@@@@QEBAPEAPEAVsp_cursor@@XZ
??0?$Bounds_checked_array@PEAVItem_cache@@@@QEAA@XZ
?reset@?$Bounds_checked_array@PEAVItem_cache@@@@QEAAXPEAPEAVItem_cache@@_K@Z
??A?$Bounds_checked_array@PEAVItem_cache@@@@QEAAAEAPEAVItem_cache@@_K@Z
?array@?$Bounds_checked_array@PEAVItem_cache@@@@QEBAPEAPEAVItem_cache@@XZ
??0Select_fetch_into_spvars@sp_cursor@@QEAA@XZ
?get_field_count@Select_fetch_into_spvars@sp_cursor@@QEAAIXZ
?set_spvar_list@Select_fetch_into_spvars@sp_cursor@@QEAAXPEAV?$List@Vsp_variable@@@@@Z
?send_eof@Select_fetch_into_spvars@sp_cursor@@UEAA_NXZ
?send_data@Select_fetch_into_spvars@sp_cursor@@UEAA_NAEAV?$List@VItem@@@@@Z
?prepare@Select_fetch_into_spvars@sp_cursor@@UEAAHAEAV?$List@VItem@@@@PEAVst_select_lex_unit@@@Z
??1Select_fetch_into_spvars@sp_cursor@@UEAA@XZ
??0sp_cursor@@QEAA@PEAVsp_instr_cpush@@@Z
??1sp_cursor@@UEAA@XZ
?open@sp_cursor@@QEAA_NPEAVTHD@@@Z
?close@sp_cursor@@QEAA_NPEAVTHD@@@Z
?fetch@sp_cursor@@QEAA_NPEAVTHD@@PEAV?$List@Vsp_variable@@@@@Z
?destroy@sp_cursor@@AEAAXXZ
?get_parsing_ctx@sp_instr@@QEBAPEAVsp_pcontext@@XZ
??0?$List_iterator_fast@Vsp_variable@@@@QEAA@AEAV?$List@Vsp_variable@@@@@Z
??E?$List_iterator_fast@Vsp_variable@@@@QEAAPEAVsp_variable@@H@Z
?is_sqlstate_warning@@YA_NPEBD@Z
?is_sqlstate_not_found@@YA_NPEBD@Z
?is_sqlstate_exception@@YA_NPEBD@Z
??0sp_variable@@QEAA@Ust_mysql_lex_string@@W4enum_field_types@@W4enum_mode@0@I@Z
??0sp_label@@QEAA@Ust_mysql_lex_string@@IW4enum_type@0@PEAVsp_pcontext@@@Z
?equals@sp_condition_value@@QEBA_NPEBV1@@Z
??0sp_condition@@QEAA@Ust_mysql_lex_string@@PEAVsp_condition_value@@@Z
??0?$List@Vsp_condition_value@@@@QEAA@XZ
??0sp_handler@@QEAA@W4enum_type@0@PEAVsp_pcontext@@@Z
??0sp_pcontext@@QEAA@XZ
??1sp_pcontext@@QEAA@XZ
?push_context@sp_pcontext@@QEAAPEAV1@PEAVTHD@@W4enum_scope@1@@Z
?pop_context@sp_pcontext@@QEAAPEAV1@XZ
?parent_context@sp_pcontext@@QEBAPEAV1@XZ
?diff_handlers@sp_pcontext@@QEBAIPEBV1@_N@Z
?diff_cursors@sp_pcontext@@QEBAIPEBV1@_N@Z
?current_var_count@sp_pcontext@@QEBAIXZ
?add_variable@sp_pcontext@@QEAAPEAVsp_variable@@PEAVTHD@@Ust_mysql_lex_string@@W4enum_field_types@@W4enum_mode@2@@Z
?retrieve_field_definitions@sp_pcontext@@QEBAXPEAV?$List@VCreate_field@@@@@Z
?find_variable@sp_pcontext@@QEBAPEAVsp_variable@@Ust_mysql_lex_string@@_N@Z
?find_variable@sp_pcontext@@QEBAPEAVsp_variable@@I@Z
?push_label@sp_pcontext@@QEAAPEAVsp_label@@PEAVTHD@@Ust_mysql_lex_string@@I@Z
?find_label@sp_pcontext@@QEAAPEAVsp_label@@Ust_mysql_lex_string@@@Z
?add_condition@sp_pcontext@@QEAA_NPEAVTHD@@Ust_mysql_lex_string@@PEAVsp_condition_value@@@Z
?find_condition@sp_pcontext@@QEBAPEAVsp_condition_value@@Ust_mysql_lex_string@@_N@Z
?add_handler@sp_pcontext@@QEAAPEAVsp_handler@@PEAVTHD@@W4enum_type@2@@Z
?check_duplicate_handler@sp_pcontext@@QEBA_NPEBVsp_condition_value@@@Z
?find_handler@sp_pcontext@@QEBAPEAVsp_handler@@PEBDIW4enum_warning_level@Sql_condition@@@Z
?add_cursor@sp_pcontext@@QEAA_NUst_mysql_lex_string@@@Z
?find_cursor@sp_pcontext@@QEBA_NUst_mysql_lex_string@@PEAI_N@Z
?find_cursor@sp_pcontext@@QEBAPEBUst_mysql_lex_string@@I@Z
?current_cursor_count@sp_pcontext@@QEBAIXZ
??0sp_pcontext@@AEAA@PEAV0@W4enum_scope@0@@Z
?init@sp_pcontext@@AEAAXIIH@Z
??0?$Dynamic_array@PEAVsp_variable@@@@QEAA@II@Z
?init@?$Dynamic_array@PEAVsp_variable@@@@QEAAXII@Z
?at@?$Dynamic_array@PEAVsp_variable@@@@QEBAAEBQEAVsp_variable@@H@Z
?append@?$Dynamic_array@PEAVsp_variable@@@@QEAA_NAEBQEAVsp_variable@@@Z
??1?$Dynamic_array@PEAVsp_variable@@@@QEAA@XZ
??0?$Dynamic_array@H@@QEAA@II@Z
?init@?$Dynamic_array@H@@QEAAXII@Z
??1?$Dynamic_array@H@@QEAA@XZ
??0?$Dynamic_array@PEAVsp_condition@@@@QEAA@II@Z
?init@?$Dynamic_array@PEAVsp_condition@@@@QEAAXII@Z
?at@?$Dynamic_array@PEAVsp_condition@@@@QEBAAEBQEAVsp_condition@@H@Z
?append@?$Dynamic_array@PEAVsp_condition@@@@QEAA_NAEBQEAVsp_condition@@@Z
?elements@?$Dynamic_array@PEAVsp_condition@@@@QEBAHXZ
??1?$Dynamic_array@PEAVsp_condition@@@@QEAA@XZ
??0?$Dynamic_array@Ust_mysql_lex_string@@@@QEAA@II@Z
?init@?$Dynamic_array@Ust_mysql_lex_string@@@@QEAAXII@Z
?at@?$Dynamic_array@Ust_mysql_lex_string@@@@QEBAAEBUst_mysql_lex_string@@H@Z
?append@?$Dynamic_array@Ust_mysql_lex_string@@@@QEAA_NAEBUst_mysql_lex_string@@@Z
??1?$Dynamic_array@Ust_mysql_lex_string@@@@QEAA@XZ
??0?$Dynamic_array@PEAVsp_handler@@@@QEAA@II@Z
?init@?$Dynamic_array@PEAVsp_handler@@@@QEAAXII@Z
?at@?$Dynamic_array@PEAVsp_handler@@@@QEBAAEBQEAVsp_handler@@H@Z
?append@?$Dynamic_array@PEAVsp_handler@@@@QEAA_NAEBQEAVsp_handler@@@Z
?elements@?$Dynamic_array@PEAVsp_handler@@@@QEBAHXZ
??1?$Dynamic_array@PEAVsp_handler@@@@QEAA@XZ
??0?$List@Vsp_label@@@@QEAA@XZ
?push_front@?$List@Vsp_label@@@@QEAA_NPEAVsp_label@@@Z
??1?$List@Vsp_label@@@@QEAA@XZ
??0?$Dynamic_array@PEAVsp_pcontext@@@@QEAA@II@Z
?init@?$Dynamic_array@PEAVsp_pcontext@@@@QEAAXII@Z
?at@?$Dynamic_array@PEAVsp_pcontext@@@@QEAAAEAPEAVsp_pcontext@@H@Z
?at@?$Dynamic_array@PEAVsp_pcontext@@@@QEBAAEBQEAVsp_pcontext@@H@Z
?append@?$Dynamic_array@PEAVsp_pcontext@@@@QEAA_NAEBQEAVsp_pcontext@@@Z
?elements@?$Dynamic_array@PEAVsp_pcontext@@@@QEBAHXZ
??1?$Dynamic_array@PEAVsp_pcontext@@@@QEAA@XZ
??0?$List_iterator_fast@Vsp_label@@@@QEAA@AEAV?$List@Vsp_label@@@@@Z
??E?$List_iterator_fast@Vsp_label@@@@QEAAPEAVsp_label@@H@Z
??0?$List_iterator_fast@Vsp_condition_value@@@@QEAA@AEAV?$List@Vsp_condition_value@@@@@Z
??E?$List_iterator_fast@Vsp_condition_value@@@@QEAAPEAVsp_condition_value@@H@Z
?append@String@@QEAA_NVSimple_cstring@@@Z
?id@Warning_info@@AEBA_KXZ
?warning_info_id@Diagnostics_area@@QEBA_KXZ
?remove_marked_sql_conditions@Diagnostics_area@@QEAAXXZ
??0Settable_routine_parameter@@QEAA@XZ
??1Settable_routine_parameter@@UEAA@XZ
?set_required_privilege@Settable_routine_parameter@@UEAAX_N@Z
?set_out_param_info@Settable_routine_parameter@@UEAAXPEAVSend_field@@@Z
?get_out_param_info@Settable_routine_parameter@@UEBAPEBVSend_field@@XZ
?result_type@Item_field@@UEBA?AW4Item_result@@XZ
?numeric_context_result_type@Item_field@@UEBA?AW4Item_result@@XZ
?cast_to_int_type@Item_field@@UEBA?AW4Item_result@@XZ
?field_type@Item_field@@UEBA?AW4enum_field_types@@XZ
?get_monotonicity_info@Item_field@@UEBA?AW4monotonicity_info@@XZ
?tmp_table_field@Item_field@@UEAAPEAVField@@PEAUTABLE@@@Z
?is_null@Item_field@@UEAA_NXZ
?check_partition_func_processor@Item_field@@UEAA_NPEAE@Z
?field_for_view_update@Item_field@@UEAAPEAV1@XZ
?is_outer_field@Item_field@@UEBA_NXZ
?get_geometry_type@Item_field@@UEBA?AW4geometry_type@Field@@XZ
?charset_for_protocol@Item_field@@UEBAPEBUcharset_info_st@@XZ
??1Item_field@@UEAA@XZ
??0Item_trigger_field@@QEAA@PEAUName_resolution_context@@W4row_version_type@0@PEBDK_N@Z
?type@Item_trigger_field@@UEBA?AW4Type@Item@@XZ
?used_tables@Item_trigger_field@@UEBA_KXZ
?get_tmp_table_field@Item_trigger_field@@UEAAPEAVField@@XZ
?copy_or_same@Item_trigger_field@@UEAAPEAVItem@@PEAVTHD@@@Z
?get_tmp_table_item@Item_trigger_field@@UEAAPEAVItem@@PEAVTHD@@@Z
?get_settable_routine_parameter@Item_trigger_field@@UEAAPEAVSettable_routine_parameter@@XZ
?set_value@Item_trigger_field@@QEAA_NPEAVTHD@@PEAPEAVItem@@@Z
??1Item_trigger_field@@UEAA@XZ
?set_current_stmt_start_ptr@sp_parser_data@@QEAAXPEBD@Z
?empty@?$SQL_I_List@VItem_trigger_field@@@@QEAAXXZ
?link_in_list@?$SQL_I_List@VItem_trigger_field@@@@QEAAXPEAVItem_trigger_field@@PEAPEAV2@@Z
?save_and_clear@?$SQL_I_List@VItem_trigger_field@@@@QEAAXPEAV1@@Z
?get_instr@sp_head@@QEAAPEAVsp_instr@@I@Z
?at@?$Dynamic_array@PEAVsp_instr@@@@QEAAAEAPEAVsp_instr@@H@Z
?elements@?$Dynamic_array@PEAVsp_instr@@@@QEBAHXZ
?get_ip@sp_instr@@QEBAIXZ
?validate_lex_and_execute_core@sp_lex_instr@@QEAA_NPEAVTHD@@PEAI_N@Z
?reset_lex_and_exec_core@sp_lex_instr@@AEAA_NPEAVTHD@@PEAI_N@Z
?parse_expr@sp_lex_instr@@AEAAPEAULEX@@PEAVTHD@@PEAVsp_head@@@Z
?set_lex@sp_lex_instr@@AEAAXPEAULEX@@_N@Z
?free_lex@sp_lex_instr@@AEAAXXZ
?get_query@sp_lex_instr@@MEBAXPEAVString@@@Z
?cleanup_before_parsing@sp_lex_instr@@MEAAXPEAVTHD@@@Z
?execute@sp_instr_stmt@@UEAA_NPEAVTHD@@PEAI@Z
?print@sp_instr_stmt@@UEAAXPEAVString@@@Z
?exec_core@sp_instr_stmt@@UEAA_NPEAVTHD@@PEAI@Z
?print@sp_instr_set@@UEAAXPEAVString@@@Z
?exec_core@sp_instr_set@@UEAA_NPEAVTHD@@PEAI@Z
?print@sp_instr_set_trigger_field@@UEAAXPEAVString@@@Z
?exec_core@sp_instr_set_trigger_field@@UEAA_NPEAVTHD@@PEAI@Z
?on_after_expr_parsing@sp_instr_set_trigger_field@@UEAA_NPEAVTHD@@@Z
?cleanup_before_parsing@sp_instr_set_trigger_field@@UEAAXPEAVTHD@@@Z
?print@sp_instr_freturn@@UEAAXPEAVString@@@Z
?exec_core@sp_instr_freturn@@UEAA_NPEAVTHD@@PEAI@Z
?print@sp_instr_jump@@UEAAXPEAVString@@@Z
?opt_mark@sp_instr_jump@@UEAAIPEAVsp_head@@PEAV?$List@Vsp_instr@@@@@Z
?opt_shortcut_jump@sp_instr_jump@@UEAAIPEAVsp_head@@PEAVsp_instr@@@Z
?opt_move@sp_instr_jump@@UEAAXIPEAV?$List@Vsp_branch_instr@@@@@Z
?opt_mark@sp_lex_branch_instr@@UEAAIPEAVsp_head@@PEAV?$List@Vsp_instr@@@@@Z
?opt_move@sp_lex_branch_instr@@UEAAXIPEAV?$List@Vsp_branch_instr@@@@@Z
?print@sp_instr_jump_if_not@@UEAAXPEAVString@@@Z
?exec_core@sp_instr_jump_if_not@@UEAA_NPEAVTHD@@PEAI@Z
?print@sp_instr_set_case_expr@@UEAAXPEAVString@@@Z
?opt_mark@sp_instr_set_case_expr@@UEAAIPEAVsp_head@@PEAV?$List@Vsp_instr@@@@@Z
?opt_move@sp_instr_set_case_expr@@UEAAXIPEAV?$List@Vsp_branch_instr@@@@@Z
?exec_core@sp_instr_set_case_expr@@UEAA_NPEAVTHD@@PEAI@Z
?print@sp_instr_jump_case_when@@UEAAXPEAVString@@@Z
?exec_core@sp_instr_jump_case_when@@UEAA_NPEAVTHD@@PEAI@Z
?build_expr_items@sp_instr_jump_case_when@@AEAA_NPEAVTHD@@@Z
?print@sp_instr_hpush_jump@@UEAAXPEAVString@@@Z
?execute@sp_instr_hpush_jump@@UEAA_NPEAVTHD@@PEAI@Z
?opt_mark@sp_instr_hpush_jump@@UEAAIPEAVsp_head@@PEAV?$List@Vsp_instr@@@@@Z
?execute@sp_instr_hpop@@UEAA_NPEAVTHD@@PEAI@Z
?print@sp_instr_hreturn@@UEAAXPEAVString@@@Z
?execute@sp_instr_hreturn@@UEAA_NPEAVTHD@@PEAI@Z
?opt_mark@sp_instr_hreturn@@UEAAIPEAVsp_head@@PEAV?$List@Vsp_instr@@@@@Z
?print@sp_instr_cpush@@UEAAXPEAVString@@@Z
?execute@sp_instr_cpush@@UEAA_NPEAVTHD@@PEAI@Z
?exec_core@sp_instr_cpush@@UEAA_NPEAVTHD@@PEAI@Z
?print@sp_instr_cpop@@UEAAXPEAVString@@@Z
?execute@sp_instr_cpop@@UEAA_NPEAVTHD@@PEAI@Z
?print@sp_instr_copen@@UEAAXPEAVString@@@Z
?execute@sp_instr_copen@@UEAA_NPEAVTHD@@PEAI@Z
?print@sp_instr_cclose@@UEAAXPEAVString@@@Z
?execute@sp_instr_cclose@@UEAA_NPEAVTHD@@PEAI@Z
?print@sp_instr_cfetch@@UEAAXPEAVString@@@Z
?execute@sp_instr_cfetch@@UEAA_NPEAVTHD@@PEAI@Z
?print@sp_instr_error@@UEAAXPEAVString@@@Z
?get_last_handler_continue_ip@sp_rcontext@@QEBAIXZ
?get_cursor@sp_rcontext@@QEBAPEAVsp_cursor@@I@Z
?get_case_expr@sp_rcontext@@QEBAPEAVItem@@H@Z
??A?$Bounds_checked_array@PEAVsp_cursor@@@@QEBAAEBQEAVsp_cursor@@_K@Z
??A?$Bounds_checked_array@PEAVItem_cache@@@@QEBAAEBQEAVItem_cache@@_K@Z
?get_push_instr@sp_cursor@@QEAAPEAVsp_instr_cpush@@XZ
??0?$Dynamic_array@PEAVItem_splocal@@@@QEAA@II@Z
?init@?$Dynamic_array@PEAVItem_splocal@@@@QEAAXII@Z
?front@?$Dynamic_array@PEAVItem_splocal@@@@QEAAPEAPEAVItem_splocal@@XZ
?back@?$Dynamic_array@PEAVItem_splocal@@@@QEAAPEAPEAVItem_splocal@@XZ
?append@?$Dynamic_array@PEAVItem_splocal@@@@QEAA_NAEBQEAVItem_splocal@@@Z
?elements@?$Dynamic_array@PEAVItem_splocal@@@@QEBAHXZ
??1?$Dynamic_array@PEAVItem_splocal@@@@QEAA@XZ
?sort@?$Dynamic_array@PEAVItem_splocal@@@@QEAAXP6AHPEBQEAVItem_splocal@@0@Z@Z
?push_back@?$List@Vsp_branch_instr@@@@QEAA_NPEAVsp_branch_instr@@@Z
?db_name_length@MDL_key@@QEBAIXZ
?name_length@MDL_key@@QEBAIXZ
?warning_info_changed@Diagnostics_area@@QEBA_NPEBVWarning_info@@@Z
?copy_sql_conditions_to_wi@Diagnostics_area@@QEBAXPEAVTHD@@PEAVWarning_info@@@Z
?copy_sql_conditions_from_wi@Diagnostics_area@@QEAAXPEAVTHD@@PEBVWarning_info@@@Z
??1Create_field@@QEAA@XZ
?store@Protocol@@QEAA_N_J@Z
??A?$Bounds_checked_array@PEAVItem@@@@QEBAAEBQEAVItem@@_K@Z
?get_body_utf8_str@Lex_input_stream@@QEAAPEBDXZ
?get_body_utf8_length@Lex_input_stream@@QEAAIXZ
?get_sp_current_parsing_ctx@LEX@@QEAAPEAVsp_pcontext@@XZ
?reset_before_substatement@Yacc_state@@QEAAXXZ
??0sp_name@@QEAA@PEBVMDL_key@@PEAD@Z
?init_qname@sp_name@@QEAAXPEAVTHD@@@Z
??0sp_parser_data@@QEAA@XZ
?start_parsing_sp_body@sp_parser_data@@QEAAXPEAVTHD@@PEAVsp_head@@@Z
?process_new_sp_instr@sp_parser_data@@QEAAXPEAVTHD@@PEAVsp_instr@@@Z
?get_parameter_start_ptr@sp_parser_data@@QEBAPEBDXZ
?get_parameter_end_ptr@sp_parser_data@@QEBAPEBDXZ
?get_body_start_ptr@sp_parser_data@@QEBAPEBDXZ
?set_body_start_ptr@sp_parser_data@@QEAAXPEBD@Z
?push_lex@sp_parser_data@@QEAAXPEAULEX@@@Z
?pop_lex@sp_parser_data@@QEAAPEAULEX@@XZ
?add_backpatch_entry@sp_parser_data@@QEAA_NPEAVsp_branch_instr@@PEAVsp_label@@@Z
?do_backpatch@sp_parser_data@@QEAAXPEAVsp_label@@I@Z
?add_cont_backpatch_entry@sp_parser_data@@QEAA_NPEAVsp_lex_branch_instr@@@Z
?do_cont_backpatch@sp_parser_data@@QEAAXI@Z
??0?$List@ULEX@@@@QEAA@XZ
?push_front@?$List@ULEX@@@@QEAA_NPEAULEX@@@Z
?pop@?$List@ULEX@@@@QEAAPEAULEX@@XZ
??1?$List@ULEX@@@@QEAA@XZ
??0?$List@UBackpatch_info@sp_parser_data@@@@QEAA@XZ
?push_front@?$List@UBackpatch_info@sp_parser_data@@@@QEAA_NPEAUBackpatch_info@sp_parser_data@@@Z
??1?$List@UBackpatch_info@sp_parser_data@@@@QEAA@XZ
??0?$List@Vsp_lex_branch_instr@@@@QEAA@XZ
?push_front@?$List@Vsp_lex_branch_instr@@@@QEAA_NPEAVsp_lex_branch_instr@@@Z
?head@?$List@Vsp_lex_branch_instr@@@@QEAAPEAVsp_lex_branch_instr@@XZ
?pop@?$List@Vsp_lex_branch_instr@@@@QEAAPEAVsp_lex_branch_instr@@XZ
??1?$List@Vsp_lex_branch_instr@@@@QEAA@XZ
??1sp_parser_data@@QEAA@XZ
??0?$SQL_I_List@V?$SQL_I_List@VItem_trigger_field@@@@@@QEAA@XZ
?empty@?$SQL_I_List@V?$SQL_I_List@VItem_trigger_field@@@@@@QEAAXXZ
?link_in_list@?$SQL_I_List@V?$SQL_I_List@VItem_trigger_field@@@@@@QEAAXPEAV?$SQL_I_List@VItem_trigger_field@@@@PEAPEAV2@@Z
??1?$SQL_I_List@V?$SQL_I_List@VItem_trigger_field@@@@@@QEAA@XZ
??0?$SQL_I_List@VItem_trigger_field@@@@QEAA@XZ
??1?$SQL_I_List@VItem_trigger_field@@@@QEAA@XZ
??2sp_head@@SAPEAX_K@Z
??3sp_head@@SAXPEAX_K@Z
??1sp_head@@UEAA@XZ
?set_body_start@sp_head@@QEAAXPEAVTHD@@PEBD@Z
?set_body_end@sp_head@@QEAAXPEAVTHD@@@Z
?execute_trigger@sp_head@@QEAA_NPEAVTHD@@PEBUst_mysql_lex_string@@1PEAUst_grant_info@@@Z
?execute_function@sp_head@@QEAA_NPEAVTHD@@PEAPEAVItem@@IPEAVField@@@Z
?execute_procedure@sp_head@@QEAA_NPEAVTHD@@PEAV?$List@VItem@@@@@Z
?show_create_routine@sp_head@@QEAA_NPEAVTHD@@W4enum_sp_type@@@Z
?add_instr@sp_head@@QEAA_NPEAVTHD@@PEAVsp_instr@@@Z
?reset_lex@sp_head@@QEAA_NPEAVTHD@@@Z
?restore_lex@sp_head@@QEAA_NPEAVTHD@@@Z
?create_result_field@sp_head@@QEAAPEAVField@@IPEBDPEAUTABLE@@@Z
?set_info@sp_head@@QEAAX_J0PEAUst_sp_chistics@@_K@Z
?set_definer@sp_head@@QEAAXPEBDI@Z
?set_definer@sp_head@@QEAAXPEBUst_mysql_lex_string@@0@Z
?optimize@sp_head@@QEAAXXZ
?add_mark_lead@sp_head@@QEAAXIPEAV?$List@Vsp_instr@@@@@Z
?add_used_tables_to_table_list@sp_head@@QEAA_NPEAVTHD@@PEAPEAPEAUTABLE_LIST@@PEAU3@@Z
?show_routine_code@sp_head@@QEAA_NPEAVTHD@@@Z
?get_persistent_mem_root@sp_head@@QEBAPEAUst_mem_root@@XZ
?check_show_access@sp_head@@QEAA_NPEAVTHD@@PEA_N@Z
?set_security_ctx@sp_head@@QEAA_NPEAVTHD@@PEAPEAVSecurity_context@@@Z
??0sp_head@@AEAA@W4enum_sp_type@@@Z
??0?$Dynamic_array@PEAVsp_instr@@@@QEAA@II@Z
?init@?$Dynamic_array@PEAVsp_instr@@@@QEAAXII@Z
?append@?$Dynamic_array@PEAVsp_instr@@@@QEAA_NAEBQEAVsp_instr@@@Z
?elements@?$Dynamic_array@PEAVsp_instr@@@@QEAAXI@Z
?set@?$Dynamic_array@PEAVsp_instr@@@@QEAAXIAEBQEAVsp_instr@@@Z
??1?$Dynamic_array@PEAVsp_instr@@@@QEAA@XZ
?init_sp_name@sp_head@@AEAAXPEAVTHD@@PEAVsp_name@@@Z
?execute@sp_head@@AEAA_NPEAVTHD@@_N@Z
?opt_mark@sp_head@@AEAAXXZ
?merge_table_list@sp_head@@AEAA_NPEAVTHD@@PEAUTABLE_LIST@@PEAULEX@@@Z
?opt_is_marked@sp_instr@@QEBA_NXZ
?set_cont_dest@sp_lex_branch_instr@@QEAAXI@Z
?get_item@sp_rcontext@@QEBAPEAVItem@@I@Z
?get_item_addr@sp_rcontext@@QEBAPEAPEAVItem@@I@Z
?is_return_value_set@sp_rcontext@@QEBA_NXZ
?sp_table_key@@YAPEAEPEBEPEA_KD@Z
??0?$List@Vsp_branch_instr@@@@QEAA@XZ
??1?$List@Vsp_branch_instr@@@@QEAA@XZ
??0?$List_iterator_fast@Vsp_branch_instr@@@@QEAA@AEAV?$List@Vsp_branch_instr@@@@@Z
??E?$List_iterator_fast@Vsp_branch_instr@@@@QEAAPEAVsp_branch_instr@@H@Z
??0?$List@Vsp_instr@@@@QEAA@XZ
?push_front@?$List@Vsp_instr@@@@QEAA_NPEAVsp_instr@@@Z
?pop@?$List@Vsp_instr@@@@QEAAPEAVsp_instr@@XZ
??1?$List@Vsp_instr@@@@QEAA@XZ
??0?$List_iterator_fast@UBackpatch_info@sp_parser_data@@@@QEAA@AEAV?$List@UBackpatch_info@sp_parser_data@@@@@Z
??E?$List_iterator_fast@UBackpatch_info@sp_parser_data@@@@QEAAPEAUBackpatch_info@sp_parser_data@@H@Z
?sp_cache_init@@YAXXZ
?sp_cache_clear@@YAXPEAPEAVsp_cache@@@Z
?sp_cache_insert@@YAXPEAPEAVsp_cache@@PEAVsp_head@@@Z
?sp_cache_lookup@@YAPEAVsp_head@@PEAPEAVsp_cache@@PEAVsp_name@@@Z
?sp_cache_invalidate@@YAXXZ
?sp_cache_flush_obsolete@@YAXPEAPEAVsp_cache@@PEAPEAVsp_head@@@Z
?sp_cache_version@@YAKXZ
?sp_cache_enforce_limit@@YAXPEAVsp_cache@@K@Z
?set_sp_cache_version@sp_head@@QEAAXK@Z
??0sp_cache@@QEAA@XZ
??1sp_cache@@QEAA@XZ
?insert@sp_cache@@QEAA_NPEAVsp_head@@@Z
?lookup@sp_cache@@QEAAPEAVsp_head@@PEADI@Z
?remove@sp_cache@@QEAAXPEAVsp_head@@@Z
?enforce_limit@sp_cache@@QEAAXK@Z
?init@sp_cache@@AEAAXXZ
?cleanup@sp_cache@@AEAAXXZ
hash_get_key_for_sp_head
hash_free_sp_head
?link_in_list@?$SQL_I_List@VSroutine_hash_entry@@@@QEAAXPEAVSroutine_hash_entry@@PEAPEAV2@@Z
?set_unsafe_rollback_flags@THD_TRANS@@QEAAXI@Z
??0sp_name@@QEAA@Ust_mysql_lex_string@@0_N@Z
??1sp_name@@QEAA@XZ
?sp_start_parsing@@YAPEAVsp_head@@PEAVTHD@@W4enum_sp_type@@PEAVsp_name@@@Z
?sp_drop_db_routines@@YAHPEAVTHD@@PEAD@Z
?lock_db_routines@@YA_NPEAVTHD@@PEAD@Z
?sp_find_routine@@YAPEAVsp_head@@PEAVTHD@@W4enum_sp_type@@PEAVsp_name@@PEAPEAVsp_cache@@_N@Z
?sp_cache_routine@@YAHPEAVTHD@@PEAVSroutine_hash_entry@@_NPEAPEAVsp_head@@@Z
?sp_cache_routine@@YAHPEAVTHD@@W4enum_sp_type@@PEAVsp_name@@_NPEAPEAVsp_head@@@Z
?sp_exist_routines@@YA_NPEAVTHD@@PEAUTABLE_LIST@@_N@Z
?sp_show_create_routine@@YA_NPEAVTHD@@W4enum_sp_type@@PEAVsp_name@@@Z
?sp_create_routine@@YAHPEAVTHD@@PEAVsp_head@@@Z
?sp_update_routine@@YAHPEAVTHD@@W4enum_sp_type@@PEAVsp_name@@PEAUst_sp_chistics@@@Z
?sp_drop_routine@@YAHPEAVTHD@@W4enum_sp_type@@PEAVsp_name@@@Z
?sp_add_used_routine@@YAXPEAVQuery_tables_list@@PEAVQuery_arena@@PEAVsp_name@@W4enum_sp_type@@@Z
?sp_add_used_routine@@YA_NPEAVQuery_tables_list@@PEAVQuery_arena@@PEBVMDL_key@@PEAUTABLE_LIST@@@Z
?sp_remove_not_own_routines@@YAXPEAVQuery_tables_list@@@Z
?sp_update_stmt_used_routines@@YAXPEAVTHD@@PEAVQuery_tables_list@@PEAUst_hash@@PEAUTABLE_LIST@@@Z
?sp_update_stmt_used_routines@@YAXPEAVTHD@@PEAVQuery_tables_list@@PEAV?$SQL_I_List@VSroutine_hash_entry@@@@PEAUTABLE_LIST@@@Z
sp_sroutine_key
?open_proc_table_for_read@@YAPEAUTABLE@@PEAVTHD@@PEAVOpen_tables_backup@@@Z
?sp_load_for_information_schema@@YAPEAVsp_head@@PEAVTHD@@PEAUTABLE@@PEAVString@@2_KW4enum_sp_type@@PEBD5PEA_N@Z
?load_charset@@YA_NPEAUst_mem_root@@PEAVField@@PEBUcharset_info_st@@PEAPEBU3@@Z
?load_collation@@YA_NPEAUst_mem_root@@PEAVField@@PEBUcharset_info_st@@PEAPEBU3@@Z
?sp_finish_parsing@@YAXPEAVTHD@@@Z
?sp_map_result_type@@YA?AW4Item_result@@W4enum_field_types@@@Z
?sp_map_item_type@@YA?AW4Type@Item@@W4enum_field_types@@@Z
?sp_get_flags_for_command@@YAIPEAULEX@@@Z
?sp_check_name@@YA_NPEAUst_mysql_lex_string@@@Z
?sp_add_to_query_tables@@YAPEAUTABLE_LIST@@PEAVTHD@@PEAULEX@@PEBD2W4thr_lock_type@@W4enum_mdl_type@@@Z
?sp_prepare_func_item@@YAPEAVItem@@PEAVTHD@@PEAPEAV1@@Z
?sp_eval_expr@@YA_NPEAVTHD@@PEAVField@@PEAPEAVItem@@@Z
?sp_get_item_value@@YAPEAVString@@PEAVTHD@@PEAVItem@@PEAV1@@Z
?load_from_db@Stored_routine_creation_ctx@@SAPEAV1@PEAVTHD@@PEBVsp_name@@PEAUTABLE@@@Z
?clone@Stored_routine_creation_ctx@@UEAAPEAVStored_program_creation_ctx@@PEAUst_mem_root@@@Z
?create_backup_ctx@Stored_routine_creation_ctx@@MEBAPEAVObject_creation_ctx@@PEAVTHD@@@Z
??0Stored_routine_creation_ctx@@AEAA@PEAVTHD@@@Z
??0Stored_routine_creation_ctx@@AEAA@PEBUcharset_info_st@@00@Z
??1Stored_routine_creation_ctx@@UEAA@XZ
??0Proc_table_intact@@QEAA@XZ
?report_error@Proc_table_intact@@MEAAXIPEBDZZ
??1Proc_table_intact@@UEAA@XZ
?handle_condition@Silence_deprecated_warning@@UEAA_NPEAVTHD@@IPEBDW4enum_warning_level@Sql_condition@@1PEAPEAV4@@Z
??0Silence_deprecated_warning@@QEAA@XZ
??1Silence_deprecated_warning@@UEAA@XZ
??0Bad_db_error_handler@@QEAA@XZ
?handle_condition@Bad_db_error_handler@@UEAA_NPEAVTHD@@IPEBDW4enum_warning_level@Sql_condition@@1PEAPEAV4@@Z
?error_caught@Bad_db_error_handler@@QEBA_NXZ
??1Bad_db_error_handler@@UEAA@XZ
?handle_condition@Lock_db_routines_error_handler@@UEAA_NPEAVTHD@@IPEBDW4enum_warning_level@Sql_condition@@1PEAPEAV4@@Z
??0Lock_db_routines_error_handler@@QEAA@XZ
??1Lock_db_routines_error_handler@@UEAA@XZ
handle_fatal_signal
?all_sys_vars@@3Usys_var_chain@@A DATA
?mysql_add_sys_var_chain@@YAHPEAVsys_var@@@Z
?mysql_del_sys_var_chain@@YAHPEAVsys_var@@@Z
??0sys_var@@QEAA@PEAUsys_var_chain@@PEBD1H_JHW4get_opt_arg_type@@W4enum_mysql_show_type@@2PEAVPolyLock@@W4binlog_status_enum@0@P6A_NPEAV0@PEAVTHD@@PEAVset_var@@@ZP6A_N78W4enum_var_type@@@Z1H@Z
?check@sys_var@@QEAA_NPEAVTHD@@PEAVset_var@@@Z
?value_ptr@sys_var@@QEAAPEAEPEAVTHD@@W4enum_var_type@@PEAUst_mysql_lex_string@@@Z
?set_default@sys_var@@QEAA_NPEAVTHD@@PEAVset_var@@@Z
?update@sys_var@@QEAA_NPEAVTHD@@PEAVset_var@@@Z
?charset@sys_var@@QEAAPEBUcharset_info_st@@PEAVTHD@@@Z
?not_visible@sys_var@@QEBA_NXZ
?check_type@sys_var@@QEAA_NW4enum_var_type@@@Z
?register_option@sys_var@@QEAA_NPEAV?$vector@Umy_option@@V?$allocator@Umy_option@@@std@@@std@@H@Z
?do_deprecated_warning@sys_var@@QEAAXPEAVTHD@@@Z
?session_value_ptr@sys_var@@MEAAPEAEPEAVTHD@@PEAUst_mysql_lex_string@@@Z
?global_value_ptr@sys_var@@MEAAPEAEPEAVTHD@@PEAUst_mysql_lex_string@@@Z
?check@set_var@@UEAAHPEAVTHD@@@Z
?update@set_var@@UEAAHPEAVTHD@@@Z
?light_check@set_var@@UEAAHPEAVTHD@@@Z
?print@set_var@@UEAAXPEAVTHD@@PEAVString@@@Z
?check@set_var_user@@UEAAHPEAVTHD@@@Z
?update@set_var_user@@UEAAHPEAVTHD@@@Z
?light_check@set_var_user@@UEAAHPEAVTHD@@@Z
?print@set_var_user@@UEAAXPEAVTHD@@PEAVString@@@Z
?check@set_var_password@@UEAAHPEAVTHD@@@Z
?update@set_var_password@@UEAAHPEAVTHD@@@Z
?print@set_var_password@@UEAAXPEAVTHD@@PEAVString@@@Z
?check@set_var_collation_client@@UEAAHPEAVTHD@@@Z
?update@set_var_collation_client@@UEAAHPEAVTHD@@@Z
?print@set_var_collation_client@@UEAAXPEAVTHD@@PEAVString@@@Z
?enumerate_sys_vars@@YAPEAUst_mysql_show_var@@PEAVTHD@@_NW4enum_var_type@@@Z
?sql_set_variables@@YAHPEAVTHD@@PEAV?$List@Vset_var_base@@@@@Z
?get_old_charset_by_name@@YAPEBUcharset_info_st@@PEBD@Z
?sys_var_init@@YAHXZ
?sys_var_add_options@@YAHPEAV?$vector@Umy_option@@V?$allocator@Umy_option@@@std@@@std@@H@Z
?sys_var_end@@YAXXZ
?throw_bounds_warning@@YA_NPEAVTHD@@PEBD_N2_J@Z
?throw_bounds_warning@@YA_NPEAVTHD@@PEBD_NN@Z
?intern_find_sys_var@@YAPEAVsys_var@@PEBDI@Z
??0AutoWLock@@QEAA@PEAVPolyLock@@@Z
??1AutoWLock@@QEAA@XZ
??0AutoRLock@@QEAA@PEAVPolyLock@@@Z
??1AutoRLock@@QEAA@XZ
?rewind@?$List_iterator_fast@Vset_var_base@@@@QEAAXXZ
?thread_scheduler@@3PEAUscheduler_functions@@EA DATA
my_thread_scheduler_set
my_thread_scheduler_reset
?one_thread_per_connection_scheduler@@YAXXZ
?one_thread_scheduler@@YAXXZ
??0thd_scheduler@@QEAA@XZ
??1thd_scheduler@@QEAA@XZ
?transaction_delegate@@3PEAVTrans_delegate@@EA DATA
?binlog_storage_delegate@@3PEAVBinlog_storage_delegate@@EA DATA
?binlog_transmit_delegate@@3PEAVBinlog_transmit_delegate@@EA DATA
?binlog_relay_io_delegate@@3PEAVBinlog_relay_IO_delegate@@EA DATA
?get_trans_fixed_pos@THD@@QEBAXPEAPEBDPEA_K@Z
?get_user@Master_info@@QEBAPEBDXZ
?get_master_log_name@Master_info@@QEAAPEBDXZ
?get_master_log_pos@Master_info@@QEAA_KXZ
?should_observe@Binlog_transmit_param@@QEAA_NXZ
register_trans_observer
unregister_trans_observer
register_binlog_storage_observer
unregister_binlog_storage_observer
register_binlog_transmit_observer
unregister_binlog_transmit_observer
register_binlog_relay_io_observer
unregister_binlog_relay_io_observer
get_user_var_int
get_user_var_real
??0Observer_info@@QEAA@PEAXPEAUst_plugin_int@@@Z
?add_observer@Delegate@@QEAAHPEAXPEAUst_plugin_int@@@Z
?remove_observer@Delegate@@QEAAHPEAXPEAUst_plugin_int@@@Z
?observer_info_iter@Delegate@@QEAA?AV?$List_iterator@VObserver_info@@@@XZ
?read_lock@Delegate@@QEAAHXZ
?write_lock@Delegate@@QEAAHXZ
?unlock@Delegate@@QEAAHXZ
?is_inited@Delegate@@QEAA_NXZ
??0Delegate@@QEAA@I@Z
??1Delegate@@QEAA@XZ
??0?$List@VObserver_info@@@@QEAA@XZ
?push_back@?$List@VObserver_info@@@@QEAA_NPEAVObserver_info@@PEAUst_mem_root@@@Z
??1?$List@VObserver_info@@@@QEAA@XZ
??0?$List_iterator@VObserver_info@@@@QEAA@AEAV?$List@VObserver_info@@@@@Z
??E?$List_iterator@VObserver_info@@@@QEAAPEAVObserver_info@@H@Z
?remove@?$List_iterator@VObserver_info@@@@QEAAXXZ
??0Trans_delegate@@QEAA@XZ
?after_commit@Trans_delegate@@QEAAHPEAVTHD@@_N@Z
?after_rollback@Trans_delegate@@QEAAHPEAVTHD@@_N@Z
??1Trans_delegate@@QEAA@XZ
??0Binlog_storage_delegate@@QEAA@XZ
?after_flush@Binlog_storage_delegate@@QEAAHPEAVTHD@@PEBD_K@Z
??1Binlog_storage_delegate@@QEAA@XZ
??0Binlog_transmit_delegate@@QEAA@XZ
?transmit_start@Binlog_transmit_delegate@@QEAAHPEAVTHD@@GPEBD_KPEA_N@Z
?transmit_stop@Binlog_transmit_delegate@@QEAAHPEAVTHD@@G@Z
?reserve_header@Binlog_transmit_delegate@@QEAAHPEAVTHD@@GPEAVString@@@Z
?before_send_event@Binlog_transmit_delegate@@QEAAHPEAVTHD@@GPEAVString@@PEBD_K@Z
?after_send_event@Binlog_transmit_delegate@@QEAAHPEAVTHD@@GPEAVString@@PEBD_K@Z
?after_reset_master@Binlog_transmit_delegate@@QEAAHPEAVTHD@@G@Z
??1Binlog_transmit_delegate@@QEAA@XZ
??0Binlog_relay_IO_delegate@@QEAA@XZ
?thread_start@Binlog_relay_IO_delegate@@QEAAHPEAVTHD@@PEAVMaster_info@@@Z
?thread_stop@Binlog_relay_IO_delegate@@QEAAHPEAVTHD@@PEAVMaster_info@@@Z
?before_request_transmit@Binlog_relay_IO_delegate@@QEAAHPEAVTHD@@PEAVMaster_info@@G@Z
?after_read_event@Binlog_relay_IO_delegate@@QEAAHPEAVTHD@@PEAVMaster_info@@PEBDKPEAPEBDPEAK@Z
?after_queue_event@Binlog_relay_IO_delegate@@QEAAHPEAVTHD@@PEAVMaster_info@@PEBDK_N@Z
?after_reset_slave@Binlog_relay_IO_delegate@@QEAAHPEAVTHD@@PEAVMaster_info@@@Z
?init_param@Binlog_relay_IO_delegate@@AEAAXPEAUBinlog_relay_IO_param@@PEAVMaster_info@@@Z
??1Binlog_relay_IO_delegate@@QEAA@XZ
?delegates_init@@YAHXZ
?delegates_destroy@@YAXXZ
?get_user_var_str@@YAHPEBDPEAD_KIPEAH@Z
?init_read_record@@YA_NPEAUREAD_RECORD@@PEAVTHD@@PEAUTABLE@@PEAVSQL_SELECT@@H_N4@Z
?init_read_record_idx@@YA_NPEAUREAD_RECORD@@PEAVTHD@@PEAUTABLE@@_NI3@Z
?end_read_record@@YAXPEAUREAD_RECORD@@@Z
?rr_unlock_row@@YAXPEAUst_join_table@@@Z
?rr_sequential@@YAHPEAUREAD_RECORD@@@Z
?prep_append@String@@QEAAPEADII@Z
?is_sent@Diagnostics_area@@QEBA_NXZ
?status@Diagnostics_area@@QEBA?AW4enum_diagnostics_status@1@XZ
?affected_rows@Diagnostics_area@@QEBA_KXZ
?last_insert_id@Diagnostics_area@@QEBA_KXZ
?statement_warn_count@Diagnostics_area@@QEBAIXZ
?is_temporal_type_with_date_and_time@@YA_NW4enum_field_types@@@Z
?net_store_data@Protocol@@IEAA_NPEBE_K@Z
?net_store_data@Protocol@@IEAA_NPEBE_KPEBUcharset_info_st@@2@Z
?store_string_aux@Protocol@@IEAA_NPEBD_KPEBUcharset_info_st@@2@Z
?send_ok@Protocol@@MEAA_NII_K0PEBD@Z
?send_eof@Protocol@@MEAA_NII@Z
?send_error@Protocol@@MEAA_NIPEBD0@Z
?init@Protocol@@QEAAXPEAVTHD@@@Z
?send_result_set_metadata@Protocol@@UEAA_NPEAV?$List@VItem@@@@I@Z
?send_result_set_row@Protocol@@QEAA_NPEAV?$List@VItem@@@@@Z
?store@Protocol@@QEAA_NPEAV?$I_List@Vi_string@@@@@Z
?store@Protocol@@QEAA_NPEBDPEBUcharset_info_st@@@Z
?storage_packet@Protocol@@QEAAPEAVString@@XZ
?free@Protocol@@QEAAXXZ
?write@Protocol@@UEAA_NXZ
?flush@Protocol@@UEAA_NXZ
?end_partial_result_set@Protocol@@UEAAXPEAVTHD@@@Z
?end_statement@Protocol@@QEAAXXZ
??0Protocol_text@@QEAA@PEAVTHD@@@Z
?prepare_for_resend@Protocol_text@@UEAAXXZ
?store_null@Protocol_text@@UEAA_NXZ
?store_tiny@Protocol_text@@UEAA_N_J@Z
?store_short@Protocol_text@@UEAA_N_J@Z
?store_long@Protocol_text@@UEAA_N_J@Z
?store_longlong@Protocol_text@@UEAA_N_J_N@Z
?store_decimal@Protocol_text@@UEAA_NPEBVmy_decimal@@@Z
?store@Protocol_text@@UEAA_NPEBD_KPEBUcharset_info_st@@@Z
?store@Protocol_text@@UEAA_NPEBD_KPEBUcharset_info_st@@2@Z
?store@Protocol_text@@UEAA_NPEAUst_mysql_time@@I@Z
?store_date@Protocol_text@@UEAA_NPEAUst_mysql_time@@@Z
?store_time@Protocol_text@@UEAA_NPEAUst_mysql_time@@I@Z
?store@Protocol_text@@UEAA_NMIPEAVString@@@Z
?store@Protocol_text@@UEAA_NNIPEAVString@@@Z
?store@Protocol_text@@UEAA_NPEAVField@@@Z
?send_out_parameters@Protocol_text@@UEAA_NPEAV?$List@VItem_param@@@@@Z
?prepare_for_send@Protocol_binary@@UEAA_NI@Z
?prepare_for_resend@Protocol_binary@@UEAAXXZ
?store_null@Protocol_binary@@UEAA_NXZ
?store_tiny@Protocol_binary@@UEAA_N_J@Z
?store_short@Protocol_binary@@UEAA_N_J@Z
?store_long@Protocol_binary@@UEAA_N_J@Z
?store_longlong@Protocol_binary@@UEAA_N_J_N@Z
?store_decimal@Protocol_binary@@UEAA_NPEBVmy_decimal@@@Z
?store@Protocol_binary@@UEAA_NPEBD_KPEBUcharset_info_st@@@Z
?store@Protocol_binary@@UEAA_NPEBD_KPEBUcharset_info_st@@2@Z
?store@Protocol_binary@@UEAA_NPEAUst_mysql_time@@I@Z
?store_date@Protocol_binary@@UEAA_NPEAUst_mysql_time@@@Z
?store_time@Protocol_binary@@UEAA_NPEAUst_mysql_time@@I@Z
?store@Protocol_binary@@UEAA_NMIPEAVString@@@Z
?store@Protocol_binary@@UEAA_NNIPEAVString@@@Z
?store@Protocol_binary@@UEAA_NPEAVField@@@Z
?send_out_parameters@Protocol_binary@@UEAA_NPEAV?$List@VItem_param@@@@@Z
?net_send_error@@YA_NPEAVTHD@@IPEBD1@Z
?net_store_data@@YAPEAEPEAEPEBE_K@Z
?net_store_data@@YAPEAEPEAEH@Z
?net_store_data@@YAPEAEPEAE_J@Z
?net_send_error_packet@@YA_NPEAVTHD@@IPEBD1@Z
?net_send_ok@@YA_NPEAVTHD@@II_K1PEBD@Z
?net_send_eof@@YA_NPEAVTHD@@II@Z
??0?$List_iterator_fast@VItem_param@@@@QEAA@AEAV?$List@VItem_param@@@@@Z
??E?$List_iterator_fast@VItem_param@@@@QEAAPEAVItem_param@@H@Z
?string2my_decimal@@YAHIPEBVString@@PEAVmy_decimal@@@Z
?val_decimal@Item_proc_int@@UEAAPEAVmy_decimal@@PEAV2@@Z
?val_decimal@Item_proc_string@@UEAAPEAVmy_decimal@@PEAV2@@Z
my_make_scrambled_password_323
my_make_scrambled_password
my_make_scrambled_password_sha1
hash_password
randominit
create_random_string
make_scrambled_password_323
scramble_323
check_scramble_323
get_salt_from_password_323
make_password_from_salt_323
make_scrambled_password
scramble
check_scramble
get_salt_from_password
make_password_from_salt
octet2hex
check_scramble_sha1
??0?$List@Up_elem_val@@@@QEAA@XZ
?push_back@?$List@Up_elem_val@@@@QEAA_NPEAUp_elem_val@@@Z
??0partition_element@@QEAA@XZ
??0partition_element@@QEAA@PEAV0@@Z
?function_defaults_apply_on_columns@COPY_INFO@@QEAA_NPEAUst_bitmap@@@Z
?get_clone@partition_info@@QEAAPEAV1@XZ
?get_full_clone@partition_info@@QEAAPEAV1@XZ
?set_named_partition_bitmap@partition_info@@QEAA_NPEBDI@Z
?set_partition_bitmaps@partition_info@@QEAA_NPEAUTABLE_LIST@@@Z
?set_up_defaults_for_partitioning@partition_info@@QEAA_NPEAVhandler@@PEAUst_ha_create_information@@I@Z
?find_duplicate_field@partition_info@@QEAAPEADXZ
?find_duplicate_name@partition_info@@QEAAPEADXZ
?check_engine_mix@partition_info@@QEAA_NPEAUhandlerton@@_N@Z
?check_range_constants@partition_info@@QEAA_NPEAVTHD@@@Z
?check_list_constants@partition_info@@QEAA_NPEAVTHD@@@Z
?check_partition_info@partition_info@@QEAA_NPEAVTHD@@PEAPEAUhandlerton@@PEAVhandler@@PEAUst_ha_create_information@@_N@Z
?print_no_partition_found@partition_info@@QEAAXPEAUTABLE@@@Z
?print_debug@partition_info@@QEAAXPEBDPEAI@Z
?get_column_item@partition_info@@QEAAPEAVItem@@PEAV2@PEAVField@@@Z
?fix_partition_values@partition_info@@QEAA_NPEAVTHD@@PEAUp_elem_val@@PEAVpartition_element@@I@Z
?fix_column_value_functions@partition_info@@QEAA_NPEAVTHD@@PEAUp_elem_val@@I@Z
?fix_parser_data@partition_info@@QEAA_NPEAVTHD@@@Z
?add_max_value@partition_info@@QEAA_NXZ
?init_col_val@partition_info@@QEAAXPEAUp_column_list_val@@PEAVItem@@@Z
?reorganize_into_single_field_col_val@partition_info@@QEAA_NXZ
?add_column_value@partition_info@@QEAAPEAUp_column_list_val@@XZ
?set_part_expr@partition_info@@QEAA_NPEADPEAVItem@@0_N@Z
?compare_column_values@partition_info@@SAHPEBX0@Z
?set_up_charset_field_preps@partition_info@@QEAA_NXZ
?check_partition_field_length@partition_info@@QEAA_NXZ
?init_column_part@partition_info@@QEAA_NXZ
?add_column_list_value@partition_info@@QEAA_NPEAVTHD@@PEAVItem@@@Z
?set_show_version_string@partition_info@@QEAAXPEAVString@@@Z
?get_part_elem@partition_info@@QEAAPEAVpartition_element@@PEBDPEADPEAI@Z
?report_part_expr_error@partition_info@@QEAAX_N@Z
?set_used_partition@partition_info@@QEAA_NAEAV?$List@VItem@@@@0AEAVCOPY_INFO@@_NPEAUst_bitmap@@@Z
?can_prune_insert@partition_info@@QEAA_NPEAVTHD@@W4enum_duplicates@@AEAVCOPY_INFO@@AEAV?$List@VItem@@@@3_NPEAW4enum_can_prune@1@PEA_NPEAUst_bitmap@@@Z
?has_same_partitioning@partition_info@@QEAA_NPEAV1@@Z
?list_part_cmp@partition_info@@CAHPEBX0@Z
?set_up_default_partitions@partition_info@@AEAA_NPEAVhandler@@PEAUst_ha_create_information@@I@Z
?set_up_default_subpartitions@partition_info@@AEAA_NPEAVhandler@@PEAUst_ha_create_information@@@Z
?create_default_partition_names@partition_info@@AEAAPEADIII@Z
?create_default_subpartition_name@partition_info@@AEAAPEADIPEBD@Z
?prune_partition_bitmaps@partition_info@@AEAA_NPEAUTABLE_LIST@@@Z
?add_named_partition@partition_info@@AEAA_NPEBDI@Z
?is_field_in_part_expr@partition_info@@AEAA_NAEAV?$List@VItem@@@@@Z
?is_full_part_expr_in_fields@partition_info@@AEAA_NAEAV?$List@VItem@@@@@Z
?check_partition_dirs@@YA_NPEAVpartition_info@@@Z
?rewind@?$List_iterator@Vpartition_element@@@@QEAAXXZ
??_9Item@@$BCHA@AA
?remove@?$List_iterator@Up_elem_val@@@@QEAAXXZ
partition_info_list_part_cmp
partition_info_compare_column_values
??_9Item@@$BDBA@AA
?process_unknown_string@File_parser_dummy_hook@@UEAA_NAEAPEBDPEAEPEAUst_mem_root@@PEBD@Z
?get_file_options_ulllist@@YA_NAEAPEBDPEBD1PEAEPEAUFile_option@@PEAUst_mem_root@@@Z
?parse_escaped_string@@YAPEBDPEBD0PEAUst_mem_root@@PEAUst_mysql_lex_string@@@Z
?sql_parse_prepare@@YAPEAVFile_parser@@PEBUst_mysql_lex_string@@PEAUst_mem_root@@_N@Z
?sql_create_definition_file@@YADPEBUst_mysql_lex_string@@00PEAEPEAUFile_option@@@Z
?rename_in_schema_file@@YADPEAVTHD@@PEBD111@Z
??0File_parser@@QEAA@XZ
?parse@File_parser@@QEBADPEAEPEAUst_mem_root@@PEAUFile_option@@IPEAVUnknown_key_hook@@@Z
?read_escaped_string@@YADPEBD0PEAUst_mysql_lex_string@@@Z
?optimizer_trace_info@@3PAUst_field_info@@A DATA
?at_end@Opt_trace_iterator@@QEBA_NXZ
??0Opt_trace_start@@QEAA@PEAVTHD@@PEAUTABLE_LIST@@W4enum_sql_command@@PEAV?$List@Vset_var_base@@@@PEBD_KPEAVsp_printable@@PEBUcharset_info_st@@@Z
??1Opt_trace_start@@QEAA@XZ
?opt_trace_print_expanded_query@@YAXPEAVTHD@@PEAVst_select_lex@@PEAVOpt_trace_object@@@Z
?opt_trace_disable_if_no_security_context_access@@YAXPEAVTHD@@@Z
?opt_trace_disable_if_no_view_access@@YAXPEAVTHD@@PEAUTABLE_LIST@@1@Z
?opt_trace_disable_if_no_stored_proc_func_access@@YAXPEAVTHD@@PEAVsp_head@@@Z
?fill_optimizer_trace_info@@YAHPEAVTHD@@PEAUTABLE_LIST@@PEAVItem@@@Z
?list_has_optimizer_trace_table@?A0xd83db052@@YA_NPEBUTABLE_LIST@@@Z
?sql_command_can_be_traced@?A0xd83db052@@YA_NW4enum_sql_command@@@Z
?sets_var_optimizer_trace@?A0xd83db052@@YA_NW4enum_sql_command@@PEAV?$List@Vset_var_base@@@@@Z
?opt_trace_disable_if_no_tables_access@?A0xd83db052@@YAXPEAVTHD@@PEAUTABLE_LIST@@@Z
?flag_names@Opt_trace_context@@2PAPEBDA DATA
?feature_names@Opt_trace_context@@2PAPEBDA DATA
?default_features@Opt_trace_context@@2W4feature_value@1@B DATA
?bool_as_text@?A0x5ce03bb3@@3PAUst_mysql_const_lex_string@@A DATA
??1Opt_trace_context@@QEAA@XZ
?start@Opt_trace_context@@QEAA_N_N000JJK_K@Z
?end@Opt_trace_context@@QEAAXXZ
?support_I_S@Opt_trace_context@@QEBA_NXZ
?set_query@Opt_trace_context@@QEAAXPEBD_KPEBUcharset_info_st@@@Z
?reset@Opt_trace_context@@QEAAXXZ
?get_end_marker@Opt_trace_context@@QEBA_NXZ
?get_one_line@Opt_trace_context@@QEBA_NXZ
?missing_privilege@Opt_trace_context@@QEAAXXZ
?get_current_stmt_in_gen@Opt_trace_context@@QEAAPEAVOpt_trace_stmt@@XZ
?get_next_stmt_for_I_S@Opt_trace_context@@QEBAPEBVOpt_trace_stmt@@PEAJ@Z
??0Opt_trace_context_impl@Opt_trace_context@@QEAA@XZ
?disable_I_S_for_this_and_children@Opt_trace_context_impl@Opt_trace_context@@QEAAXXZ
?restore_I_S@Opt_trace_context_impl@Opt_trace_context@@QEAAXXZ
??0?$Dynamic_array@PEAVOpt_trace_stmt@@@@QEAA@II@Z
?init@?$Dynamic_array@PEAVOpt_trace_stmt@@@@QEAAXII@Z
?at@?$Dynamic_array@PEAVOpt_trace_stmt@@@@QEAAAEAPEAVOpt_trace_stmt@@H@Z
?back@?$Dynamic_array@PEAVOpt_trace_stmt@@@@QEAAPEAPEAVOpt_trace_stmt@@XZ
?append@?$Dynamic_array@PEAVOpt_trace_stmt@@@@QEAA_NAEBQEAVOpt_trace_stmt@@@Z
?pop@?$Dynamic_array@PEAVOpt_trace_stmt@@@@QEAAAEAPEAVOpt_trace_stmt@@XZ
?del@?$Dynamic_array@PEAVOpt_trace_stmt@@@@QEAAXI@Z
?elements@?$Dynamic_array@PEAVOpt_trace_stmt@@@@QEBAHXZ
??1?$Dynamic_array@PEAVOpt_trace_stmt@@@@QEAA@XZ
??1Opt_trace_context_impl@Opt_trace_context@@QEAA@XZ
?purge_stmts@Opt_trace_context@@AEAAX_N@Z
?allowed_mem_size_for_current_stmt@Opt_trace_context@@AEBA_KXZ
??0Opt_trace_iterator@@QEAA@PEAVOpt_trace_context@@@Z
?next@Opt_trace_iterator@@QEAAXXZ
?get_value@Opt_trace_iterator@@QEBAXPEAUOpt_trace_info@@@Z
?set_not_empty@Opt_trace_struct@@QEAA_NXZ
?check_key@Opt_trace_struct@@QEAAPEBDPEBD@Z
?do_construct@Opt_trace_struct@@AEAAXPEAVOpt_trace_context@@_NPEBDW4feature_value@2@@Z
?do_destruct@Opt_trace_struct@@AEAAXXZ
?do_add@Opt_trace_struct@@AEAAAEAV1@PEBD0_K_N@Z
?do_add@Opt_trace_struct@@AEAAAEAV1@PEBDPEAVItem@@@Z
?do_add@Opt_trace_struct@@AEAAAEAV1@PEBD_N@Z
?do_add@Opt_trace_struct@@AEAAAEAV1@PEBD_J@Z
?do_add@Opt_trace_struct@@AEAAAEAV1@PEBD_K@Z
?do_add@Opt_trace_struct@@AEAAAEAV1@PEBDN@Z
?do_add_hex@Opt_trace_struct@@AEAAAEAV1@PEBD_K@Z
?do_add_null@Opt_trace_struct@@AEAAAEAV1@PEBD@Z
?do_add_utf8_table@Opt_trace_struct@@AEAAAEAV1@PEBUTABLE@@@Z
??0Buffer@random_name_to_avoid_gcc_bug_29365@@QEAA@XZ
?alloced_length@Buffer@random_name_to_avoid_gcc_bug_29365@@QEBAIXZ
?length@Buffer@random_name_to_avoid_gcc_bug_29365@@QEBAIXZ
?prealloc@Buffer@random_name_to_avoid_gcc_bug_29365@@QEAAXXZ
?c_ptr_safe@Buffer@random_name_to_avoid_gcc_bug_29365@@QEAAPEADXZ
?ptr@Buffer@random_name_to_avoid_gcc_bug_29365@@QEBAPEBDXZ
?charset@Buffer@random_name_to_avoid_gcc_bug_29365@@QEBAPEBUcharset_info_st@@XZ
?set_charset@Buffer@random_name_to_avoid_gcc_bug_29365@@QEAAXPEBUcharset_info_st@@@Z
?append@Buffer@random_name_to_avoid_gcc_bug_29365@@QEAAXPEBD_K@Z
?append@Buffer@random_name_to_avoid_gcc_bug_29365@@QEAAXPEBD@Z
?append_escaped@Buffer@random_name_to_avoid_gcc_bug_29365@@QEAAXPEBD_K@Z
?append@Buffer@random_name_to_avoid_gcc_bug_29365@@QEAAXD@Z
?get_allowed_mem_size@Buffer@random_name_to_avoid_gcc_bug_29365@@QEBA_KXZ
?get_missing_bytes@Buffer@random_name_to_avoid_gcc_bug_29365@@QEBA_KXZ
?set_allowed_mem_size@Buffer@random_name_to_avoid_gcc_bug_29365@@QEAAX_K@Z
??1Buffer@random_name_to_avoid_gcc_bug_29365@@QEAA@XZ
??0Opt_trace_stmt@@QEAA@PEAVOpt_trace_context@@@Z
?end@Opt_trace_stmt@@QEAAXXZ
?has_ended@Opt_trace_stmt@@QEBA_NXZ
?set_allowed_mem_size@Opt_trace_stmt@@QEAAX_K@Z
?set_query@Opt_trace_stmt@@QEAAXPEBD_KPEBUcharset_info_st@@@Z
?open_struct@Opt_trace_stmt@@QEAA_NPEBDPEAVOpt_trace_struct@@_ND@Z
?close_struct@Opt_trace_stmt@@QEAAXPEBD_ND@Z
?separator@Opt_trace_stmt@@QEAAXXZ
?next_line@Opt_trace_stmt@@QEAAXXZ
?add@Opt_trace_stmt@@QEAAXPEBD0_K_N2@Z
?fill_info@Opt_trace_stmt@@QEBAXPEAUOpt_trace_info@@@Z
?trace_buffer_tail@Opt_trace_stmt@@QEAAPEBD_K@Z
?alloced_length@Opt_trace_stmt@@QEBA_KXZ
?assert_current_struct@Opt_trace_stmt@@QEBAXPEBVOpt_trace_struct@@@Z
?missing_privilege@Opt_trace_stmt@@QEAAXXZ
?support_I_S@Opt_trace_stmt@@QEBA_NXZ
?disable_I_S@Opt_trace_stmt@@QEAAXXZ
?restore_I_S@Opt_trace_stmt@@QEAAXXZ
?make_unknown_key@Opt_trace_stmt@@QEAAPEBDXZ
??0?$Dynamic_array@PEAVOpt_trace_struct@@@@QEAA@II@Z
?init@?$Dynamic_array@PEAVOpt_trace_struct@@@@QEAAXII@Z
?back@?$Dynamic_array@PEAVOpt_trace_struct@@@@QEAAPEAPEAVOpt_trace_struct@@XZ
?append@?$Dynamic_array@PEAVOpt_trace_struct@@@@QEAA_NAEBQEAVOpt_trace_struct@@@Z
?pop@?$Dynamic_array@PEAVOpt_trace_struct@@@@QEAAAEAPEAVOpt_trace_struct@@XZ
?elements@?$Dynamic_array@PEAVOpt_trace_struct@@@@QEBAHXZ
??1?$Dynamic_array@PEAVOpt_trace_struct@@@@QEAA@XZ
??1Opt_trace_stmt@@QEAA@XZ
?opening_bracket@?A0x5ce03bb3@@YAD_N@Z
?closing_bracket@?A0x5ce03bb3@@YAD_N@Z
??$new_nothrow_w_my_error@VOpt_trace_context_impl@Opt_trace_context@@@@YAPEAVOpt_trace_context_impl@Opt_trace_context@@XZ
??$new_nothrow_w_my_error@VOpt_trace_stmt@@PEAVOpt_trace_context@@@@YAPEAVOpt_trace_stmt@@PEAVOpt_trace_context@@@Z
?make_const@Item_sum@@QEAAXXZ
?make_const@Item_sum_count@@QEAAX_J@Z
?simple_pred@@YA_NPEAVItem_func@@PEAPEAVItem@@PEA_N@Z
?opt_sum_query@@YAHPEAVTHD@@PEAUTABLE_LIST@@AEAV?$List@VItem@@@@PEAVItem@@@Z
?to_ulonglong@?$Bitmap@$0EA@@@QEBA_KXZ
?mrr_persistent_flag_storage@@YAAEAGPEAXI@Z
?mrr_get_ptr_by_idx@@YAAEAPEADPEAXI@Z
?dbug_print@Field@@QEAAXXZ
?compare_elems@in_vector@@QEAA_NII@Z
?get_cost_calc_buff_size@Unique@@SAHKI_K@Z
?get_size@Unique@@QEBAIXZ
?get_max_in_memory_size@Unique@@QEBA_KXZ
??0QUICK_RANGE@@QEAA@XZ
??0QUICK_RANGE@@QEAA@PEBEIK0IKI@Z
?make_min_endpoint@QUICK_RANGE@@QEAAXPEAUst_key_range@@IK@Z
?make_min_endpoint@QUICK_RANGE@@QEAAXPEAUst_key_range@@@Z
?make_max_endpoint@QUICK_RANGE@@QEAAXPEAUst_key_range@@IK@Z
?make_max_endpoint@QUICK_RANGE@@QEAAXPEAUst_key_range@@@Z
??0QUICK_SELECT_I@@QEAA@XZ
??1QUICK_SELECT_I@@UEAA@XZ
?range_end@QUICK_SELECT_I@@UEAAXXZ
?unique_key_range@QUICK_SELECT_I@@UEAA_NXZ
?clustered_pk_range@QUICK_SELECT_I@@UEAA_NXZ
?init_ror_merged_scan@QUICK_SELECT_I@@UEAAH_N@Z
?save_last_pos@QUICK_SELECT_I@@UEAAXXZ
?add_info_string@QUICK_SELECT_I@@UEAAXPEAVString@@@Z
?is_keys_used@QUICK_SELECT_I@@UEAA_NPEBUst_bitmap@@@Z
?is_valid@QUICK_SELECT_I@@UEAA_NXZ
?make_reverse@QUICK_SELECT_I@@UEAAPEAV1@I@Z
?set_handler@QUICK_SELECT_I@@UEAAXPEAVhandler@@@Z
??0QUICK_SELECT_I@@QEAA@AEBV0@@Z
?quick_range_seq_init@@YAPEAXPEAXII@Z
?quick_range_seq_next@@YAIPEAXPEAUst_key_multi_range@@@Z
?get_quick_select_for_ref@@YAPEAVQUICK_RANGE_SELECT@@PEAVTHD@@PEAUTABLE@@PEAUst_table_ref@@_K@Z
?get_quick_keys@@YA_NPEAVPARAM@@PEAVQUICK_RANGE_SELECT@@PEAUst_key_part@@PEAVSEL_ARG@@PEAEI4I@Z
?get_quick_select@@YAPEAVQUICK_RANGE_SELECT@@PEAVPARAM@@IPEAVSEL_ARG@@IIPEAUst_mem_root@@@Z
?cmp_next@QUICK_RANGE_SELECT@@IEAAHPEAVQUICK_RANGE@@@Z
?cmp_prev@QUICK_RANGE_SELECT@@IEAAHPEAVQUICK_RANGE@@@Z
?row_in_ranges@QUICK_RANGE_SELECT@@IEAA_NXZ
??0QUICK_RANGE_SELECT@@QEAA@PEAVTHD@@PEAUTABLE@@I_NPEAUst_mem_root@@PEA_N@Z
??1QUICK_RANGE_SELECT@@UEAA@XZ
?need_sorted_output@QUICK_RANGE_SELECT@@UEAAXXZ
?init@QUICK_RANGE_SELECT@@UEAAHXZ
?reset@QUICK_RANGE_SELECT@@UEAAHXZ
?get_next@QUICK_RANGE_SELECT@@UEAAHXZ
?range_end@QUICK_RANGE_SELECT@@UEAAXXZ
?get_next_prefix@QUICK_RANGE_SELECT@@QEAAHIIPEAE@Z
?reverse_sorted@QUICK_RANGE_SELECT@@UEBA_NXZ
?reverse_sort_possible@QUICK_RANGE_SELECT@@UEBA_NXZ
?unique_key_range@QUICK_RANGE_SELECT@@UEAA_NXZ
?init_ror_merged_scan@QUICK_RANGE_SELECT@@UEAAH_N@Z
?save_last_pos@QUICK_RANGE_SELECT@@UEAAXXZ
?get_type@QUICK_RANGE_SELECT@@UEAAHXZ
?add_keys_and_lengths@QUICK_RANGE_SELECT@@UEAAXPEAVString@@0@Z
?add_info_string@QUICK_RANGE_SELECT@@UEAAXPEAVString@@@Z
?dbug_dump@QUICK_RANGE_SELECT@@UEAAXH_N@Z
?make_reverse@QUICK_RANGE_SELECT@@UEAAPEAVQUICK_SELECT_I@@I@Z
?set_handler@QUICK_RANGE_SELECT@@UEAAXPEAVhandler@@@Z
??0QUICK_RANGE_SELECT@@QEAA@AEBV0@@Z
??0QUICK_RANGE_SELECT_GEOM@@QEAA@PEAVTHD@@PEAUTABLE@@I_NPEAUst_mem_root@@PEA_N@Z
?get_next@QUICK_RANGE_SELECT_GEOM@@UEAAHXZ
??1QUICK_RANGE_SELECT_GEOM@@UEAA@XZ
??0QUICK_INDEX_MERGE_SELECT@@QEAA@PEAVTHD@@PEAUTABLE@@@Z
??1QUICK_INDEX_MERGE_SELECT@@UEAA@XZ
?init@QUICK_INDEX_MERGE_SELECT@@UEAAHXZ
?need_sorted_output@QUICK_INDEX_MERGE_SELECT@@UEAAXXZ
?reset@QUICK_INDEX_MERGE_SELECT@@UEAAHXZ
?get_next@QUICK_INDEX_MERGE_SELECT@@UEAAHXZ
?reverse_sorted@QUICK_INDEX_MERGE_SELECT@@UEBA_NXZ
?reverse_sort_possible@QUICK_INDEX_MERGE_SELECT@@UEBA_NXZ
?unique_key_range@QUICK_INDEX_MERGE_SELECT@@UEAA_NXZ
?get_type@QUICK_INDEX_MERGE_SELECT@@UEAAHXZ
?add_keys_and_lengths@QUICK_INDEX_MERGE_SELECT@@UEAAXPEAVString@@0@Z
?add_info_string@QUICK_INDEX_MERGE_SELECT@@UEAAXPEAVString@@@Z
?is_keys_used@QUICK_INDEX_MERGE_SELECT@@UEAA_NPEBUst_bitmap@@@Z
?dbug_dump@QUICK_INDEX_MERGE_SELECT@@UEAAXH_N@Z
?push_quick_back@QUICK_INDEX_MERGE_SELECT@@QEAA_NPEAVQUICK_RANGE_SELECT@@@Z
??0?$List@VQUICK_RANGE_SELECT@@@@QEAA@XZ
?push_back@?$List@VQUICK_RANGE_SELECT@@@@QEAA_NPEAVQUICK_RANGE_SELECT@@@Z
?delete_elements@?$List@VQUICK_RANGE_SELECT@@@@QEAAXXZ
??1?$List@VQUICK_RANGE_SELECT@@@@QEAA@XZ
?read_keys_and_merge@QUICK_INDEX_MERGE_SELECT@@QEAAHXZ
?clustered_pk_range@QUICK_INDEX_MERGE_SELECT@@UEAA_NXZ
?is_valid@QUICK_INDEX_MERGE_SELECT@@UEAA_NXZ
??0?$List_iterator_fast@VQUICK_RANGE_SELECT@@@@QEAA@AEAV?$List@VQUICK_RANGE_SELECT@@@@@Z
??E?$List_iterator_fast@VQUICK_RANGE_SELECT@@@@QEAAPEAVQUICK_RANGE_SELECT@@H@Z
?rewind@?$List_iterator_fast@VQUICK_RANGE_SELECT@@@@QEAAXXZ
??0QUICK_ROR_INTERSECT_SELECT@@QEAA@PEAVTHD@@PEAUTABLE@@_NPEAUst_mem_root@@@Z
??1QUICK_ROR_INTERSECT_SELECT@@UEAA@XZ
?init@QUICK_ROR_INTERSECT_SELECT@@UEAAHXZ
?need_sorted_output@QUICK_ROR_INTERSECT_SELECT@@UEAAXXZ
?reset@QUICK_ROR_INTERSECT_SELECT@@UEAAHXZ
?get_next@QUICK_ROR_INTERSECT_SELECT@@UEAAHXZ
?reverse_sorted@QUICK_ROR_INTERSECT_SELECT@@UEBA_NXZ
?reverse_sort_possible@QUICK_ROR_INTERSECT_SELECT@@UEBA_NXZ
?unique_key_range@QUICK_ROR_INTERSECT_SELECT@@UEAA_NXZ
?get_type@QUICK_ROR_INTERSECT_SELECT@@UEAAHXZ
?add_keys_and_lengths@QUICK_ROR_INTERSECT_SELECT@@UEAAXPEAVString@@0@Z
?add_info_string@QUICK_ROR_INTERSECT_SELECT@@UEAAXPEAVString@@@Z
?is_keys_used@QUICK_ROR_INTERSECT_SELECT@@UEAA_NPEBUst_bitmap@@@Z
?dbug_dump@QUICK_ROR_INTERSECT_SELECT@@UEAAXH_N@Z
?init_ror_merged_scan@QUICK_ROR_INTERSECT_SELECT@@UEAAH_N@Z
?push_quick_back@QUICK_ROR_INTERSECT_SELECT@@QEAA_NPEAVQUICK_RANGE_SELECT@@@Z
?is_valid@QUICK_ROR_INTERSECT_SELECT@@UEAA_NXZ
??0QUICK_ROR_UNION_SELECT@@QEAA@PEAVTHD@@PEAUTABLE@@@Z
??1QUICK_ROR_UNION_SELECT@@UEAA@XZ
?init@QUICK_ROR_UNION_SELECT@@UEAAHXZ
?need_sorted_output@QUICK_ROR_UNION_SELECT@@UEAAXXZ
?reset@QUICK_ROR_UNION_SELECT@@UEAAHXZ
?get_next@QUICK_ROR_UNION_SELECT@@UEAAHXZ
?reverse_sorted@QUICK_ROR_UNION_SELECT@@UEBA_NXZ
?reverse_sort_possible@QUICK_ROR_UNION_SELECT@@UEBA_NXZ
?unique_key_range@QUICK_ROR_UNION_SELECT@@UEAA_NXZ
?get_type@QUICK_ROR_UNION_SELECT@@UEAAHXZ
?add_keys_and_lengths@QUICK_ROR_UNION_SELECT@@UEAAXPEAVString@@0@Z
?add_info_string@QUICK_ROR_UNION_SELECT@@UEAAXPEAVString@@@Z
?is_keys_used@QUICK_ROR_UNION_SELECT@@UEAA_NPEBUst_bitmap@@@Z
?dbug_dump@QUICK_ROR_UNION_SELECT@@UEAAXH_N@Z
?push_quick_back@QUICK_ROR_UNION_SELECT@@QEAA_NPEAVQUICK_SELECT_I@@@Z
??0?$List@VQUICK_SELECT_I@@@@QEAA@XZ
?push_back@?$List@VQUICK_SELECT_I@@@@QEAA_NPEAVQUICK_SELECT_I@@@Z
?delete_elements@?$List@VQUICK_SELECT_I@@@@QEAAXXZ
??1?$List@VQUICK_SELECT_I@@@@QEAA@XZ
?is_valid@QUICK_ROR_UNION_SELECT@@UEAA_NXZ
??0?$List_iterator_fast@VQUICK_SELECT_I@@@@QEAA@AEAV?$List@VQUICK_SELECT_I@@@@@Z
??E?$List_iterator_fast@VQUICK_SELECT_I@@@@QEAAPEAVQUICK_SELECT_I@@H@Z
?next_prefix@QUICK_GROUP_MIN_MAX_SELECT@@AEAAHXZ
?next_min_in_range@QUICK_GROUP_MIN_MAX_SELECT@@AEAAHXZ
?next_max_in_range@QUICK_GROUP_MIN_MAX_SELECT@@AEAAHXZ
?next_min@QUICK_GROUP_MIN_MAX_SELECT@@AEAAHXZ
?next_max@QUICK_GROUP_MIN_MAX_SELECT@@AEAAHXZ
?update_min_result@QUICK_GROUP_MIN_MAX_SELECT@@AEAAXXZ
?update_max_result@QUICK_GROUP_MIN_MAX_SELECT@@AEAAXXZ
??0QUICK_GROUP_MIN_MAX_SELECT@@QEAA@PEAUTABLE@@PEAVJOIN@@_N22PEAVKEY_PART_INFO@@IIIPEAUst_key@@IN_KIPEAEPEAUst_mem_root@@2@Z
??1QUICK_GROUP_MIN_MAX_SELECT@@UEAA@XZ
?add_range@QUICK_GROUP_MIN_MAX_SELECT@@QEAA_NPEAVSEL_ARG@@@Z
?update_key_stat@QUICK_GROUP_MIN_MAX_SELECT@@QEAAXXZ
?adjust_prefix_ranges@QUICK_GROUP_MIN_MAX_SELECT@@QEAAXXZ
?init@QUICK_GROUP_MIN_MAX_SELECT@@UEAAHXZ
?need_sorted_output@QUICK_GROUP_MIN_MAX_SELECT@@UEAAXXZ
?reset@QUICK_GROUP_MIN_MAX_SELECT@@UEAAHXZ
?get_next@QUICK_GROUP_MIN_MAX_SELECT@@UEAAHXZ
?reverse_sorted@QUICK_GROUP_MIN_MAX_SELECT@@UEBA_NXZ
?reverse_sort_possible@QUICK_GROUP_MIN_MAX_SELECT@@UEBA_NXZ
?unique_key_range@QUICK_GROUP_MIN_MAX_SELECT@@UEAA_NXZ
?get_type@QUICK_GROUP_MIN_MAX_SELECT@@UEAAHXZ
?add_keys_and_lengths@QUICK_GROUP_MIN_MAX_SELECT@@UEAAXPEAVString@@0@Z
?dbug_dump@QUICK_GROUP_MIN_MAX_SELECT@@UEAAXH_N@Z
?append_loose_scan_type@QUICK_GROUP_MIN_MAX_SELECT@@UEAAXPEAVString@@@Z
??0QUICK_SELECT_DESC@@QEAA@PEAVQUICK_RANGE_SELECT@@IPEA_N@Z
?get_next@QUICK_SELECT_DESC@@UEAAHXZ
?reverse_sorted@QUICK_SELECT_DESC@@UEBA_NXZ
?reverse_sort_possible@QUICK_SELECT_DESC@@UEBA_NXZ
?get_type@QUICK_SELECT_DESC@@UEAAHXZ
?make_reverse@QUICK_SELECT_DESC@@UEAAPEAVQUICK_SELECT_I@@I@Z
?range_reads_after_key@QUICK_SELECT_DESC@@AEAA_NPEAVQUICK_RANGE@@@Z
?reset@QUICK_SELECT_DESC@@EEAAHXZ
??0?$List@VQUICK_RANGE@@@@QEAA@XZ
?push_front@?$List@VQUICK_RANGE@@@@QEAA_NPEAVQUICK_RANGE@@@Z
??1?$List@VQUICK_RANGE@@@@QEAA@XZ
??0?$List_iterator@VQUICK_RANGE@@@@QEAA@AEAV?$List@VQUICK_RANGE@@@@@Z
??E?$List_iterator@VQUICK_RANGE@@@@QEAAPEAVQUICK_RANGE@@H@Z
?rewind@?$List_iterator@VQUICK_RANGE@@@@QEAAXXZ
?ref@?$List_iterator@VQUICK_RANGE@@@@QEAAPEAPEAVQUICK_RANGE@@XZ
??1QUICK_SELECT_DESC@@UEAA@XZ
??0SQL_SELECT@@QEAA@XZ
??1SQL_SELECT@@QEAA@XZ
?cleanup@SQL_SELECT@@QEAAXXZ
?test_quick_select@SQL_SELECT@@QEAAHPEAVTHD@@V?$Bitmap@$0EA@@@_K2_NW4enum_order@st_order@@@Z
??0FT_SELECT@@QEAA@PEAVTHD@@PEAUTABLE@@IPEA_N@Z
??1FT_SELECT@@UEAA@XZ
?init@FT_SELECT@@UEAAHXZ
?reset@FT_SELECT@@UEAAHXZ
?get_next@FT_SELECT@@UEAAHXZ
?get_type@FT_SELECT@@UEAAHXZ
?get_ft_select@@YAPEAVFT_SELECT@@PEAVTHD@@PEAUTABLE@@I@Z
?make_select@@YAPEAVSQL_SELECT@@PEAUTABLE@@_K1PEAVItem@@_NPEAH@Z
?prune_partitions@@YA_NPEAVTHD@@PEAUTABLE@@PEAVItem@@@Z
?store_key_image_to_rec@@YAXPEAVField@@PEAEI@Z
?add_null@Opt_trace_struct@@QEAAAEAV1@PEBD@Z
??0SEL_ARG@@QEAA@XZ
??0SEL_ARG@@QEAA@AEAV0@@Z
??0SEL_ARG@@QEAA@PEAVField@@PEBE1@Z
??0SEL_ARG@@QEAA@PEAVField@@EPEAE1EEE@Z
??0SEL_ARG@@QEAA@W4Type@0@@Z
?is_same@SEL_ARG@@QEBA_NPEBV1@@Z
?all_same@SEL_ARG@@QEBA_NPEBV1@@Z
?merge_flags@SEL_ARG@@QEAAXPEAV1@@Z
?maybe_smaller@SEL_ARG@@QEAAXXZ
?is_null_interval@SEL_ARG@@QEAA_NXZ
?cmp_min_to_min@SEL_ARG@@QEBAHPEBV1@@Z
?cmp_min_to_max@SEL_ARG@@QEBAHPEBV1@@Z
?cmp_max_to_max@SEL_ARG@@QEBAHPEBV1@@Z
?cmp_max_to_min@SEL_ARG@@QEBAHPEBV1@@Z
?clone_and@SEL_ARG@@QEAAPEAV1@PEAV1@@Z
?clone_first@SEL_ARG@@QEAAPEAV1@PEAV1@@Z
?clone_last@SEL_ARG@@QEAAPEAV1@PEAV1@@Z
?clone@SEL_ARG@@QEAAPEAV1@PEAVRANGE_OPT_PARAM@@PEAV1@PEAPEAV1@@Z
?copy_min@SEL_ARG@@QEAA_NPEAV1@@Z
?copy_max@SEL_ARG@@QEAA_NPEAV1@@Z
?copy_min_to_min@SEL_ARG@@QEAAXPEAV1@@Z
?copy_min_to_max@SEL_ARG@@QEAAXPEAV1@@Z
?copy_max_to_min@SEL_ARG@@QEAAXPEAV1@@Z
?store_min@SEL_ARG@@QEAAHIPEAPEAEI@Z
?store_max@SEL_ARG@@QEAAHIPEAPEAEI@Z
?store_min_key@SEL_ARG@@QEAAHPEAUst_key_part@@PEAPEAEPEAII@Z
?store_max_key@SEL_ARG@@QEAAHPEAUst_key_part@@PEAPEAEPEAII@Z
?insert@SEL_ARG@@QEAAPEAV1@PEAV1@@Z
?tree_delete@SEL_ARG@@QEAAPEAV1@PEAV1@@Z
?find_range@SEL_ARG@@QEAAPEAV1@PEAV1@@Z
?rb_insert@SEL_ARG@@QEAAPEAV1@PEAV1@@Z
?rb_delete_fixup@@YAPEAVSEL_ARG@@PEAV1@00@Z
?test_rb_tree@@YAHPEAVSEL_ARG@@0@Z
?test_use_count@SEL_ARG@@QEAAXPEAV1@@Z
?first@SEL_ARG@@QEAAPEAV1@XZ
?first@SEL_ARG@@QEBAPEBV1@XZ
?last@SEL_ARG@@QEAAPEAV1@XZ
?make_root@SEL_ARG@@QEAAXXZ
?simple_key@SEL_ARG@@QEAA_NXZ
?increment_use_count@SEL_ARG@@QEAAXJ@Z
?free_tree@SEL_ARG@@QEAAXXZ
?parent_ptr@SEL_ARG@@QEAAPEAPEAV1@XZ
?is_singlepoint@SEL_ARG@@QEBA_NXZ
?clone_tree@SEL_ARG@@QEAAPEAV1@PEAVRANGE_OPT_PARAM@@@Z
??1SEL_ARG@@QEAA@XZ
??0SEL_TREE@@QEAA@W4Type@0@@Z
??0SEL_TREE@@QEAA@XZ
??0SEL_TREE@@QEAA@PEAV0@PEAVRANGE_OPT_PARAM@@@Z
??0?$List@VSEL_IMERGE@@@@QEAA@XZ
?push_back@?$List@VSEL_IMERGE@@@@QEAA_NPEAVSEL_IMERGE@@@Z
?head@?$List@VSEL_IMERGE@@@@QEAAPEAVSEL_IMERGE@@XZ
?concat@?$List@VSEL_IMERGE@@@@QEAAXPEAV1@@Z
??1?$List@VSEL_IMERGE@@@@QEAA@XZ
?statement_should_be_aborted@RANGE_OPT_PARAM@@QEBA_NXZ
?append_range@@YAXPEAVString@@PEBVKEY_PART_INFO@@PEBE2I@Z
?sel_trees_can_be_ored@@YA_NPEAVSEL_TREE@@0PEAVRANGE_OPT_PARAM@@@Z
??0SEL_IMERGE@@QEAA@XZ
??0SEL_IMERGE@@QEAA@PEAV0@PEAVRANGE_OPT_PARAM@@@Z
?or_sel_tree@SEL_IMERGE@@QEAAHPEAVRANGE_OPT_PARAM@@PEAVSEL_TREE@@@Z
?or_sel_tree_with_checks@SEL_IMERGE@@QEAAHPEAVRANGE_OPT_PARAM@@PEAVSEL_TREE@@@Z
?or_sel_imerge_with_checks@SEL_IMERGE@@QEAAHPEAVRANGE_OPT_PARAM@@PEAV1@@Z
??0?$List_iterator@VSEL_IMERGE@@@@QEAA@AEAV?$List@VSEL_IMERGE@@@@@Z
??E?$List_iterator@VSEL_IMERGE@@@@QEAAPEAVSEL_IMERGE@@H@Z
?remove@?$List_iterator@VSEL_IMERGE@@@@QEAAXXZ
?imerge_list_and_list@@YAXPEAV?$List@VSEL_IMERGE@@@@0@Z
?imerge_list_or_list@@YAHPEAVRANGE_OPT_PARAM@@PEAV?$List@VSEL_IMERGE@@@@1@Z
??2TABLE_READ_PLAN@@SAPEAX_KPEAUst_mem_root@@@Z
??3TABLE_READ_PLAN@@SAXPEAX_K@Z
??3TABLE_READ_PLAN@@SAXPEAXPEAUst_mem_root@@@Z
??1TABLE_READ_PLAN@@UEAA@XZ
??0TABLE_READ_PLAN@@QEAA@XZ
??0TRP_RANGE@@QEAA@PEAVSEL_ARG@@II@Z
??1TRP_RANGE@@UEAA@XZ
?make_quick@TRP_RANGE@@UEAAPEAVQUICK_SELECT_I@@PEAVPARAM@@_NPEAUst_mem_root@@@Z
?trace_basic_info@TRP_RANGE@@UEBAXPEBVPARAM@@PEAVOpt_trace_object@@@Z
??0TRP_ROR_INTERSECT@@QEAA@XZ
??1TRP_ROR_INTERSECT@@UEAA@XZ
?make_quick@TRP_ROR_INTERSECT@@UEAAPEAVQUICK_SELECT_I@@PEAVPARAM@@_NPEAUst_mem_root@@@Z
?trace_basic_info@TRP_ROR_INTERSECT@@UEBAXPEBVPARAM@@PEAVOpt_trace_object@@@Z
??0TRP_ROR_UNION@@QEAA@XZ
??1TRP_ROR_UNION@@UEAA@XZ
?make_quick@TRP_ROR_UNION@@UEAAPEAVQUICK_SELECT_I@@PEAVPARAM@@_NPEAUst_mem_root@@@Z
?trace_basic_info@TRP_ROR_UNION@@UEBAXPEBVPARAM@@PEAVOpt_trace_object@@@Z
??0TRP_INDEX_MERGE@@QEAA@XZ
??1TRP_INDEX_MERGE@@UEAA@XZ
?make_quick@TRP_INDEX_MERGE@@UEAAPEAVQUICK_SELECT_I@@PEAVPARAM@@_NPEAUst_mem_root@@@Z
?trace_basic_info@TRP_INDEX_MERGE@@UEBAXPEBVPARAM@@PEAVOpt_trace_object@@@Z
?trace_basic_info@TRP_GROUP_MIN_MAX@@UEBAXPEBVPARAM@@PEAVOpt_trace_object@@@Z
??0TRP_GROUP_MIN_MAX@@QEAA@_N00PEAVKEY_PART_INFO@@IIIPEAUst_key@@IIPEAEPEAVSEL_TREE@@PEAVSEL_ARG@@I_K@Z
??1TRP_GROUP_MIN_MAX@@UEAA@XZ
?make_quick@TRP_GROUP_MIN_MAX@@UEAAPEAVQUICK_SELECT_I@@PEAVPARAM@@_NPEAUst_mem_root@@@Z
?use_index_scan@TRP_GROUP_MIN_MAX@@QEAAXXZ
??0?$List_iterator_fast@VSEL_IMERGE@@@@QEAA@AEAV?$List@VSEL_IMERGE@@@@@Z
??E?$List_iterator_fast@VSEL_IMERGE@@@@QEAAPEAVSEL_IMERGE@@H@Z
?ror_intersect_cpy@@YAXPEAUROR_INTERSECT_INFO@@PEBU1@@Z
??0?$List_iterator@VItem@@@@QEAA@XZ
?is_spatial_operator@@YA_NW4Functype@Item_func@@@Z
??0Sel_arg_range_sequence@@QEAA@PEAVPARAM@@@Z
?reset@Sel_arg_range_sequence@@QEAAXXZ
?stack_empty@Sel_arg_range_sequence@@QEBA_NXZ
?stack_push_range@Sel_arg_range_sequence@@QEAAXPEAVSEL_ARG@@@Z
?stack_pop_range@Sel_arg_range_sequence@@QEAAXXZ
?stack_size@Sel_arg_range_sequence@@QEBAHXZ
?stack_top@Sel_arg_range_sequence@@QEAAPEAUst_range_seq_entry@@XZ
?sel_arg_range_seq_init@@YAPEAXPEAXII@Z
?sel_arg_range_seq_next@@YAIPEAXPEAUst_key_multi_range@@@Z
??_9Item@@$BCKI@AA
??0?$List@VItem_sum@@@@QEAA@XZ
?push_back@?$List@VItem_sum@@@@QEAA_NPEAVItem_sum@@@Z
??0?$List_iterator@VItem_sum@@@@QEAA@AEAV?$List@VItem_sum@@@@@Z
??E?$List_iterator@VItem_sum@@@@QEAAPEAVItem_sum@@H@Z
?rewind@?$List_iterator@VItem_sum@@@@QEAAXXZ
?add@Opt_trace_struct@@QEAAAEAV1@PEBD_J@Z
??0Explain_context@@QEAA@W4Explain_context_enum@@@Z
??1Explain_context@@QEAA@XZ
??0mem_root_str@qep_row@@QEAA@XZ
?cleanup@mem_root_str@qep_row@@QEAAXXZ
?is_empty@mem_root_str@qep_row@@QEAA_NXZ
?set@mem_root_str@qep_row@@QEAA_NAEBVString@@@Z
?set@mem_root_str@qep_row@@QEAA_NPEBD_K@Z
?strndup_root@mem_root_str@qep_row@@SAPEADPEAUst_mem_root@@PEBD_K@Z
??0?$column@I@qep_row@@QEAA@XZ
?is_empty@?$column@I@qep_row@@QEBA_NXZ
?cleanup@?$column@I@qep_row@@QEAAXXZ
??0?$column@W4type_enum@st_select_lex@@@qep_row@@QEAA@XZ
?cleanup@?$column@W4type_enum@st_select_lex@@@qep_row@@QEAAXXZ
??0?$List@$$CBD@@QEAA@XZ
??1?$List@$$CBD@@QEAA@XZ
??0?$column@_J@qep_row@@QEAA@XZ
?is_empty@?$column@_J@qep_row@@QEBA_NXZ
?cleanup@?$column@_J@qep_row@@QEAAXXZ
??0?$column@M@qep_row@@QEAA@XZ
?is_empty@?$column@M@qep_row@@QEBA_NXZ
?cleanup@?$column@M@qep_row@@QEAAXXZ
??0?$List@Uextra@qep_row@@@@QEAA@XZ
??1?$List@Uextra@qep_row@@@@QEAA@XZ
??0?$List@Vcontext@opt_explain_json_namespace@@@@QEAA@XZ
?push_back@?$List@Vcontext@opt_explain_json_namespace@@@@QEAA_NPEAVcontext@opt_explain_json_namespace@@@Z
?head@?$List@Vcontext@opt_explain_json_namespace@@@@QEAAPEAVcontext@opt_explain_json_namespace@@XZ
??1?$List@Vcontext@opt_explain_json_namespace@@@@QEAA@XZ
??0qep_row@@QEAA@XZ
??1qep_row@@UEAA@XZ
?register_where_subquery@qep_row@@UEAAXPEAVst_select_lex_unit@@@Z
??0?$StringBuffer@$0IA@@@QEAA@PEBUcharset_info_st@@@Z
??1?$StringBuffer@$0IA@@@QEAA@XZ
?get@Explain_format_flags@@QEBA_NW4Explain_sort_clause@@W4Explain_sort_property@@@Z
?send_headers@Explain_format@@UEAA_NPEAVselect_result@@@Z
?send_headers@Explain_format_JSON@@UEAA_NPEAVselect_result@@@Z
?begin_context@Explain_format_JSON@@UEAA_NW4Explain_context_enum@@PEAVst_select_lex_unit@@PEBVExplain_format_flags@@@Z
?end_context@Explain_format_JSON@@UEAA_NW4Explain_context_enum@@@Z
?entry@Explain_format_JSON@@UEAAPEAVqep_row@@XZ
??0context@opt_explain_json_namespace@@QEAA@W4Explain_context_enum@@PEBDPEAV01@@Z
??1context@opt_explain_json_namespace@@UEAA@XZ
?format@context@opt_explain_json_namespace@@UEAA_NPEAVOpt_trace_context@@@Z
?is_query_block@context@opt_explain_json_namespace@@QEBA_NXZ
?cacheable@context@opt_explain_json_namespace@@UEAA_NXZ
?dependent@context@opt_explain_json_namespace@@UEAA_NXZ
?entry@context@opt_explain_json_namespace@@UEAAPEAVqep_row@@XZ
?set_child@context@opt_explain_json_namespace@@UEAAXPEAV12@@Z
?set_union_result@context@opt_explain_json_namespace@@UEAAXPEAVunion_result_ctx@2@@Z
?add_subquery@context@opt_explain_json_namespace@@UEAA_NW4subquery_list_enum@2@PEAVsubquery_ctx@2@@Z
?format_nested_loop@context@opt_explain_json_namespace@@UEAA_NPEAVOpt_trace_context@@@Z
?add_join_tab@context@opt_explain_json_namespace@@UEAA_NPEAVjoinable_ctx@2@@Z
?set_sort@context@opt_explain_json_namespace@@UEAAXPEAVsort_ctx@2@@Z
?add_query_spec@context@opt_explain_json_namespace@@UEAA_NPEAV12@@Z
?find_and_set_derived@context@opt_explain_json_namespace@@UEAA_NPEAV12@@Z
?add_where_subquery@context@opt_explain_json_namespace@@UEAA_NPEAVsubquery_ctx@2@PEAVst_select_lex_unit@@@Z
?format_derived@context@opt_explain_json_namespace@@UEAA_NPEAVOpt_trace_context@@@Z
?format_where@context@opt_explain_json_namespace@@UEAA_NPEAVOpt_trace_context@@@Z
?format_unit@context@opt_explain_json_namespace@@UEAA_NPEAVOpt_trace_context@@@Z
??0subquery_ctx@opt_explain_json_namespace@@QEAA@W4Explain_context_enum@@PEBDPEAVcontext@1@@Z
?entry@subquery_ctx@opt_explain_json_namespace@@UEAAPEAVqep_row@@XZ
?cacheable@subquery_ctx@opt_explain_json_namespace@@UEAA_NXZ
?dependent@subquery_ctx@opt_explain_json_namespace@@UEAA_NXZ
?format@subquery_ctx@opt_explain_json_namespace@@UEAA_NPEAVOpt_trace_context@@@Z
?format_body@subquery_ctx@opt_explain_json_namespace@@EEAA_NPEAVOpt_trace_context@@PEAVOpt_trace_object@@@Z
?format_query_block@subquery_ctx@opt_explain_json_namespace@@AEAA_NPEAVOpt_trace_context@@@Z
?set_child@subquery_ctx@opt_explain_json_namespace@@UEAAXPEAVcontext@2@@Z
?id@subquery_ctx@opt_explain_json_namespace@@UEAA_K_N@Z
??1subquery_ctx@opt_explain_json_namespace@@UEAA@XZ
??_Dsubquery_ctx@opt_explain_json_namespace@@QEAAXXZ
??0?$List@Vsubquery_ctx@opt_explain_json_namespace@@@@QEAA@XZ
?push_back@?$List@Vsubquery_ctx@opt_explain_json_namespace@@@@QEAA_NPEAVsubquery_ctx@opt_explain_json_namespace@@@Z
??1?$List@Vsubquery_ctx@opt_explain_json_namespace@@@@QEAA@XZ
??0?$List_iterator@Vsubquery_ctx@opt_explain_json_namespace@@@@QEAA@AEAV?$List@Vsubquery_ctx@opt_explain_json_namespace@@@@@Z
??E?$List_iterator@Vsubquery_ctx@opt_explain_json_namespace@@@@QEAAPEAVsubquery_ctx@opt_explain_json_namespace@@H@Z
??0unit_ctx@opt_explain_json_namespace@@QEAA@W4Explain_context_enum@@PEBDPEAVcontext@1@@Z
?format_unit@unit_ctx@opt_explain_json_namespace@@UEAA_NPEAVOpt_trace_context@@@Z
?add_subquery@unit_ctx@opt_explain_json_namespace@@UEAA_NW4subquery_list_enum@2@PEAVsubquery_ctx@2@@Z
??1unit_ctx@opt_explain_json_namespace@@UEAA@XZ
??_Dunit_ctx@opt_explain_json_namespace@@QEAAXXZ
??0table_base_ctx@opt_explain_json_namespace@@QEAA@W4Explain_context_enum@@PEBDPEAVcontext@1@@Z
?entry@table_base_ctx@opt_explain_json_namespace@@UEAAPEAVqep_row@@XZ
?format_body@table_base_ctx@opt_explain_json_namespace@@MEAA_NPEAVOpt_trace_context@@PEAVOpt_trace_object@@@Z
?id@table_base_ctx@opt_explain_json_namespace@@UEAA_K_N@Z
?cacheable@table_base_ctx@opt_explain_json_namespace@@UEAA_NXZ
?dependent@table_base_ctx@opt_explain_json_namespace@@UEAA_NXZ
??1table_base_ctx@opt_explain_json_namespace@@UEAA@XZ
??_Dtable_base_ctx@opt_explain_json_namespace@@QEAAXXZ
??0?$List_iterator@$$CBD@@QEAA@AEAV?$List@$$CBD@@@Z
??E?$List_iterator@$$CBD@@QEAAPEBDH@Z
??0?$StringBuffer@$0EA@@@QEAA@XZ
??1?$StringBuffer@$0EA@@@QEAA@XZ
??0?$List_iterator@Uextra@qep_row@@@@QEAA@AEAV?$List@Uextra@qep_row@@@@@Z
??E?$List_iterator@Uextra@qep_row@@@@QEAAPEAUextra@qep_row@@H@Z
??0union_result_ctx@opt_explain_json_namespace@@QEAA@PEAVcontext@1@@Z
?id@union_result_ctx@opt_explain_json_namespace@@UEAA_K_N@Z
?cacheable@union_result_ctx@opt_explain_json_namespace@@UEAA_NXZ
?dependent@union_result_ctx@opt_explain_json_namespace@@UEAA_NXZ
?entry@union_result_ctx@opt_explain_json_namespace@@UEAAPEAVqep_row@@XZ
?format_unit@union_result_ctx@opt_explain_json_namespace@@UEAA_NPEAVOpt_trace_context@@@Z
?push_down_query_specs@union_result_ctx@opt_explain_json_namespace@@QEAAXPEAV?$List@Vcontext@opt_explain_json_namespace@@@@@Z
?add_subquery@union_result_ctx@opt_explain_json_namespace@@UEAA_NW4subquery_list_enum@2@PEAVsubquery_ctx@2@@Z
?format@union_result_ctx@opt_explain_json_namespace@@UEAA_NPEAVOpt_trace_context@@@Z
?format_body@union_result_ctx@opt_explain_json_namespace@@UEAA_NPEAVOpt_trace_context@@PEAVOpt_trace_object@@@Z
??1union_result_ctx@opt_explain_json_namespace@@UEAA@XZ
??_Dunion_result_ctx@opt_explain_json_namespace@@QEAAXXZ
??0?$List_iterator@Vcontext@opt_explain_json_namespace@@@@QEAA@AEAV?$List@Vcontext@opt_explain_json_namespace@@@@@Z
??E?$List_iterator@Vcontext@opt_explain_json_namespace@@@@QEAAPEAVcontext@opt_explain_json_namespace@@H@Z
??0table_with_where_and_derived@opt_explain_json_namespace@@QEAA@W4Explain_context_enum@@PEBDPEAVcontext@1@@Z
?id@table_with_where_and_derived@opt_explain_json_namespace@@UEAA_K_N@Z
?format_where@table_with_where_and_derived@opt_explain_json_namespace@@UEAA_NPEAVOpt_trace_context@@@Z
?format_derived@table_with_where_and_derived@opt_explain_json_namespace@@UEAA_NPEAVOpt_trace_context@@@Z
??1table_with_where_and_derived@opt_explain_json_namespace@@UEAA@XZ
??_Dtable_with_where_and_derived@opt_explain_json_namespace@@QEAAXXZ
??0joinable_ctx@opt_explain_json_namespace@@QEAA@W4Explain_context_enum@@PEBDPEAVcontext@1@@Z
??1joinable_ctx@opt_explain_json_namespace@@UEAA@XZ
??_Djoinable_ctx@opt_explain_json_namespace@@QEAAXXZ
??0message_ctx@opt_explain_json_namespace@@QEAA@PEAVcontext@1@@Z
?format_body@message_ctx@opt_explain_json_namespace@@UEAA_NPEAVOpt_trace_context@@PEAVOpt_trace_object@@@Z
?id@message_ctx@opt_explain_json_namespace@@UEAA_K_N@Z
?cacheable@message_ctx@opt_explain_json_namespace@@UEAA_NXZ
?dependent@message_ctx@opt_explain_json_namespace@@UEAA_NXZ
?entry@message_ctx@opt_explain_json_namespace@@UEAAPEAVqep_row@@XZ
?format_derived@message_ctx@opt_explain_json_namespace@@UEAA_NPEAVOpt_trace_context@@@Z
?format_where@message_ctx@opt_explain_json_namespace@@UEAA_NPEAVOpt_trace_context@@@Z
?find_and_set_derived@message_ctx@opt_explain_json_namespace@@UEAA_NPEAVcontext@2@@Z
?add_where_subquery@message_ctx@opt_explain_json_namespace@@UEAA_NPEAVsubquery_ctx@2@PEAVst_select_lex_unit@@@Z
??1message_ctx@opt_explain_json_namespace@@UEAA@XZ
??_Dmessage_ctx@opt_explain_json_namespace@@QEAAXXZ
??0?$List@Vst_select_lex_unit@@@@QEAA@XZ
?push_back@?$List@Vst_select_lex_unit@@@@QEAA_NPEAVst_select_lex_unit@@@Z
??1?$List@Vst_select_lex_unit@@@@QEAA@XZ
??0join_tab_ctx@opt_explain_json_namespace@@QEAA@W4Explain_context_enum@@PEAVcontext@1@@Z
?format_body@join_tab_ctx@opt_explain_json_namespace@@UEAA_NPEAVOpt_trace_context@@PEAVOpt_trace_object@@@Z
?id@join_tab_ctx@opt_explain_json_namespace@@UEAA_K_N@Z
?cacheable@join_tab_ctx@opt_explain_json_namespace@@UEAA_NXZ
?dependent@join_tab_ctx@opt_explain_json_namespace@@UEAA_NXZ
?entry@join_tab_ctx@opt_explain_json_namespace@@UEAAPEAVqep_row@@XZ
?format_derived@join_tab_ctx@opt_explain_json_namespace@@UEAA_NPEAVOpt_trace_context@@@Z
?format_where@join_tab_ctx@opt_explain_json_namespace@@UEAA_NPEAVOpt_trace_context@@@Z
?register_where_subquery@join_tab_ctx@opt_explain_json_namespace@@UEAAXPEAVst_select_lex_unit@@@Z
?add_where_subquery@join_tab_ctx@opt_explain_json_namespace@@UEAA_NPEAVsubquery_ctx@2@PEAVst_select_lex_unit@@@Z
?find_and_set_derived@join_tab_ctx@opt_explain_json_namespace@@UEAA_NPEAVcontext@2@@Z
??1join_tab_ctx@opt_explain_json_namespace@@UEAA@XZ
??_Djoin_tab_ctx@opt_explain_json_namespace@@QEAAXXZ
??0?$List_iterator@Vst_select_lex_unit@@@@QEAA@AEAV?$List@Vst_select_lex_unit@@@@@Z
??E?$List_iterator@Vst_select_lex_unit@@@@QEAAPEAVst_select_lex_unit@@H@Z
??0simple_sort_ctx@opt_explain_json_namespace@@QEAA@W4Explain_context_enum@@PEBDPEAVcontext@1@PEBVExplain_format_flags@@W4Explain_sort_clause@@@Z
?add_join_tab@simple_sort_ctx@opt_explain_json_namespace@@UEAA_NPEAVjoinable_ctx@2@@Z
?add_where_subquery@simple_sort_ctx@opt_explain_json_namespace@@UEAA_NPEAVsubquery_ctx@2@PEAVst_select_lex_unit@@@Z
?find_and_set_derived@simple_sort_ctx@opt_explain_json_namespace@@UEAA_NPEAVcontext@2@@Z
?id@simple_sort_ctx@opt_explain_json_namespace@@UEAA_K_N@Z
?cacheable@simple_sort_ctx@opt_explain_json_namespace@@UEAA_NXZ
?dependent@simple_sort_ctx@opt_explain_json_namespace@@UEAA_NXZ
?format_body@simple_sort_ctx@opt_explain_json_namespace@@MEAA_NPEAVOpt_trace_context@@PEAVOpt_trace_object@@@Z
??1simple_sort_ctx@opt_explain_json_namespace@@UEAA@XZ
??_Dsimple_sort_ctx@opt_explain_json_namespace@@QEAAXXZ
??0simple_sort_with_subqueries_ctx@opt_explain_json_namespace@@QEAA@W4Explain_context_enum@@PEBDPEAVcontext@1@W4subquery_list_enum@1@PEBVExplain_format_flags@@W4Explain_sort_clause@@@Z
?add_subquery@simple_sort_with_subqueries_ctx@opt_explain_json_namespace@@UEAA_NW4subquery_list_enum@2@PEAVsubquery_ctx@2@@Z
?format_body@simple_sort_with_subqueries_ctx@opt_explain_json_namespace@@EEAA_NPEAVOpt_trace_context@@PEAVOpt_trace_object@@@Z
??1simple_sort_with_subqueries_ctx@opt_explain_json_namespace@@UEAA@XZ
??_Dsimple_sort_with_subqueries_ctx@opt_explain_json_namespace@@QEAAXXZ
??0?$List@Vjoinable_ctx@opt_explain_json_namespace@@@@QEAA@XZ
?push_back@?$List@Vjoinable_ctx@opt_explain_json_namespace@@@@QEAA_NPEAVjoinable_ctx@opt_explain_json_namespace@@@Z
?head@?$List@Vjoinable_ctx@opt_explain_json_namespace@@@@QEAAPEAVjoinable_ctx@opt_explain_json_namespace@@XZ
??1?$List@Vjoinable_ctx@opt_explain_json_namespace@@@@QEAA@XZ
??0join_ctx@opt_explain_json_namespace@@QEAA@W4Explain_context_enum@@PEBDPEAVcontext@1@@Z
?add_join_tab@join_ctx@opt_explain_json_namespace@@UEAA_NPEAVjoinable_ctx@2@@Z
?set_sort@join_ctx@opt_explain_json_namespace@@UEAAXPEAVsort_ctx@2@@Z
?find_and_set_derived@join_ctx@opt_explain_json_namespace@@UEAA_NPEAVcontext@2@@Z
?add_subquery@join_ctx@opt_explain_json_namespace@@UEAA_NW4subquery_list_enum@2@PEAVsubquery_ctx@2@@Z
?format_body@join_ctx@opt_explain_json_namespace@@MEAA_NPEAVOpt_trace_context@@PEAVOpt_trace_object@@@Z
?format_nested_loop@join_ctx@opt_explain_json_namespace@@UEAA_NPEAVOpt_trace_context@@@Z
?id@join_ctx@opt_explain_json_namespace@@UEAA_K_N@Z
?cacheable@join_ctx@opt_explain_json_namespace@@UEAA_NXZ
?dependent@join_ctx@opt_explain_json_namespace@@UEAA_NXZ
?add_where_subquery@join_ctx@opt_explain_json_namespace@@UEAA_NPEAVsubquery_ctx@2@PEAVst_select_lex_unit@@@Z
??1join_ctx@opt_explain_json_namespace@@UEAA@XZ
??_Djoin_ctx@opt_explain_json_namespace@@QEAAXXZ
??0sort_ctx@opt_explain_json_namespace@@QEAA@W4Explain_context_enum@@PEBDPEAVcontext@1@PEBVExplain_format_flags@@W4Explain_sort_clause@@@Z
?format_body@sort_ctx@opt_explain_json_namespace@@MEAA_NPEAVOpt_trace_context@@PEAVOpt_trace_object@@@Z
??1sort_ctx@opt_explain_json_namespace@@UEAA@XZ
??_Dsort_ctx@opt_explain_json_namespace@@QEAAXXZ
??0sort_with_subqueries_ctx@opt_explain_json_namespace@@QEAA@W4Explain_context_enum@@PEBDPEAVcontext@1@W4subquery_list_enum@1@PEBVExplain_format_flags@@W4Explain_sort_clause@@@Z
?add_subquery@sort_with_subqueries_ctx@opt_explain_json_namespace@@UEAA_NW4subquery_list_enum@2@PEAVsubquery_ctx@2@@Z
?format_body@sort_with_subqueries_ctx@opt_explain_json_namespace@@EEAA_NPEAVOpt_trace_context@@PEAVOpt_trace_object@@@Z
??1sort_with_subqueries_ctx@opt_explain_json_namespace@@UEAA@XZ
??_Dsort_with_subqueries_ctx@opt_explain_json_namespace@@QEAAXXZ
??0?$List_iterator@Vjoinable_ctx@opt_explain_json_namespace@@@@QEAA@AEAV?$List@Vjoinable_ctx@opt_explain_json_namespace@@@@@Z
??E?$List_iterator@Vjoinable_ctx@opt_explain_json_namespace@@@@QEAAPEAVjoinable_ctx@opt_explain_json_namespace@@H@Z
??0materialize_ctx@opt_explain_json_namespace@@QEAA@PEAVcontext@1@@Z
?id@materialize_ctx@opt_explain_json_namespace@@UEAA_K_N@Z
?cacheable@materialize_ctx@opt_explain_json_namespace@@UEAA_NXZ
?dependent@materialize_ctx@opt_explain_json_namespace@@UEAA_NXZ
?entry@materialize_ctx@opt_explain_json_namespace@@UEAAPEAVqep_row@@XZ
?add_subquery@materialize_ctx@opt_explain_json_namespace@@UEAA_NW4subquery_list_enum@2@PEAVsubquery_ctx@2@@Z
?add_join_tab@materialize_ctx@opt_explain_json_namespace@@UEAA_NPEAVjoinable_ctx@2@@Z
?add_where_subquery@materialize_ctx@opt_explain_json_namespace@@UEAA_NPEAVsubquery_ctx@2@PEAVst_select_lex_unit@@@Z
?find_and_set_derived@materialize_ctx@opt_explain_json_namespace@@UEAA_NPEAVcontext@2@@Z
?format_unit@materialize_ctx@opt_explain_json_namespace@@UEAA_NPEAVOpt_trace_context@@@Z
?format_nested_loop@materialize_ctx@opt_explain_json_namespace@@UEAA_NPEAVOpt_trace_context@@@Z
?set_sort@materialize_ctx@opt_explain_json_namespace@@UEAAXPEAVsort_ctx@2@@Z
?format_body@materialize_ctx@opt_explain_json_namespace@@EEAA_NPEAVOpt_trace_context@@PEAVOpt_trace_object@@@Z
??1materialize_ctx@opt_explain_json_namespace@@UEAA@XZ
??_Dmaterialize_ctx@opt_explain_json_namespace@@QEAAXXZ
??0duplication_weedout_ctx@opt_explain_json_namespace@@QEAA@PEAVcontext@1@@Z
?id@duplication_weedout_ctx@opt_explain_json_namespace@@UEAA_K_N@Z
?cacheable@duplication_weedout_ctx@opt_explain_json_namespace@@UEAA_NXZ
?dependent@duplication_weedout_ctx@opt_explain_json_namespace@@UEAA_NXZ
?add_join_tab@duplication_weedout_ctx@opt_explain_json_namespace@@UEAA_NPEAVjoinable_ctx@2@@Z
?add_subquery@duplication_weedout_ctx@opt_explain_json_namespace@@UEAA_NW4subquery_list_enum@2@PEAVsubquery_ctx@2@@Z
?add_where_subquery@duplication_weedout_ctx@opt_explain_json_namespace@@UEAA_NPEAVsubquery_ctx@2@PEAVst_select_lex_unit@@@Z
?find_and_set_derived@duplication_weedout_ctx@opt_explain_json_namespace@@UEAA_NPEAVcontext@2@@Z
?format_nested_loop@duplication_weedout_ctx@opt_explain_json_namespace@@UEAA_NPEAVOpt_trace_context@@@Z
?format_unit@duplication_weedout_ctx@opt_explain_json_namespace@@UEAA_NPEAVOpt_trace_context@@@Z
?set_sort@duplication_weedout_ctx@opt_explain_json_namespace@@UEAAXPEAVsort_ctx@2@@Z
?format_body@duplication_weedout_ctx@opt_explain_json_namespace@@EEAA_NPEAVOpt_trace_context@@PEAVOpt_trace_object@@@Z
??1duplication_weedout_ctx@opt_explain_json_namespace@@UEAA@XZ
??_Dduplication_weedout_ctx@opt_explain_json_namespace@@QEAAXXZ
??0union_ctx@opt_explain_json_namespace@@QEAA@PEAVcontext@1@@Z
?format_body@union_ctx@opt_explain_json_namespace@@EEAA_NPEAVOpt_trace_context@@PEAVOpt_trace_object@@@Z
?id@union_ctx@opt_explain_json_namespace@@UEAA_K_N@Z
?cacheable@union_ctx@opt_explain_json_namespace@@UEAA_NXZ
?dependent@union_ctx@opt_explain_json_namespace@@UEAA_NXZ
?set_union_result@union_ctx@opt_explain_json_namespace@@UEAAXPEAVunion_result_ctx@2@@Z
?add_query_spec@union_ctx@opt_explain_json_namespace@@UEAA_NPEAVcontext@2@@Z
??1union_ctx@opt_explain_json_namespace@@UEAA@XZ
??_Dunion_ctx@opt_explain_json_namespace@@QEAAXXZ
?format_body@sort_ctx@opt_explain_json_namespace@@$2PPPPPPPM@A@EAA_NPEAVOpt_trace_context@@PEAVOpt_trace_object@@@Z
?id@join_ctx@opt_explain_json_namespace@@$4PPPPPPPM@7EAA_K_N@Z
?cacheable@join_ctx@opt_explain_json_namespace@@$4PPPPPPPM@7EAA_NXZ
?dependent@join_ctx@opt_explain_json_namespace@@$4PPPPPPPM@7EAA_NXZ
?add_subquery@join_ctx@opt_explain_json_namespace@@$4PPPPPPPM@7EAA_NW4subquery_list_enum@2@PEAVsubquery_ctx@2@@Z
?format_nested_loop@join_ctx@opt_explain_json_namespace@@$4PPPPPPPM@7EAA_NPEAVOpt_trace_context@@@Z
?add_join_tab@join_ctx@opt_explain_json_namespace@@$4PPPPPPPM@7EAA_NPEAVjoinable_ctx@2@@Z
?set_sort@join_ctx@opt_explain_json_namespace@@$4PPPPPPPM@7EAAXPEAVsort_ctx@2@@Z
?find_and_set_derived@join_ctx@opt_explain_json_namespace@@$4PPPPPPPM@7EAA_NPEAVcontext@2@@Z
?add_where_subquery@join_ctx@opt_explain_json_namespace@@$4PPPPPPPM@7EAA_NPEAVsubquery_ctx@2@PEAVst_select_lex_unit@@@Z
?format_unit@unit_ctx@opt_explain_json_namespace@@$4PPPPPPPM@CI@EAA_NPEAVOpt_trace_context@@@Z
?format@subquery_ctx@opt_explain_json_namespace@@$4PPPPPPPM@A@EAA_NPEAVOpt_trace_context@@@Z
?format_body@subquery_ctx@opt_explain_json_namespace@@$0PPPPPPPM@A@EAA_NPEAVOpt_trace_context@@PEAVOpt_trace_object@@@Z
?id@subquery_ctx@opt_explain_json_namespace@@$4PPPPPPPM@A@EAA_K_N@Z
?cacheable@subquery_ctx@opt_explain_json_namespace@@$4PPPPPPPM@A@EAA_NXZ
?dependent@subquery_ctx@opt_explain_json_namespace@@$4PPPPPPPM@A@EAA_NXZ
?entry@subquery_ctx@opt_explain_json_namespace@@$4PPPPPPPM@A@EAAPEAVqep_row@@XZ
?set_child@subquery_ctx@opt_explain_json_namespace@@$4PPPPPPPM@A@EAAXPEAVcontext@2@@Z
?format@union_result_ctx@opt_explain_json_namespace@@$4PPPPPPPM@A@EAA_NPEAVOpt_trace_context@@@Z
?format_body@union_result_ctx@opt_explain_json_namespace@@$4PPPPPPPM@A@EAA_NPEAVOpt_trace_context@@PEAVOpt_trace_object@@@Z
?id@union_result_ctx@opt_explain_json_namespace@@$4PPPPPPPM@A@EAA_K_N@Z
?cacheable@union_result_ctx@opt_explain_json_namespace@@$4PPPPPPPM@A@EAA_NXZ
?dependent@union_result_ctx@opt_explain_json_namespace@@$4PPPPPPPM@A@EAA_NXZ
?entry@union_result_ctx@opt_explain_json_namespace@@$4PPPPPPPM@A@EAAPEAVqep_row@@XZ
?add_subquery@union_result_ctx@opt_explain_json_namespace@@$4PPPPPPPM@A@EAA_NW4subquery_list_enum@2@PEAVsubquery_ctx@2@@Z
?format_unit@union_result_ctx@opt_explain_json_namespace@@$4PPPPPPPM@A@EAA_NPEAVOpt_trace_context@@@Z
?add_subquery@unit_ctx@opt_explain_json_namespace@@$4PPPPPPPM@A@EAA_NW4subquery_list_enum@2@PEAVsubquery_ctx@2@@Z
?format_unit@unit_ctx@opt_explain_json_namespace@@$4PPPPPPPM@A@EAA_NPEAVOpt_trace_context@@@Z
?format_body@table_base_ctx@opt_explain_json_namespace@@$2PPPPPPPM@A@EAA_NPEAVOpt_trace_context@@PEAVOpt_trace_object@@@Z
?id@table_base_ctx@opt_explain_json_namespace@@$4PPPPPPPM@A@EAA_K_N@Z
?cacheable@table_base_ctx@opt_explain_json_namespace@@$4PPPPPPPM@A@EAA_NXZ
?dependent@table_base_ctx@opt_explain_json_namespace@@$4PPPPPPPM@A@EAA_NXZ
?entry@table_base_ctx@opt_explain_json_namespace@@$4PPPPPPPM@A@EAAPEAVqep_row@@XZ
?format_body@table_base_ctx@opt_explain_json_namespace@@$2PPPPPPPM@BI@EAA_NPEAVOpt_trace_context@@PEAVOpt_trace_object@@@Z
?id@table_with_where_and_derived@opt_explain_json_namespace@@$4PPPPPPPM@A@EAA_K_N@Z
?cacheable@table_base_ctx@opt_explain_json_namespace@@$4PPPPPPPM@BI@EAA_NXZ
?dependent@table_base_ctx@opt_explain_json_namespace@@$4PPPPPPPM@BI@EAA_NXZ
?entry@table_base_ctx@opt_explain_json_namespace@@$4PPPPPPPM@BI@EAAPEAVqep_row@@XZ
?format_derived@table_with_where_and_derived@opt_explain_json_namespace@@$4PPPPPPPM@A@EAA_NPEAVOpt_trace_context@@@Z
?format_where@table_with_where_and_derived@opt_explain_json_namespace@@$4PPPPPPPM@A@EAA_NPEAVOpt_trace_context@@@Z
?format_body@message_ctx@opt_explain_json_namespace@@$4PPPPPPPM@A@EAA_NPEAVOpt_trace_context@@PEAVOpt_trace_object@@@Z
?id@message_ctx@opt_explain_json_namespace@@$4PPPPPPPM@A@EAA_K_N@Z
?cacheable@message_ctx@opt_explain_json_namespace@@$4PPPPPPPM@A@EAA_NXZ
?dependent@message_ctx@opt_explain_json_namespace@@$4PPPPPPPM@A@EAA_NXZ
?entry@message_ctx@opt_explain_json_namespace@@$4PPPPPPPM@A@EAAPEAVqep_row@@XZ
?find_and_set_derived@message_ctx@opt_explain_json_namespace@@$4PPPPPPPM@A@EAA_NPEAVcontext@2@@Z
?add_where_subquery@message_ctx@opt_explain_json_namespace@@$4PPPPPPPM@A@EAA_NPEAVsubquery_ctx@2@PEAVst_select_lex_unit@@@Z
?format_derived@message_ctx@opt_explain_json_namespace@@$4PPPPPPPM@A@EAA_NPEAVOpt_trace_context@@@Z
?format_where@message_ctx@opt_explain_json_namespace@@$4PPPPPPPM@A@EAA_NPEAVOpt_trace_context@@@Z
?format_body@join_tab_ctx@opt_explain_json_namespace@@$4PPPPPPPM@A@EAA_NPEAVOpt_trace_context@@PEAVOpt_trace_object@@@Z
?id@join_tab_ctx@opt_explain_json_namespace@@$4PPPPPPPM@A@EAA_K_N@Z
?cacheable@join_tab_ctx@opt_explain_json_namespace@@$4PPPPPPPM@A@EAA_NXZ
?dependent@join_tab_ctx@opt_explain_json_namespace@@$4PPPPPPPM@A@EAA_NXZ
?entry@join_tab_ctx@opt_explain_json_namespace@@$4PPPPPPPM@A@EAAPEAVqep_row@@XZ
?find_and_set_derived@join_tab_ctx@opt_explain_json_namespace@@$4PPPPPPPM@A@EAA_NPEAVcontext@2@@Z
?add_where_subquery@join_tab_ctx@opt_explain_json_namespace@@$4PPPPPPPM@A@EAA_NPEAVsubquery_ctx@2@PEAVst_select_lex_unit@@@Z
?format_derived@join_tab_ctx@opt_explain_json_namespace@@$4PPPPPPPM@A@EAA_NPEAVOpt_trace_context@@@Z
?format_where@join_tab_ctx@opt_explain_json_namespace@@$4PPPPPPPM@A@EAA_NPEAVOpt_trace_context@@@Z
?format_body@simple_sort_ctx@opt_explain_json_namespace@@$2PPPPPPPM@A@EAA_NPEAVOpt_trace_context@@PEAVOpt_trace_object@@@Z
?id@simple_sort_ctx@opt_explain_json_namespace@@$4PPPPPPPM@A@EAA_K_N@Z
?cacheable@simple_sort_ctx@opt_explain_json_namespace@@$4PPPPPPPM@A@EAA_NXZ
?dependent@simple_sort_ctx@opt_explain_json_namespace@@$4PPPPPPPM@A@EAA_NXZ
?add_join_tab@simple_sort_ctx@opt_explain_json_namespace@@$4PPPPPPPM@A@EAA_NPEAVjoinable_ctx@2@@Z
?find_and_set_derived@simple_sort_ctx@opt_explain_json_namespace@@$4PPPPPPPM@A@EAA_NPEAVcontext@2@@Z
?add_where_subquery@simple_sort_ctx@opt_explain_json_namespace@@$4PPPPPPPM@A@EAA_NPEAVsubquery_ctx@2@PEAVst_select_lex_unit@@@Z
?format_body@simple_sort_with_subqueries_ctx@opt_explain_json_namespace@@$0PPPPPPPM@A@EAA_NPEAVOpt_trace_context@@PEAVOpt_trace_object@@@Z
?id@simple_sort_ctx@opt_explain_json_namespace@@$4PPPPPPPM@CA@EAA_K_N@Z
?cacheable@simple_sort_ctx@opt_explain_json_namespace@@$4PPPPPPPM@CA@EAA_NXZ
?dependent@simple_sort_ctx@opt_explain_json_namespace@@$4PPPPPPPM@CA@EAA_NXZ
?add_subquery@simple_sort_with_subqueries_ctx@opt_explain_json_namespace@@$4PPPPPPPM@A@EAA_NW4subquery_list_enum@2@PEAVsubquery_ctx@2@@Z
?add_join_tab@simple_sort_ctx@opt_explain_json_namespace@@$4PPPPPPPM@CA@EAA_NPEAVjoinable_ctx@2@@Z
?find_and_set_derived@simple_sort_ctx@opt_explain_json_namespace@@$4PPPPPPPM@CA@EAA_NPEAVcontext@2@@Z
?add_where_subquery@simple_sort_ctx@opt_explain_json_namespace@@$4PPPPPPPM@CA@EAA_NPEAVsubquery_ctx@2@PEAVst_select_lex_unit@@@Z
?format_body@join_ctx@opt_explain_json_namespace@@$2PPPPPPPM@A@EAA_NPEAVOpt_trace_context@@PEAVOpt_trace_object@@@Z
?id@join_ctx@opt_explain_json_namespace@@$4PPPPPPPM@A@EAA_K_N@Z
?cacheable@join_ctx@opt_explain_json_namespace@@$4PPPPPPPM@A@EAA_NXZ
?dependent@join_ctx@opt_explain_json_namespace@@$4PPPPPPPM@A@EAA_NXZ
?add_subquery@join_ctx@opt_explain_json_namespace@@$4PPPPPPPM@A@EAA_NW4subquery_list_enum@2@PEAVsubquery_ctx@2@@Z
?format_nested_loop@join_ctx@opt_explain_json_namespace@@$4PPPPPPPM@A@EAA_NPEAVOpt_trace_context@@@Z
?add_join_tab@join_ctx@opt_explain_json_namespace@@$4PPPPPPPM@A@EAA_NPEAVjoinable_ctx@2@@Z
?set_sort@join_ctx@opt_explain_json_namespace@@$4PPPPPPPM@A@EAAXPEAVsort_ctx@2@@Z
?find_and_set_derived@join_ctx@opt_explain_json_namespace@@$4PPPPPPPM@A@EAA_NPEAVcontext@2@@Z
?add_where_subquery@join_ctx@opt_explain_json_namespace@@$4PPPPPPPM@A@EAA_NPEAVsubquery_ctx@2@PEAVst_select_lex_unit@@@Z
?format_unit@unit_ctx@opt_explain_json_namespace@@$4PPPPPPPM@CA@EAA_NPEAVOpt_trace_context@@@Z
?format_body@sort_with_subqueries_ctx@opt_explain_json_namespace@@$0PPPPPPPM@A@EAA_NPEAVOpt_trace_context@@PEAVOpt_trace_object@@@Z
?id@join_ctx@opt_explain_json_namespace@@$4PPPPPPPM@CI@EAA_K_N@Z
?cacheable@join_ctx@opt_explain_json_namespace@@$4PPPPPPPM@CI@EAA_NXZ
?dependent@join_ctx@opt_explain_json_namespace@@$4PPPPPPPM@CI@EAA_NXZ
?add_subquery@sort_with_subqueries_ctx@opt_explain_json_namespace@@$4PPPPPPPM@A@EAA_NW4subquery_list_enum@2@PEAVsubquery_ctx@2@@Z
?format_nested_loop@join_ctx@opt_explain_json_namespace@@$4PPPPPPPM@CI@EAA_NPEAVOpt_trace_context@@@Z
?add_join_tab@join_ctx@opt_explain_json_namespace@@$4PPPPPPPM@CI@EAA_NPEAVjoinable_ctx@2@@Z
?set_sort@join_ctx@opt_explain_json_namespace@@$4PPPPPPPM@CI@EAAXPEAVsort_ctx@2@@Z
?find_and_set_derived@join_ctx@opt_explain_json_namespace@@$4PPPPPPPM@CI@EAA_NPEAVcontext@2@@Z
?add_where_subquery@join_ctx@opt_explain_json_namespace@@$4PPPPPPPM@CI@EAA_NPEAVsubquery_ctx@2@PEAVst_select_lex_unit@@@Z
?format_unit@unit_ctx@opt_explain_json_namespace@@$4PPPPPPPM@EI@EAA_NPEAVOpt_trace_context@@@Z
?format_body@materialize_ctx@opt_explain_json_namespace@@$0PPPPPPPM@A@EAA_NPEAVOpt_trace_context@@PEAVOpt_trace_object@@@Z
?id@materialize_ctx@opt_explain_json_namespace@@$4PPPPPPPM@A@EAA_K_N@Z
?cacheable@materialize_ctx@opt_explain_json_namespace@@$4PPPPPPPM@A@EAA_NXZ
?dependent@materialize_ctx@opt_explain_json_namespace@@$4PPPPPPPM@A@EAA_NXZ
?entry@materialize_ctx@opt_explain_json_namespace@@$4PPPPPPPM@A@EAAPEAVqep_row@@XZ
?add_subquery@materialize_ctx@opt_explain_json_namespace@@$4PPPPPPPM@A@EAA_NW4subquery_list_enum@2@PEAVsubquery_ctx@2@@Z
?format_nested_loop@materialize_ctx@opt_explain_json_namespace@@$4PPPPPPPM@A@EAA_NPEAVOpt_trace_context@@@Z
?add_join_tab@materialize_ctx@opt_explain_json_namespace@@$4PPPPPPPM@A@EAA_NPEAVjoinable_ctx@2@@Z
?set_sort@materialize_ctx@opt_explain_json_namespace@@$4PPPPPPPM@A@EAAXPEAVsort_ctx@2@@Z
?find_and_set_derived@materialize_ctx@opt_explain_json_namespace@@$4PPPPPPPM@A@EAA_NPEAVcontext@2@@Z
?add_where_subquery@materialize_ctx@opt_explain_json_namespace@@$4PPPPPPPM@A@EAA_NPEAVsubquery_ctx@2@PEAVst_select_lex_unit@@@Z
?format_unit@materialize_ctx@opt_explain_json_namespace@@$4PPPPPPPM@A@EAA_NPEAVOpt_trace_context@@@Z
?format_body@duplication_weedout_ctx@opt_explain_json_namespace@@$0PPPPPPPM@A@EAA_NPEAVOpt_trace_context@@PEAVOpt_trace_object@@@Z
?id@duplication_weedout_ctx@opt_explain_json_namespace@@$4PPPPPPPM@A@EAA_K_N@Z
?cacheable@duplication_weedout_ctx@opt_explain_json_namespace@@$4PPPPPPPM@A@EAA_NXZ
?dependent@duplication_weedout_ctx@opt_explain_json_namespace@@$4PPPPPPPM@A@EAA_NXZ
?add_subquery@duplication_weedout_ctx@opt_explain_json_namespace@@$4PPPPPPPM@A@EAA_NW4subquery_list_enum@2@PEAVsubquery_ctx@2@@Z
?format_nested_loop@duplication_weedout_ctx@opt_explain_json_namespace@@$4PPPPPPPM@A@EAA_NPEAVOpt_trace_context@@@Z
?add_join_tab@duplication_weedout_ctx@opt_explain_json_namespace@@$4PPPPPPPM@A@EAA_NPEAVjoinable_ctx@2@@Z
?set_sort@duplication_weedout_ctx@opt_explain_json_namespace@@$4PPPPPPPM@A@EAAXPEAVsort_ctx@2@@Z
?find_and_set_derived@duplication_weedout_ctx@opt_explain_json_namespace@@$4PPPPPPPM@A@EAA_NPEAVcontext@2@@Z
?add_where_subquery@duplication_weedout_ctx@opt_explain_json_namespace@@$4PPPPPPPM@A@EAA_NPEAVsubquery_ctx@2@PEAVst_select_lex_unit@@@Z
?format_unit@duplication_weedout_ctx@opt_explain_json_namespace@@$4PPPPPPPM@A@EAA_NPEAVOpt_trace_context@@@Z
?format_body@union_ctx@opt_explain_json_namespace@@$0PPPPPPPM@A@EAA_NPEAVOpt_trace_context@@PEAVOpt_trace_object@@@Z
?id@union_ctx@opt_explain_json_namespace@@$4PPPPPPPM@A@EAA_K_N@Z
?cacheable@union_ctx@opt_explain_json_namespace@@$4PPPPPPPM@A@EAA_NXZ
?dependent@union_ctx@opt_explain_json_namespace@@$4PPPPPPPM@A@EAA_NXZ
?set_union_result@union_ctx@opt_explain_json_namespace@@$4PPPPPPPM@A@EAAXPEAVunion_result_ctx@2@@Z
?add_subquery@unit_ctx@opt_explain_json_namespace@@$4PPPPPPPM@CA@EAA_NW4subquery_list_enum@2@PEAVsubquery_ctx@2@@Z
?add_query_spec@union_ctx@opt_explain_json_namespace@@$4PPPPPPPM@A@EAA_NPEAVcontext@2@@Z
??_8subquery_ctx@opt_explain_json_namespace@@7B@ DATA
??_8unit_ctx@opt_explain_json_namespace@@7B@ DATA
??_8table_base_ctx@opt_explain_json_namespace@@7B@ DATA
??_8union_result_ctx@opt_explain_json_namespace@@7Btable_base_ctx@1@@ DATA
??_8union_result_ctx@opt_explain_json_namespace@@7Bunit_ctx@1@@ DATA
??_8table_with_where_and_derived@opt_explain_json_namespace@@7B@ DATA
??_8joinable_ctx@opt_explain_json_namespace@@7B@ DATA
??_8message_ctx@opt_explain_json_namespace@@7Bjoinable_ctx@1@@ DATA
??_8message_ctx@opt_explain_json_namespace@@7Btable_with_where_and_derived@1@@ DATA
??_8join_tab_ctx@opt_explain_json_namespace@@7Bjoinable_ctx@1@@ DATA
??_8join_tab_ctx@opt_explain_json_namespace@@7Btable_with_where_and_derived@1@@ DATA
??_8simple_sort_ctx@opt_explain_json_namespace@@7B@ DATA
??_8simple_sort_with_subqueries_ctx@opt_explain_json_namespace@@7B@ DATA
??_8join_ctx@opt_explain_json_namespace@@7B@ DATA
??_8sort_ctx@opt_explain_json_namespace@@7B@ DATA
??_8sort_with_subqueries_ctx@opt_explain_json_namespace@@7B@ DATA
??_8materialize_ctx@opt_explain_json_namespace@@7Bjoinable_ctx@1@@ DATA
??_8materialize_ctx@opt_explain_json_namespace@@7Bjoin_ctx@1@@ DATA
??_8materialize_ctx@opt_explain_json_namespace@@7Btable_base_ctx@1@@ DATA
??_8duplication_weedout_ctx@opt_explain_json_namespace@@7Bjoinable_ctx@1@@ DATA
??_8duplication_weedout_ctx@opt_explain_json_namespace@@7Bjoin_ctx@1@@ DATA
??_8union_ctx@opt_explain_json_namespace@@7B@ DATA
??0Item_float@@QEAA@NI@Z
?get_type_str@st_select_lex@@SAPEBDW4type_enum@1@@Z
?get@?$column@I@qep_row@@QEBAIXZ
?is_empty@?$column@W4type_enum@st_select_lex@@@qep_row@@QEBA_NXZ
?get@?$column@W4type_enum@st_select_lex@@@qep_row@@QEBA?AW4type_enum@st_select_lex@@XZ
?get@?$column@_J@qep_row@@QEBA_JXZ
?get@?$column@M@qep_row@@QEBAMXZ
?cleanup@qep_row@@QEAAXXZ
?send_headers@Explain_format_traditional@@UEAA_NPEAVselect_result@@@Z
?flush_entry@Explain_format_traditional@@UEAA_NXZ
?push_select_type@Explain_format_traditional@@AEAA_NPEAV?$List@VItem@@@@@Z
??0?$StringBuffer@$0EAA@@@QEAA@XZ
??1?$StringBuffer@$0EAA@@@QEAA@XZ
??0?$StringBuffer@$0EA@@@QEAA@PEBUcharset_info_st@@@Z
?join_type_str@@3PAPEBDA DATA
?explain_no_table@@YA_NPEAVTHD@@PEAVJOIN@@PEBD@Z
?explain_no_table@@YA_NPEAVTHD@@PEBD_K@Z
?explain_single_table_modification@@YA_NPEAVTHD@@PEAUTABLE@@PEBVSQL_SELECT@@I_K_N444@Z
?explain_query_specification@@YA_NPEAVTHD@@PEAVJOIN@@@Z
?explain_multi_table_modification@@YA_NPEAVTHD@@PEAVselect_result_interceptor@@@Z
?explain_query_expression@@YA_NPEAVTHD@@PEAVselect_result@@@Z
?get_engine_for_explain@Item_subselect@@QEBAPEBVsubselect_engine@@XZ
?get_join_tab@subselect_hash_sj_engine@@QEBAPEBUst_join_table@@XZ
?last_select@st_select_lex@@QEAAPEAV1@XZ
?get_type_str@st_select_lex@@QEAAPEBDPEBVTHD@@@Z
?is_dependent@st_select_lex@@QEBA_NXZ
?reset_offset_limit_cnt@select_result@@QEAAXXZ
??1Lazy@@UEAA@XZ
??0Lazy@@QEAA@XZ
?set@mem_root_str@qep_row@@QEAA_NPEBD@Z
?set@mem_root_str@qep_row@@QEAAXPEAVLazy@@@Z
?set_const@mem_root_str@qep_row@@QEAAXPEBD@Z
?set_const@mem_root_str@qep_row@@QEAAXPEBD_K@Z
??0extra@qep_row@@QEAA@W4Extra_tag@@PEBD@Z
?set@?$column@I@qep_row@@QEAAXI@Z
?set@?$column@W4type_enum@st_select_lex@@@qep_row@@QEAAXW4type_enum@st_select_lex@@@Z
?set@?$column@_J@qep_row@@QEAAX_J@Z
?set@?$column@M@qep_row@@QEAAXM@Z
?push_back@?$List@Uextra@qep_row@@@@QEAA_NPEAUextra@qep_row@@@Z
??0Explain_subquery_marker@@QEAA@PEAVqep_row@@W4Explain_context_enum@@@Z
?any@Explain_format_flags@@QEBA_NW4Explain_sort_property@@@Z
??0Lazy_condition@Explain@@QEAA@PEAVItem@@@Z
?eval@Lazy_condition@Explain@@UEAA_NPEAVString@@@Z
??1Lazy_condition@Explain@@UEAA@XZ
??0Explain@@IEAA@W4Explain_context_enum@@PEAVTHD@@PEAVJOIN@@@Z
??1Explain@@UEAA@XZ
?send@Explain@@QEAA_NXZ
?shallow_explain@Explain@@MEAA_NXZ
?explain_subqueries@Explain@@IEAA_NPEAVselect_result@@@Z
?mark_subqueries@Explain@@IEAA_NPEAVItem@@PEAVqep_row@@W4Explain_context_enum@@@Z
?mark_order_subqueries@Explain@@IEAA_NAEBVORDER_with_src@JOIN@@@Z
?prepare_columns@Explain@@IEAA_NXZ
?describe@Explain@@IEBA_NE@Z
?select_lex@Explain@@IEBAPEAVst_select_lex@@XZ
?prepare@Explain@@IEAA_NPEAVselect_result@@@Z
?push_extra@Explain@@IEAA_NW4Extra_tag@@@Z
?push_extra@Explain@@IEAA_NW4Extra_tag@@AEBVString@@@Z
?push_extra@Explain@@IEAA_NW4Extra_tag@@PEBD@Z
?explain_id@Explain@@MEAA_NXZ
?explain_select_type@Explain@@MEAA_NXZ
?explain_table_name@Explain@@MEAA_NXZ
?explain_partitions@Explain@@MEAA_NXZ
?explain_join_type@Explain@@MEAA_NXZ
?explain_possible_keys@Explain@@MEAA_NXZ
?explain_key_and_len@Explain@@MEAA_NXZ
?explain_ref@Explain@@MEAA_NXZ
?explain_rows_and_filtered@Explain@@MEAA_NXZ
?explain_extra@Explain@@MEAA_NXZ
?explain_modify_flags@Explain@@MEAA_NXZ
??0Explain_no_table@@QEAA@PEAVTHD@@PEAVJOIN@@PEBD@Z
??0Explain_no_table@@QEAA@PEAVTHD@@PEBD_K@Z
?shallow_explain@Explain_no_table@@MEAA_NXZ
?explain_rows_and_filtered@Explain_no_table@@MEAA_NXZ
?explain_extra@Explain_no_table@@MEAA_NXZ
??1Explain_no_table@@UEAA@XZ
??0Explain_union_result@@QEAA@PEAVTHD@@PEAVJOIN@@@Z
?explain_id@Explain_union_result@@MEAA_NXZ
?explain_table_name@Explain_union_result@@MEAA_NXZ
?explain_join_type@Explain_union_result@@MEAA_NXZ
?explain_extra@Explain_union_result@@MEAA_NXZ
??1Explain_union_result@@UEAA@XZ
??0Explain_table_base@@IEAA@W4Explain_context_enum@@QEAVTHD@@QEAVJOIN@@@Z
??0Explain_table_base@@IEAA@W4Explain_context_enum@@QEAVTHD@@QEAUTABLE@@@Z
?explain_partitions@Explain_table_base@@MEAA_NXZ
?explain_possible_keys@Explain_table_base@@MEAA_NXZ
?explain_key_parts@Explain_table_base@@IEAA_NHI@Z
?explain_key_and_len_quick@Explain_table_base@@IEAA_NPEBVSQL_SELECT@@@Z
?explain_key_and_len_index@Explain_table_base@@IEAA_NH@Z
?explain_key_and_len_index@Explain_table_base@@IEAA_NHII@Z
?explain_extra_common@Explain_table_base@@IEAA_NPEBVSQL_SELECT@@PEBUst_join_table@@HI@Z
?explain_tmptable_and_filesort@Explain_table_base@@IEAA_N_N0@Z
?explain_modify_flags@Explain_table_base@@MEAA_NXZ
??1Explain_table_base@@UEAA@XZ
??0Explain_join@@QEAA@PEAVTHD@@PEAVJOIN@@_N22@Z
?begin_sort_context@Explain_join@@AEAA_NW4Explain_sort_clause@@W4Explain_context_enum@@@Z
?end_sort_context@Explain_join@@AEAA_NW4Explain_sort_clause@@W4Explain_context_enum@@@Z
?begin_simple_sort_context@Explain_join@@AEAA_NW4Explain_sort_clause@@W4Explain_context_enum@@@Z
?end_simple_sort_context@Explain_join@@AEAA_NW4Explain_sort_clause@@W4Explain_context_enum@@@Z
?explain_join_tab@Explain_join@@AEAA_N_K@Z
?shallow_explain@Explain_join@@MEAA_NXZ
?explain_table_name@Explain_join@@MEAA_NXZ
?explain_join_type@Explain_join@@MEAA_NXZ
?explain_key_and_len@Explain_join@@MEAA_NXZ
?explain_ref@Explain_join@@MEAA_NXZ
?explain_rows_and_filtered@Explain_join@@MEAA_NXZ
?explain_extra@Explain_join@@MEAA_NXZ
?explain_select_type@Explain_join@@MEAA_NXZ
?explain_id@Explain_join@@MEAA_NXZ
??1Explain_join@@UEAA@XZ
??0Explain_table@@QEAA@QEAVTHD@@QEAUTABLE@@PEBVSQL_SELECT@@I_K_N444@Z
?explain_modify_flags@Explain_table@@UEAA_NXZ
?explain_tmptable_and_filesort@Explain_table@@EEAA_N_N0@Z
?shallow_explain@Explain_table@@EEAA_NXZ
?explain_ref@Explain_table@@EEAA_NXZ
?explain_table_name@Explain_table@@EEAA_NXZ
?explain_join_type@Explain_table@@EEAA_NXZ
?explain_key_and_len@Explain_table@@EEAA_NXZ
?explain_rows_and_filtered@Explain_table@@EEAA_NXZ
?explain_extra@Explain_table@@EEAA_NXZ
??1Explain_table@@UEAA@XZ
??_9Item@@$BDCA@AA
??_9Item@@$BDCI@AA
??0?$StringBuffer@$0CAA@@@QEAA@PEBUcharset_info_st@@@Z
??1?$StringBuffer@$0CAA@@@QEAA@XZ
??0?$StringBuffer@$0KA@@@QEAA@PEBUcharset_info_st@@@Z
??1?$StringBuffer@$0KA@@@QEAA@XZ
??0?$StringBuffer@$0CA@@@QEAA@PEBUcharset_info_st@@@Z
??0?$StringBuffer@$0EA@@@QEAA@PEBD_KPEBUcharset_info_st@@@Z
??0explain_send@@QEAA@PEAVselect_result_interceptor@@@Z
?prepare@explain_send@@MEAAHAEAV?$List@VItem@@@@PEAVst_select_lex_unit@@@Z
?prepare2@explain_send@@MEAAHXZ
?initialize_tables@explain_send@@MEAA_NPEAVJOIN@@@Z
?cleanup@explain_send@@MEAAXXZ
??1explain_send@@UEAA@XZ
my_net_init
net_end
net_clear
net_realloc
net_flush
my_net_write
net_write_command
net_write_packet
my_net_read
my_net_set_write_timeout
my_net_set_read_timeout
?print_decimal@@YAXPEBVmy_decimal@@@Z
?print_decimal_buff@@YAXPEBVmy_decimal@@PEBEH@Z
?dbug_decimal_as_string@@YAPEBDPEADPEBVmy_decimal@@@Z
?str_set_decimal@@YA_NIPEBVmy_decimal@@IIDPEAVString@@PEBUcharset_info_st@@@Z
?decimal_operation_results@@YAHH@Z
?my_decimal2decimal@@YAXPEBVmy_decimal@@PEAV1@@Z
?my_decimal2binary@@YAHIPEBVmy_decimal@@PEAEHH@Z
?my_decimal2string@@YAHIPEBVmy_decimal@@IIDPEAVString@@@Z
?str2my_decimal@@YAHIPEBDIPEBUcharset_info_st@@PEAVmy_decimal@@@Z
?date2my_decimal@@YAPEAVmy_decimal@@PEBUst_mysql_time@@PEAV1@@Z
?time2my_decimal@@YAPEAVmy_decimal@@PEBUst_mysql_time@@PEAV1@@Z
?timeval2my_decimal@@YAPEAVmy_decimal@@PEBUtimeval@@PEAV1@@Z
?my_decimal_trim@@YAXPEAKPEAI@Z
_my_b_net_read
?m_namespace_to_wait_state_name@MDL_key@@0PAUPSI_stage_info_v1@@A DATA
?m_granted_incompatible@MDL_scoped_lock@@0QBGB DATA
?m_waiting_incompatible@MDL_scoped_lock@@0QBGB DATA
?m_granted_incompatible@MDL_object_lock@@0QBGB DATA
?m_waiting_incompatible@MDL_object_lock@@0QBGB DATA
?mdl_locks_cache_size@@3KA DATA
?mdl_locks_hash_partitions@@3KA DATA
?MAX_SEARCH_DEPTH@Deadlock_detection_visitor@@0IB DATA
?swap@I_P_List_null_counter@@IEAAXAEAV1@@Z
?init_psi_keys@MDL_key@@SAXXZ
?mdl_key_init@MDL_key@@QEAAXPEBV1@@Z
?is_equal@MDL_key@@QEBA_NPEBV1@@Z
?cmp@MDL_key@@QEBAHPEBV1@@Z
??0MDL_key@@QEAA@PEBV0@@Z
?get_wait_state_name@MDL_key@@QEBAPEBUPSI_stage_info_v1@@XZ
??$min@G@std@@YAAEBGAEBG0@Z
?init@MDL_request@@QEAAXW4enum_mdl_namespace@MDL_key@@PEBD1W4enum_mdl_type@@W4enum_mdl_duration@@@Z
?init@MDL_request@@QEAAXPEBVMDL_key@@W4enum_mdl_type@@W4enum_mdl_duration@@@Z
??1MDL_wait_for_graph_visitor@@UEAA@XZ
??0MDL_wait_for_graph_visitor@@QEAA@XZ
??1MDL_wait_for_subgraph@@UEAA@XZ
?has_pending_conflicting_lock@MDL_ticket@@QEBA_NXZ
?get_ctx@MDL_ticket@@QEBAPEAVMDL_context@@XZ
?get_type@MDL_ticket@@QEBA?AW4enum_mdl_type@@XZ
?get_lock@MDL_ticket@@QEBAPEAVMDL_lock@@XZ
?downgrade_lock@MDL_ticket@@QEAAXW4enum_mdl_type@@@Z
?has_stronger_or_equal_type@MDL_ticket@@QEBA_NW4enum_mdl_type@@@Z
?is_incompatible_when_granted@MDL_ticket@@QEBA_NW4enum_mdl_type@@@Z
?is_incompatible_when_waiting@MDL_ticket@@QEBA_NW4enum_mdl_type@@@Z
?accept_visitor@MDL_ticket@@UEAA_NPEAVMDL_wait_for_graph_visitor@@@Z
?get_deadlock_weight@MDL_ticket@@UEBAIXZ
??0MDL_ticket@@AEAA@PEAVMDL_context@@W4enum_mdl_type@@W4enum_mdl_duration@@@Z
?create@MDL_ticket@@CAPEAV1@PEAVMDL_context@@W4enum_mdl_type@@W4enum_mdl_duration@@@Z
?destroy@MDL_ticket@@CAXPEAV1@@Z
??1MDL_ticket@@UEAA@XZ
??0MDL_wait@@QEAA@XZ
??1MDL_wait@@QEAA@XZ
?set_status@MDL_wait@@QEAA_NW4enum_wait_status@1@@Z
?get_status@MDL_wait@@QEAA?AW4enum_wait_status@1@XZ
?reset_status@MDL_wait@@QEAAXXZ
?timed_wait@MDL_wait@@QEAA?AW4enum_wait_status@1@PEAVMDL_context_owner@@PEAUtimespec@@_NPEBUPSI_stage_info_v1@@@Z
??0?$I_P_List_no_push_back@VMDL_ticket@@@@IEAA@PEAPEAVMDL_ticket@@@Z
?set_last@?$I_P_List_no_push_back@VMDL_ticket@@@@IEAAXPEAPEAVMDL_ticket@@@Z
?swap@?$I_P_List_no_push_back@VMDL_ticket@@@@IEAAXAEAV1@@Z
??0?$I_P_List@VMDL_ticket@@U?$I_P_List_adapter@VMDL_ticket@@$07$0BA@@@VI_P_List_null_counter@@V?$I_P_List_no_push_back@VMDL_ticket@@@@@@QEAA@XZ
?push_front@?$I_P_List@VMDL_ticket@@U?$I_P_List_adapter@VMDL_ticket@@$07$0BA@@@VI_P_List_null_counter@@V?$I_P_List_no_push_back@VMDL_ticket@@@@@@QEAAXPEAVMDL_ticket@@@Z
?remove@?$I_P_List@VMDL_ticket@@U?$I_P_List_adapter@VMDL_ticket@@$07$0BA@@@VI_P_List_null_counter@@V?$I_P_List_no_push_back@VMDL_ticket@@@@@@QEAAXPEAVMDL_ticket@@@Z
?swap@?$I_P_List@VMDL_ticket@@U?$I_P_List_adapter@VMDL_ticket@@$07$0BA@@@VI_P_List_null_counter@@V?$I_P_List_no_push_back@VMDL_ticket@@@@@@QEAAXAEAV1@@Z
??0MDL_context@@QEAA@XZ
?destroy@MDL_context@@QEAAXXZ
?try_acquire_lock@MDL_context@@QEAA_NPEAVMDL_request@@@Z
?acquire_lock@MDL_context@@QEAA_NPEAVMDL_request@@K@Z
?acquire_locks@MDL_context@@QEAA_NPEAV?$I_P_List@VMDL_request@@U?$I_P_List_adapter@VMDL_request@@$07$0BA@@@VI_P_List_counter@@V?$I_P_List_no_push_back@VMDL_request@@@@@@K@Z
?upgrade_shared_lock@MDL_context@@QEAA_NPEAVMDL_ticket@@W4enum_mdl_type@@K@Z
?clone_ticket@MDL_context@@QEAA_NPEAVMDL_request@@@Z
?release_all_locks_for_name@MDL_context@@QEAAXPEAVMDL_ticket@@@Z
?release_lock@MDL_context@@QEAAXPEAVMDL_ticket@@@Z
?is_lock_owner@MDL_context@@QEAA_NW4enum_mdl_namespace@MDL_key@@PEBD1W4enum_mdl_type@@@Z
?has_lock@MDL_context@@QEAA_NAEBVMDL_savepoint@@PEAVMDL_ticket@@@Z
?set_explicit_duration_for_all_locks@MDL_context@@QEAAXXZ
?set_transaction_duration_for_all_locks@MDL_context@@QEAAXXZ
?set_lock_duration@MDL_context@@QEAAXPEAVMDL_ticket@@W4enum_mdl_duration@@@Z
?release_statement_locks@MDL_context@@QEAAXXZ
?release_transactional_locks@MDL_context@@QEAAXXZ
?rollback_to_savepoint@MDL_context@@QEAAXAEBVMDL_savepoint@@@Z
?get_owner@MDL_context@@QEAAPEAVMDL_context_owner@@XZ
?get_deadlock_weight@MDL_context@@QEBAIXZ
?get_needs_thr_lock_abort@MDL_context@@QEBA_NXZ
?get_thd@MDL_context@@AEBAPEAVTHD@@XZ
?find_ticket@MDL_context@@AEAAPEAVMDL_ticket@@PEAVMDL_request@@PEAW4enum_mdl_duration@@@Z
?release_locks_stored_before@MDL_context@@AEAAXW4enum_mdl_duration@@PEAVMDL_ticket@@@Z
?release_lock@MDL_context@@AEAAXW4enum_mdl_duration@@PEAVMDL_ticket@@@Z
?try_acquire_lock_impl@MDL_context@@AEAA_NPEAVMDL_request@@PEAPEAVMDL_ticket@@@Z
?find_deadlock@MDL_context@@QEAAXXZ
?visit_subgraph@MDL_context@@QEAA_NPEAVMDL_wait_for_graph_visitor@@@Z
?lock_deadlock_victim@MDL_context@@QEAAXXZ
?unlock_deadlock_victim@MDL_context@@QEAAXXZ
?mdl_init@@YAXXZ
?mdl_destroy@@YAXXZ
??0MDL_map_partition@@QEAA@XZ
??1MDL_map_partition@@QEAA@XZ
?find_or_insert@MDL_map_partition@@QEAAPEAVMDL_lock@@PEBVMDL_key@@I@Z
?remove@MDL_map_partition@@QEAAXPEAVMDL_lock@@@Z
?get_key_hash@MDL_map_partition@@QEBAIPEBVMDL_key@@@Z
?move_from_hash_to_lock_mutex@MDL_map_partition@@AEAA_NPEAVMDL_lock@@@Z
??0?$I_P_List_no_push_back@VMDL_object_lock@@@@IEAA@PEAPEAVMDL_object_lock@@@Z
?set_last@?$I_P_List_no_push_back@VMDL_object_lock@@@@IEAAXPEAPEAVMDL_object_lock@@@Z
??0?$I_P_List@VMDL_object_lock@@VMDL_object_lock_cache_adapter@@VI_P_List_counter@@V?$I_P_List_no_push_back@VMDL_object_lock@@@@@@QEAA@XZ
?push_front@?$I_P_List@VMDL_object_lock@@VMDL_object_lock_cache_adapter@@VI_P_List_counter@@V?$I_P_List_no_push_back@VMDL_object_lock@@@@@@QEAAXPEAVMDL_object_lock@@@Z
?remove@?$I_P_List@VMDL_object_lock@@VMDL_object_lock_cache_adapter@@VI_P_List_counter@@V?$I_P_List_no_push_back@VMDL_object_lock@@@@@@QEAAXPEAVMDL_object_lock@@@Z
?front@?$I_P_List@VMDL_object_lock@@VMDL_object_lock_cache_adapter@@VI_P_List_counter@@V?$I_P_List_no_push_back@VMDL_object_lock@@@@@@QEAAPEAVMDL_object_lock@@XZ
?pop_front@?$I_P_List@VMDL_object_lock@@VMDL_object_lock_cache_adapter@@VI_P_List_counter@@V?$I_P_List_no_push_back@VMDL_object_lock@@@@@@QEAAPEAVMDL_object_lock@@XZ
?init@MDL_map@@QEAAXXZ
?destroy@MDL_map@@QEAAXXZ
?find_or_insert@MDL_map@@QEAAPEAVMDL_lock@@PEBVMDL_key@@@Z
?remove@MDL_map@@QEAAXPEAVMDL_lock@@@Z
??0?$Dynamic_array@PEAVMDL_map_partition@@@@QEAA@II@Z
?init@?$Dynamic_array@PEAVMDL_map_partition@@@@QEAAXII@Z
?at@?$Dynamic_array@PEAVMDL_map_partition@@@@QEAAAEAPEAVMDL_map_partition@@H@Z
?append@?$Dynamic_array@PEAVMDL_map_partition@@@@QEAA_NAEBQEAVMDL_map_partition@@@Z
?pop@?$Dynamic_array@PEAVMDL_map_partition@@@@QEAAAEAPEAVMDL_map_partition@@XZ
?elements@?$Dynamic_array@PEAVMDL_map_partition@@@@QEBAHXZ
??1?$Dynamic_array@PEAVMDL_map_partition@@@@QEAA@XZ
??0MDL_map@@QEAA@XZ
??1MDL_map@@QEAA@XZ
??0Deadlock_detection_visitor@@QEAA@PEAVMDL_context@@@Z
?enter_node@Deadlock_detection_visitor@@UEAA_NPEAVMDL_context@@@Z
?leave_node@Deadlock_detection_visitor@@UEAAXPEAVMDL_context@@@Z
?inspect_edge@Deadlock_detection_visitor@@UEAA_NPEAVMDL_context@@@Z
?get_victim@Deadlock_detection_visitor@@QEBAPEAVMDL_context@@XZ
?opt_change_victim_to@Deadlock_detection_visitor@@AEAAXPEAVMDL_context@@@Z
??1Deadlock_detection_visitor@@UEAA@XZ
??BTicket_list@MDL_lock@@QEBAAEBV?$I_P_List@VMDL_ticket@@U?$I_P_List_adapter@VMDL_ticket@@$0BI@$0CA@@@VI_P_List_null_counter@@V?$I_P_List_fast_push_back@VMDL_ticket@@@@@@XZ
??0Ticket_list@MDL_lock@@QEAA@XZ
?add_ticket@Ticket_list@MDL_lock@@QEAAXPEAVMDL_ticket@@@Z
?remove_ticket@Ticket_list@MDL_lock@@QEAAXPEAVMDL_ticket@@@Z
?is_empty@Ticket_list@MDL_lock@@QEBA_NXZ
?bitmap@Ticket_list@MDL_lock@@QEBAGXZ
?clear_bit_if_not_in_list@Ticket_list@MDL_lock@@AEAAXW4enum_mdl_type@@@Z
??0?$I_P_List_fast_push_back@VMDL_ticket@@@@IEAA@PEAPEAVMDL_ticket@@@Z
?set_last@?$I_P_List_fast_push_back@VMDL_ticket@@@@IEAAXPEAPEAVMDL_ticket@@@Z
?get_last@?$I_P_List_fast_push_back@VMDL_ticket@@@@IEBAPEAPEAVMDL_ticket@@XZ
??0?$I_P_List@VMDL_ticket@@U?$I_P_List_adapter@VMDL_ticket@@$0BI@$0CA@@@VI_P_List_null_counter@@V?$I_P_List_fast_push_back@VMDL_ticket@@@@@@QEAA@XZ
?is_empty@?$I_P_List@VMDL_ticket@@U?$I_P_List_adapter@VMDL_ticket@@$0BI@$0CA@@@VI_P_List_null_counter@@V?$I_P_List_fast_push_back@VMDL_ticket@@@@@@QEBA_NXZ
?push_back@?$I_P_List@VMDL_ticket@@U?$I_P_List_adapter@VMDL_ticket@@$0BI@$0CA@@@VI_P_List_null_counter@@V?$I_P_List_fast_push_back@VMDL_ticket@@@@@@QEAAXPEAVMDL_ticket@@@Z
?remove@?$I_P_List@VMDL_ticket@@U?$I_P_List_adapter@VMDL_ticket@@$0BI@$0CA@@@VI_P_List_null_counter@@V?$I_P_List_fast_push_back@VMDL_ticket@@@@@@QEAAXPEAVMDL_ticket@@@Z
?is_empty@MDL_lock@@QEBA_NXZ
?has_pending_conflicting_lock@MDL_lock@@QEAA_NW4enum_mdl_type@@@Z
?can_grant_lock@MDL_lock@@QEBA_NW4enum_mdl_type@@PEAVMDL_context@@_N@Z
?create@MDL_lock@@SAPEAV1@PEBVMDL_key@@PEAVMDL_map_partition@@@Z
?reschedule_waiters@MDL_lock@@QEAAXXZ
?remove_ticket@MDL_lock@@QEAAXPEQ1@VTicket_list@1@PEAVMDL_ticket@@@Z
?visit_subgraph@MDL_lock@@QEAA_NPEAVMDL_ticket@@PEAVMDL_wait_for_graph_visitor@@@Z
??0MDL_lock@@QEAA@PEBVMDL_key@@PEAVMDL_map_partition@@@Z
??1MDL_lock@@UEAA@XZ
?destroy@MDL_lock@@SAXPEAV1@@Z
??0MDL_scoped_lock@@QEAA@PEBVMDL_key@@PEAVMDL_map_partition@@@Z
?incompatible_granted_types_bitmap@MDL_scoped_lock@@UEBAPEBGXZ
?incompatible_waiting_types_bitmap@MDL_scoped_lock@@UEBAPEBGXZ
?needs_notification@MDL_scoped_lock@@UEBA_NPEBVMDL_ticket@@@Z
?notify_conflicting_locks@MDL_scoped_lock@@UEAAXPEAVMDL_context@@@Z
?hog_lock_types_bitmap@MDL_scoped_lock@@UEBAGXZ
??1MDL_scoped_lock@@UEAA@XZ
??0MDL_object_lock@@QEAA@PEBVMDL_key@@PEAVMDL_map_partition@@@Z
?reset@MDL_object_lock@@QEAAXPEBVMDL_key@@@Z
?incompatible_granted_types_bitmap@MDL_object_lock@@UEBAPEBGXZ
?incompatible_waiting_types_bitmap@MDL_object_lock@@UEBAPEBGXZ
?needs_notification@MDL_object_lock@@UEBA_NPEBVMDL_ticket@@@Z
?notify_conflicting_locks@MDL_object_lock@@UEAAXPEAVMDL_context@@@Z
?hog_lock_types_bitmap@MDL_object_lock@@UEBAGXZ
??1MDL_object_lock@@UEAA@XZ
?next_ptr@?$I_P_List_adapter@VMDL_object_lock@@$0CHA@$0CHI@@@SAPEAPEAVMDL_object_lock@@PEAV2@@Z
?prev_ptr@?$I_P_List_adapter@VMDL_object_lock@@$0CHA@$0CHI@@@SAPEAPEAPEAVMDL_object_lock@@PEAV2@@Z
murmur3_adapter
??0?$I_P_List_iterator@VMDL_ticket@@V?$I_P_List@VMDL_ticket@@U?$I_P_List_adapter@VMDL_ticket@@$0BI@$0CA@@@VI_P_List_null_counter@@V?$I_P_List_fast_push_back@VMDL_ticket@@@@@@@@QEAA@AEBV?$I_P_List@VMDL_ticket@@U?$I_P_List_adapter@VMDL_ticket@@$0BI@$0CA@@@VI_P_List_null_counter@@V?$I_P_List_fast_push_back@VMDL_ticket@@@@@@@Z
??E?$I_P_List_iterator@VMDL_ticket@@V?$I_P_List@VMDL_ticket@@U?$I_P_List_adapter@VMDL_ticket@@$0BI@$0CA@@@VI_P_List_null_counter@@V?$I_P_List_fast_push_back@VMDL_ticket@@@@@@@@QEAAPEAVMDL_ticket@@H@Z
?rewind@?$I_P_List_iterator@VMDL_ticket@@V?$I_P_List@VMDL_ticket@@U?$I_P_List_adapter@VMDL_ticket@@$0BI@$0CA@@@VI_P_List_null_counter@@V?$I_P_List_fast_push_back@VMDL_ticket@@@@@@@@QEAAXXZ
??0?$I_P_List_iterator@VMDL_ticket@@V?$I_P_List@VMDL_ticket@@U?$I_P_List_adapter@VMDL_ticket@@$07$0BA@@@VI_P_List_null_counter@@V?$I_P_List_no_push_back@VMDL_ticket@@@@@@@@QEAA@AEBV?$I_P_List@VMDL_ticket@@U?$I_P_List_adapter@VMDL_ticket@@$07$0BA@@@VI_P_List_null_counter@@V?$I_P_List_no_push_back@VMDL_ticket@@@@@@@Z
??E?$I_P_List_iterator@VMDL_ticket@@V?$I_P_List@VMDL_ticket@@U?$I_P_List_adapter@VMDL_ticket@@$07$0BA@@@VI_P_List_null_counter@@V?$I_P_List_no_push_back@VMDL_ticket@@@@@@@@QEAAPEAVMDL_ticket@@H@Z
mdl_request_ptr_cmp
??0?$I_P_List_iterator@VMDL_request@@V?$I_P_List@VMDL_request@@U?$I_P_List_adapter@VMDL_request@@$07$0BA@@@VI_P_List_counter@@V?$I_P_List_no_push_back@VMDL_request@@@@@@@@QEAA@AEBV?$I_P_List@VMDL_request@@U?$I_P_List_adapter@VMDL_request@@$07$0BA@@@VI_P_List_counter@@V?$I_P_List_no_push_back@VMDL_request@@@@@@@Z
??E?$I_P_List_iterator@VMDL_request@@V?$I_P_List@VMDL_request@@U?$I_P_List_adapter@VMDL_request@@$07$0BA@@@VI_P_List_counter@@V?$I_P_List_no_push_back@VMDL_request@@@@@@@@QEAAPEAVMDL_request@@H@Z
?next_ptr@?$I_P_List_adapter@VMDL_ticket@@$07$0BA@@@SAPEAPEAVMDL_ticket@@PEAV2@@Z
?prev_ptr@?$I_P_List_adapter@VMDL_ticket@@$07$0BA@@@SAPEAPEAPEAVMDL_ticket@@PEAV2@@Z
?next_ptr@?$I_P_List_adapter@VMDL_ticket@@$0BI@$0CA@@@SAPEAPEAVMDL_ticket@@PEAV2@@Z
?prev_ptr@?$I_P_List_adapter@VMDL_ticket@@$0BI@$0CA@@@SAPEAPEAPEAVMDL_ticket@@PEAV2@@Z
??$_Debug_lt@AEBGAEBG@std@@YA_NAEBG0PEB_WI@Z
??$forward@AEBG@std@@YAAEBGAEBG@Z
??$_Debug_lt_pred@U?$less@X@std@@AEBGAEBG@std@@YA_NU?$less@X@0@AEBG1PEB_WI@Z
??$?RAEBGAEBG@?$less@X@std@@QEBA_NAEBG0@Z
?tc_log@@3PEAVTC_LOG@@EA DATA
?tc_log_cur_pages_used@@3KA DATA
?opt_tc_log_size@@3KA DATA
?tc_log_max_pages_used@@3KA DATA
?tc_log_page_size@@3KA DATA
?tc_log_page_waits@@3KA DATA
?sql_print_error@@YAXPEBDZZ
?sql_print_warning@@YAXPEBDZZ
?sql_print_information@@YAXPEBDZZ
?sql_print_message_handlers@@3PAP6AXPEBDZZA DATA
my_plugin_log_message
?quick_get_my_xid@xid_t@@QEAA_KXZ
?get_my_xid@xid_t@@QEAA_KXZ
?store_timestamp@Field@@QEAAXJ@Z
?using_heuristic_recover@TC_LOG@@QEAAHXZ
??0TC_LOG@@QEAA@XZ
??1TC_LOG@@UEAA@XZ
??0TC_LOG_DUMMY@@QEAA@XZ
?open@TC_LOG_DUMMY@@UEAAHPEBD@Z
?close@TC_LOG_DUMMY@@UEAAXXZ
?commit@TC_LOG_DUMMY@@UEAA?AW4enum_result@TC_LOG@@PEAVTHD@@_N@Z
?rollback@TC_LOG_DUMMY@@UEAAHPEAVTHD@@_N@Z
?prepare@TC_LOG_DUMMY@@UEAAHPEAVTHD@@_N@Z
??1TC_LOG_DUMMY@@UEAA@XZ
??0TC_LOG_MMAP@@QEAA@XZ
?open@TC_LOG_MMAP@@UEAAHPEBD@Z
?close@TC_LOG_MMAP@@UEAAXXZ
?commit@TC_LOG_MMAP@@UEAA?AW4enum_result@TC_LOG@@PEAVTHD@@_N@Z
?rollback@TC_LOG_MMAP@@UEAAHPEAVTHD@@_N@Z
?prepare@TC_LOG_MMAP@@UEAAHPEAVTHD@@_N@Z
?recover@TC_LOG_MMAP@@QEAAHXZ
?log_xid@TC_LOG_MMAP@@AEAAHPEAVTHD@@_K@Z
?unlog@TC_LOG_MMAP@@AEAAHK_K@Z
?get_active_from_pool@TC_LOG_MMAP@@AEAAXXZ
?sync@TC_LOG_MMAP@@AEAAHXZ
?overflow@TC_LOG_MMAP@@AEAAHXZ
??1TC_LOG_MMAP@@UEAA@XZ
??0MYSQL_LOG@@QEAA@XZ
?init_pthread_objects@MYSQL_LOG@@QEAAXXZ
?cleanup@MYSQL_LOG@@QEAAXXZ
?open@MYSQL_LOG@@QEAA_NIPEBDW4enum_log_type@@0W4cache_type@@@Z
?init_and_set_log_file_name@MYSQL_LOG@@QEAA_NPEBD0W4enum_log_type@@W4cache_type@@@Z
?init@MYSQL_LOG@@QEAAXW4enum_log_type@@W4cache_type@@@Z
?close@MYSQL_LOG@@QEAAXI@Z
?generate_name@MYSQL_LOG@@QEAAPEBDPEBD0_NPEAD@Z
?generate_new_name@MYSQL_LOG@@QEAAHPEADPEBD@Z
??0MYSQL_QUERY_LOG@@QEAA@XZ
?reopen_file@MYSQL_QUERY_LOG@@QEAAXXZ
?write@MYSQL_QUERY_LOG@@QEAA_N_JPEBDIK1I1I@Z
?write@MYSQL_QUERY_LOG@@QEAA_NPEAVTHD@@_J1PEBDI_K3_N2I@Z
??0Log_event_handler@@QEAA@XZ
??1Log_event_handler@@UEAA@XZ
?check_if_log_table@@YAH_KPEBD01_N@Z
??0Log_to_csv_event_handler@@QEAA@XZ
??1Log_to_csv_event_handler@@UEAA@XZ
?init@Log_to_csv_event_handler@@UEAA_NXZ
?cleanup@Log_to_csv_event_handler@@UEAAXXZ
?log_slow@Log_to_csv_event_handler@@UEAA_NPEAVTHD@@_J1PEBDI_K3_N2I@Z
?log_error@Log_to_csv_event_handler@@UEAA_NW4loglevel@@PEBDPEAD@Z
?log_general@Log_to_csv_event_handler@@UEAA_NPEAVTHD@@_JPEBDIK2I2IPEBUcharset_info_st@@@Z
?activate_log@Log_to_csv_event_handler@@QEAAHPEAVTHD@@I@Z
??0Log_to_file_event_handler@@QEAA@XZ
?init@Log_to_file_event_handler@@UEAA_NXZ
?cleanup@Log_to_file_event_handler@@UEAAXXZ
?log_slow@Log_to_file_event_handler@@UEAA_NPEAVTHD@@_J1PEBDI_K3_N2I@Z
?log_error@Log_to_file_event_handler@@UEAA_NW4loglevel@@PEBDPEAD@Z
?log_general@Log_to_file_event_handler@@UEAA_NPEAVTHD@@_JPEBDIK2I2IPEBUcharset_info_st@@@Z
?flush@Log_to_file_event_handler@@QEAAXXZ
?init_pthread_objects@Log_to_file_event_handler@@QEAAXXZ
??1Log_to_file_event_handler@@UEAA@XZ
??0LOGGER@@QEAA@XZ
?lock_shared@LOGGER@@QEAAXXZ
?is_log_table_enabled@LOGGER@@QEAA_NI@Z
?log_command@LOGGER@@QEAA_NPEAVTHD@@W4enum_server_command@@PEBD_K@Z
?init_base@LOGGER@@QEAAXXZ
?init_log_tables@LOGGER@@QEAAXXZ
?flush_logs@LOGGER@@QEAA_NPEAVTHD@@@Z
?flush_slow_log@LOGGER@@QEAA_NXZ
?flush_general_log@LOGGER@@QEAA_NXZ
?cleanup_base@LOGGER@@QEAAXXZ
?cleanup_end@LOGGER@@QEAAXXZ
?error_log_print@LOGGER@@QEAA_NW4loglevel@@PEBDPEAD@Z
?slow_log_print@LOGGER@@QEAA_NPEAVTHD@@PEBDI@Z
?general_log_print@LOGGER@@QEAA_NPEAVTHD@@W4enum_server_command@@PEBDPEAD@Z
?general_log_write@LOGGER@@QEAA_NPEAVTHD@@W4enum_server_command@@PEBDI@Z
?set_handlers@LOGGER@@QEAAHIII@Z
?init_error_log@LOGGER@@QEAAXI@Z
?init_slow_log@LOGGER@@QEAAXI@Z
?init_general_log@LOGGER@@QEAAXI@Z
?deactivate_log_handler@LOGGER@@QEAAXPEAVTHD@@I@Z
?activate_log_handler@LOGGER@@QEAA_NPEAVTHD@@I@Z
?purge_log_get_error_code@@YAIH@Z
?vprint_msg_to_log@@YAHW4loglevel@@PEBDPEAD@Z
?error_log_print@@YAHW4loglevel@@PEBDPEAD@Z
?slow_log_print@@YA_NPEAVTHD@@PEBDI@Z
?general_log_print@@YA_NPEAVTHD@@W4enum_server_command@@PEBDZZ
?general_log_write@@YA_NPEAVTHD@@W4enum_server_command@@PEBDI@Z
?sql_perror@@YAXPEBD@Z
?flush_error_log@@YA_NXZ
?make_log_name@@YAPEADPEADPEBD1@Z
?report_error@Slow_query_log_table_intact@@MEAAXIPEBDZZ
??0Slow_query_log_table_intact@@QEAA@XZ
??1Slow_query_log_table_intact@@UEAA@XZ
?report_error@General_log_table_intact@@MEAAXIPEBDZZ
??0General_log_table_intact@@QEAA@XZ
??1General_log_table_intact@@UEAA@XZ
??0Silence_log_table_errors@@QEAA@XZ
??1Silence_log_table_errors@@UEAA@XZ
?handle_condition@Silence_log_table_errors@@UEAA_NPEAVTHD@@IPEBDW4enum_warning_level@Sql_condition@@1PEAPEAV4@@Z
?message@Silence_log_table_errors@@QEBAPEBDXZ
reopen_fstreams
?tc_log_mmap@@3VTC_LOG_MMAP@@A DATA
?tc_log_dummy@@3VTC_LOG_DUMMY@@A DATA
?logger@@3VLOGGER@@A DATA
?mysql_lock_tables@@YAPEAUst_mysql_lock@@PEAVTHD@@PEAPEAUTABLE@@II@Z
?mysql_unlock_tables@@YAXPEAVTHD@@PEAUst_mysql_lock@@@Z
?mysql_unlock_read_tables@@YAXPEAVTHD@@PEAUst_mysql_lock@@@Z
?mysql_unlock_some_tables@@YAXPEAVTHD@@PEAPEAUTABLE@@I@Z
?mysql_lock_remove@@YAXPEAVTHD@@PEAUst_mysql_lock@@PEAUTABLE@@@Z
?mysql_lock_abort@@YAXPEAVTHD@@PEAUTABLE@@_N@Z
?mysql_lock_abort_for_thread@@YA_NPEAVTHD@@PEAUTABLE@@@Z
?mysql_lock_merge@@YAPEAUst_mysql_lock@@PEAU1@0@Z
?lock_schema_name@@YA_NPEAVTHD@@PEBD@Z
?lock_object_name@@YA_NPEAVTHD@@W4enum_mdl_namespace@MDL_key@@PEBD2@Z
?lock_global_read_lock@Global_read_lock@@QEAA_NPEAVTHD@@@Z
?unlock_global_read_lock@Global_read_lock@@QEAAXPEAVTHD@@@Z
?make_global_read_lock_block_commit@Global_read_lock@@QEAA_NPEAVTHD@@@Z
?set_explicit_lock_duration@Global_read_lock@@QEAAXPEAVTHD@@@Z
?set_time_after_lock@THD@@QEAAXXZ
?default_key_cache_base@@3Ust_mysql_lex_string@@A DATA
?zero_key_cache@@3Ust_key_cache@@A DATA
??0?$ilink@VNAMED_ILINK@@@@QEAA@XZ
?unlink@?$ilink@VNAMED_ILINK@@@@QEAAXXZ
??1?$ilink@VNAMED_ILINK@@@@UEAA@XZ
??0NAMED_ILINK@@QEAA@PEAV?$I_List@VNAMED_ILINK@@@@PEBDIPEAE@Z
?cmp@NAMED_ILINK@@QEAA_NPEBDI@Z
??1NAMED_ILINK@@UEAA@XZ
??0?$base_ilist@VNAMED_ILINK@@@@QEAA@XZ
?is_empty@?$base_ilist@VNAMED_ILINK@@@@QEBA_NXZ
?push_back@?$base_ilist@VNAMED_ILINK@@@@QEAAXPEAVNAMED_ILINK@@@Z
?get@?$base_ilist@VNAMED_ILINK@@@@QEAAPEAVNAMED_ILINK@@XZ
??1?$base_ilist@VNAMED_ILINK@@@@QEAA@XZ
??0?$I_List@VNAMED_ILINK@@@@QEAA@XZ
??1?$I_List@VNAMED_ILINK@@@@QEAA@XZ
?delete_elements@NAMED_ILIST@@QEAAXP6AXPEBDPEAE@Z@Z
??0NAMED_ILIST@@QEAA@XZ
??1NAMED_ILIST@@QEAA@XZ
?create_key_cache@@YAPEAUst_key_cache@@PEBDI@Z
?get_key_cache@@YAPEAUst_key_cache@@PEAUst_mysql_lex_string@@@Z
?get_or_create_key_cache@@YAPEAUst_key_cache@@PEBDI@Z
?free_key_cache@@YAXPEBDPEAUst_key_cache@@@Z
?process_key_caches@@YA_NP6AHPEBDPEAUst_key_cache@@@Z@Z
?find_named@@YAPEAEPEAV?$I_List@VNAMED_ILINK@@@@PEBDIPEAPEAVNAMED_ILINK@@@Z
??0?$base_ilist_iterator@VNAMED_ILINK@@@@QEAA@AEAV?$base_ilist@VNAMED_ILINK@@@@@Z
?next@?$base_ilist_iterator@VNAMED_ILINK@@@@QEAAPEAVNAMED_ILINK@@XZ
??0?$I_List_iterator@VNAMED_ILINK@@@@QEAA@AEAV?$I_List@VNAMED_ILINK@@@@@Z
??E?$I_List_iterator@VNAMED_ILINK@@@@QEAAPEAVNAMED_ILINK@@H@Z
?key_caches@@3VNAMED_ILIST@@A DATA
?store_length@Field_blob@@QEAAXPEAEII@Z
?set_ptr_offset@Field_blob@@QEAAX_JIPEAE@Z
?find_ref_key@@YAHPEAUst_key@@IPEAEPEAVField@@PEAI3@Z
?key_copy@@YAXPEAE0PEAUst_key@@I@Z
?key_restore@@YAXPEAE0PEAUst_key@@I@Z
?key_cmp_if_same@@YA_NPEAUTABLE@@PEBEII@Z
?key_unpack@@YAXPEAVString@@PEAUTABLE@@PEAUst_key@@@Z
?field_unpack@@YAXPEAVString@@PEAVField@@PEBEI_N@Z
?is_key_used@@YA_NPEAUTABLE@@IPEBUst_bitmap@@@Z
?key_cmp@@YAHPEAVKEY_PART_INFO@@PEBEI@Z
?key_cmp2@@YAHPEAVKEY_PART_INFO@@PEBEI1I@Z
key_rec_cmp
?key_zero_nulls@@YAXPEAEPEAUst_key@@@Z
IN6_IS_ADDR_V4MAPPED
IN6_IS_ADDR_V4COMPAT
?val_int@Item_func_inet_aton@@UEAA_JXZ
?val_str@Item_func_inet_ntoa@@UEAAPEAVString@@PEAV2@@Z
?val_int@Item_func_inet_bool_base@@UEAA_JXZ
?val_str_ascii@Item_func_inet_str_base@@UEAAPEAVString@@PEAV2@@Z
?calc_value@Item_func_inet6_aton@@MEAA_NPEAVString@@0@Z
?calc_value@Item_func_inet6_ntoa@@MEAA_NPEAVString@@0@Z
?calc_value@Item_func_is_ipv4@@MEAA_NPEBVString@@@Z
?calc_value@Item_func_is_ipv6@@MEAA_NPEBVString@@@Z
?calc_value@Item_func_is_ipv4_compat@@MEAA_NPEBVString@@@Z
?calc_value@Item_func_is_ipv4_mapped@@MEAA_NPEBVString@@@Z
?set_or_copy@Name_string@@AEAAXPEBD_K_N@Z
??0Name_string@@QEAA@Ust_mysql_lex_string@@_N@Z
?float_length@Item@@QEBAII@Z
?set_used_tables@Item_basic_constant@@QEAAX_K@Z
?agg_item_charsets_for_comparison@@YA_NAEAVDTCollation@@PEBDPEAPEAVItem@@IH@Z
??0Item_func@@QEAA@PEAVItem@@00@Z
?agg_arg_charsets_for_comparison@Item_func@@QEAA_NAEAVDTCollation@@PEAPEAVItem@@IH@Z
??0Item_real_func@@QEAA@PEAVItem@@@Z
?val_int@Item_real_func@@UEAA_JXZ
?get_date@Item_real_func@@UEAA_NPEAUst_mysql_time@@I@Z
?get_time@Item_real_func@@UEAA_NPEAUst_mysql_time@@@Z
?result_type@Item_real_func@@UEBA?AW4Item_result@@XZ
?fix_length_and_dec@Item_real_func@@UEAAXXZ
??1Item_real_func@@UEAA@XZ
??0Item_func_numhybrid@@QEAA@PEAVItem@@@Z
??0Item_func_numhybrid@@QEAA@PEAVItem@@0@Z
?result_type@Item_func_numhybrid@@UEBA?AW4Item_result@@XZ
?is_null@Item_func_numhybrid@@UEAA_NXZ
??1Item_func_numhybrid@@UEAA@XZ
??0Item_func_num1@@QEAA@PEAVItem@@@Z
??0Item_func_num1@@QEAA@PEAVItem@@0@Z
?str_op@Item_func_num1@@UEAAPEAVString@@PEAV2@@Z
?date_op@Item_func_num1@@UEAA_NPEAUst_mysql_time@@I@Z
?time_op@Item_func_num1@@UEAA_NPEAUst_mysql_time@@@Z
??1Item_func_num1@@UEAA@XZ
??0Item_num_op@@QEAA@PEAVItem@@0@Z
?print@Item_num_op@@UEAAXPEAVString@@W4enum_query_type@@@Z
?str_op@Item_num_op@@UEAAPEAVString@@PEAV2@@Z
?date_op@Item_num_op@@UEAA_NPEAUst_mysql_time@@I@Z
?time_op@Item_num_op@@UEAA_NPEAUst_mysql_time@@@Z
??1Item_num_op@@UEAA@XZ
??0Item_func_additive_op@@QEAA@PEAVItem@@0@Z
?check_partition_func_processor@Item_func_additive_op@@UEAA_NPEAE@Z
??1Item_func_additive_op@@UEAA@XZ
??0Item_func_plus@@QEAA@PEAVItem@@0@Z
?func_name@Item_func_plus@@UEBAPEBDXZ
??1Item_func_plus@@UEAA@XZ
??0Item_func_minus@@QEAA@PEAVItem@@0@Z
?func_name@Item_func_minus@@UEBAPEBDXZ
??1Item_func_minus@@UEAA@XZ
??0Item_func_mul@@QEAA@PEAVItem@@0@Z
?func_name@Item_func_mul@@UEBAPEBDXZ
?check_partition_func_processor@Item_func_mul@@UEAA_NPEAE@Z
??1Item_func_mul@@UEAA@XZ
??0Item_func_int_div@@QEAA@PEAVItem@@0@Z
?func_name@Item_func_int_div@@UEBAPEBDXZ
?print@Item_func_int_div@@UEAAXPEAVString@@W4enum_query_type@@@Z
?check_partition_func_processor@Item_func_int_div@@UEAA_NPEAE@Z
??1Item_func_int_div@@UEAA@XZ
??0Item_func_mod@@QEAA@PEAVItem@@0@Z
?func_name@Item_func_mod@@UEBAPEBDXZ
?check_partition_func_processor@Item_func_mod@@UEAA_NPEAE@Z
??1Item_func_mod@@UEAA@XZ
??0Item_func_neg@@QEAA@PEAVItem@@@Z
?func_name@Item_func_neg@@UEBAPEBDXZ
?functype@Item_func_neg@@UEBA?AW4Functype@Item_func@@XZ
?decimal_precision@Item_func_neg@@UEBAIXZ
?check_partition_func_processor@Item_func_neg@@UEAA_NPEAE@Z
??1Item_func_neg@@UEAA@XZ
??0Item_func_int_val@@QEAA@PEAVItem@@@Z
??1Item_func_int_val@@UEAA@XZ
??0Item_func_ceiling@@QEAA@PEAVItem@@@Z
?func_name@Item_func_ceiling@@UEBAPEBDXZ
?check_partition_func_processor@Item_func_ceiling@@UEAA_NPEAE@Z
??1Item_func_ceiling@@UEAA@XZ
??0Item_func_floor@@QEAA@PEAVItem@@@Z
?func_name@Item_func_floor@@UEBAPEBDXZ
